
STRCB.elf:     file format elf32-avr

Sections:
Idx Name          Size      VMA       LMA       File off  Algn
  0 .data         000006ce  00800100  000058fa  0000598e  2**0
                  CONTENTS, ALLOC, LOAD, DATA
  1 .text         000058fa  00000000  00000000  00000094  2**1
                  CONTENTS, ALLOC, LOAD, READONLY, CODE
  2 .bss          000004d8  008007ce  008007ce  0000605c  2**0
                  ALLOC
  3 .stab         00004020  00000000  00000000  0000605c  2**2
                  CONTENTS, READONLY, DEBUGGING
  4 .stabstr      00000f79  00000000  00000000  0000a07c  2**0
                  CONTENTS, READONLY, DEBUGGING
  5 .debug_aranges 00000208  00000000  00000000  0000aff5  2**0
                  CONTENTS, READONLY, DEBUGGING
  6 .debug_pubnames 00000426  00000000  00000000  0000b1fd  2**0
                  CONTENTS, READONLY, DEBUGGING
  7 .debug_info   000044f9  00000000  00000000  0000b623  2**0
                  CONTENTS, READONLY, DEBUGGING
  8 .debug_abbrev 000018ba  00000000  00000000  0000fb1c  2**0
                  CONTENTS, READONLY, DEBUGGING
  9 .debug_line   0000348d  00000000  00000000  000113d6  2**0
                  CONTENTS, READONLY, DEBUGGING
 10 .debug_frame  00000bf0  00000000  00000000  00014864  2**2
                  CONTENTS, READONLY, DEBUGGING
 11 .debug_str    00001201  00000000  00000000  00015454  2**0
                  CONTENTS, READONLY, DEBUGGING
 12 .debug_loc    00002829  00000000  00000000  00016655  2**0
                  CONTENTS, READONLY, DEBUGGING
 13 .debug_ranges 000000a8  00000000  00000000  00018e7e  2**0
                  CONTENTS, READONLY, DEBUGGING
 14 .debug_pubtypes 00000278  00000000  00000000  00018f26  2**0
                  CONTENTS, READONLY, DEBUGGING

Disassembly of section .text:

00000000 <__vectors>:
       0:	0c 94 07 02 	jmp	0x40e	; 0x40e <__ctors_end>
       4:	0c 94 26 02 	jmp	0x44c	; 0x44c <__bad_interrupt>
       8:	0c 94 26 02 	jmp	0x44c	; 0x44c <__bad_interrupt>
       c:	0c 94 26 02 	jmp	0x44c	; 0x44c <__bad_interrupt>
      10:	0c 94 26 02 	jmp	0x44c	; 0x44c <__bad_interrupt>
      14:	0c 94 26 02 	jmp	0x44c	; 0x44c <__bad_interrupt>
      18:	0c 94 26 02 	jmp	0x44c	; 0x44c <__bad_interrupt>
      1c:	0c 94 26 02 	jmp	0x44c	; 0x44c <__bad_interrupt>
      20:	0c 94 26 02 	jmp	0x44c	; 0x44c <__bad_interrupt>
      24:	0c 94 26 02 	jmp	0x44c	; 0x44c <__bad_interrupt>
      28:	0c 94 26 02 	jmp	0x44c	; 0x44c <__bad_interrupt>
      2c:	0c 94 26 02 	jmp	0x44c	; 0x44c <__bad_interrupt>
      30:	0c 94 26 02 	jmp	0x44c	; 0x44c <__bad_interrupt>
      34:	0c 94 26 02 	jmp	0x44c	; 0x44c <__bad_interrupt>
      38:	0c 94 26 02 	jmp	0x44c	; 0x44c <__bad_interrupt>
      3c:	0c 94 aa 08 	jmp	0x1154	; 0x1154 <__vector_15>
      40:	0c 94 26 02 	jmp	0x44c	; 0x44c <__bad_interrupt>
      44:	0c 94 26 02 	jmp	0x44c	; 0x44c <__bad_interrupt>
      48:	0c 94 12 09 	jmp	0x1224	; 0x1224 <__vector_18>
      4c:	0c 94 3e 09 	jmp	0x127c	; 0x127c <__vector_19>
      50:	0c 94 6d 09 	jmp	0x12da	; 0x12da <__vector_20>
      54:	0c 94 26 02 	jmp	0x44c	; 0x44c <__bad_interrupt>
      58:	0c 94 26 02 	jmp	0x44c	; 0x44c <__bad_interrupt>
      5c:	0c 94 26 02 	jmp	0x44c	; 0x44c <__bad_interrupt>
      60:	0c 94 26 02 	jmp	0x44c	; 0x44c <__bad_interrupt>
      64:	0c 94 26 02 	jmp	0x44c	; 0x44c <__bad_interrupt>
      68:	0c 94 26 02 	jmp	0x44c	; 0x44c <__bad_interrupt>
      6c:	0c 94 26 02 	jmp	0x44c	; 0x44c <__bad_interrupt>
      70:	0c 94 26 02 	jmp	0x44c	; 0x44c <__bad_interrupt>
      74:	0c 94 26 02 	jmp	0x44c	; 0x44c <__bad_interrupt>
      78:	0c 94 03 0a 	jmp	0x1406	; 0x1406 <__vector_30>
      7c:	0c 94 32 0a 	jmp	0x1464	; 0x1464 <__vector_31>
      80:	0c 94 66 0a 	jmp	0x14cc	; 0x14cc <__vector_32>
      84:	0c 94 26 02 	jmp	0x44c	; 0x44c <__bad_interrupt>
      88:	0c 94 26 02 	jmp	0x44c	; 0x44c <__bad_interrupt>
      8c:	08 00       	.word	0x0008	; ????
      8e:	00 00       	nop
      90:	be 92       	st	-X, r11
      92:	24 49       	sbci	r18, 0x94	; 148
      94:	12 3e       	cpi	r17, 0xE2	; 226
      96:	ab aa       	std	Y+51, r10	; 0x33
      98:	aa 2a       	or	r10, r26
      9a:	be cd       	rjmp	.-1156   	; 0xfffffc18 <__eeprom_end+0xff7efc18>
      9c:	cc cc       	rjmp	.-1640   	; 0xfffffa36 <__eeprom_end+0xff7efa36>
      9e:	4c 3e       	cpi	r20, 0xEC	; 236
      a0:	00 00       	nop
      a2:	00 80       	ld	r0, Z
      a4:	be ab       	std	Y+54, r27	; 0x36
      a6:	aa aa       	std	Y+50, r10	; 0x32
      a8:	aa 3e       	cpi	r26, 0xEA	; 234
      aa:	00 00       	nop
      ac:	00 00       	nop
      ae:	bf 00       	.word	0x00bf	; ????
      b0:	00 00       	nop
      b2:	80 3f       	cpi	r24, 0xF0	; 240
      b4:	00 00       	nop
      b6:	00 00       	nop
      b8:	00 08       	sbc	r0, r0
      ba:	41 78       	andi	r20, 0x81	; 129
      bc:	d3 bb       	out	0x13, r29	; 19
      be:	43 87       	std	Z+11, r20	; 0x0b
      c0:	d1 13       	cpse	r29, r17
      c2:	3d 19       	sub	r19, r13
      c4:	0e 3c       	cpi	r16, 0xCE	; 206
      c6:	c3 bd       	out	0x23, r28	; 35
      c8:	42 82       	std	Z+2, r4	; 0x02
      ca:	ad 2b       	or	r26, r29
      cc:	3e 68       	ori	r19, 0x8E	; 142
      ce:	ec 82       	std	Y+4, r14	; 0x04
      d0:	76 be       	out	0x36, r7	; 54
      d2:	d9 8f       	std	Y+25, r29	; 0x19
      d4:	e1 a9       	ldd	r30, Z+49	; 0x31
      d6:	3e 4c       	sbci	r19, 0xCE	; 206
      d8:	80 ef       	ldi	r24, 0xF0	; 240
      da:	ff be       	out	0x3f, r15	; 63
      dc:	01 c4       	rjmp	.+2050   	; 0x8e0 <str_event+0x3c6>
      de:	ff 7f       	andi	r31, 0xFF	; 255
      e0:	3f 00       	.word	0x003f	; ????
      e2:	00 00       	nop
      e4:	00 00       	nop
      e6:	07 63       	ori	r16, 0x37	; 55
      e8:	42 36       	cpi	r20, 0x62	; 98
      ea:	b7 9b       	sbis	0x16, 7	; 22
      ec:	d8 a7       	std	Y+40, r29	; 0x28
      ee:	1a 39       	cpi	r17, 0x9A	; 154
      f0:	68 56       	subi	r22, 0x68	; 104
      f2:	18 ae       	std	Y+56, r1	; 0x38
      f4:	ba ab       	std	Y+50, r27	; 0x32
      f6:	55 8c       	ldd	r5, Z+29	; 0x1d
      f8:	1d 3c       	cpi	r17, 0xCD	; 205
      fa:	b7 cc       	rjmp	.-1682   	; 0xfffffa6a <__eeprom_end+0xff7efa6a>
      fc:	57 63       	ori	r21, 0x37	; 55
      fe:	bd 6d       	ori	r27, 0xDD	; 221
     100:	ed fd       	.word	0xfded	; ????
     102:	75 3e       	cpi	r23, 0xE5	; 229
     104:	f6 17       	cp	r31, r22
     106:	72 31       	cpi	r23, 0x12	; 18
     108:	bf 00       	.word	0x00bf	; ????
     10a:	00 00       	nop
     10c:	80 3f       	cpi	r24, 0xF0	; 240

0000010e <TFont2_data>:
	...
     1d6:	be 00 00 00 00 06 00 06 00 00 44 fe 44 fe 44 00     ..........D.D.D.
     1e6:	4c 92 fe 92 64 00 86 66 10 cc c2 00 6e 92 ae a0     L...d..f....n...
     1f6:	40 a0 00 06 00 00 00 00 00 38 44 82 00 00 00 82     @........8D.....
     206:	44 38 00 00 00 04 0e 04 00 00 10 10 7c 10 10 00     D8..........|...
     216:	00 40 c0 00 00 00 10 10 10 10 10 00 00 c0 c0 00     .@..............
     226:	00 00 00 c0 38 06 00 00 7c a2 92 8a 7c 00 00 84     ....8...|...|...
     236:	fe 80 00 00 84 c2 a2 92 8c 00 42 82 8a 96 62 00     ..........B...b.
     246:	30 28 24 fe 20 00 4e 8a 8a 8a 72 00 78 94 92 92     0($. .N...r.x...
     256:	60 00 02 e2 12 0a 06 00 6c 92 92 92 6c 00 0c 92     `.......l...l...
     266:	92 52 3c 00 00 00 44 00 00 00 00 40 c4 00 00 00     .R<...D....@....
     276:	00 10 28 44 82 00 00 28 28 28 28 28 00 82 44 28     ..(D...(((((..D(
     286:	10 00 00 04 a2 12 0c 00 7c 82 ba aa b2 1c fc 12     ........|.......
     296:	12 12 fc 00 fe 92 92 92 6c 00 7c 82 82 82 44 00     ........l.|...D.
     2a6:	fe 82 82 82 7c 00 fe 92 92 92 82 00 fe 12 12 12     ....|...........
     2b6:	02 00 7c 82 92 92 f4 00 fe 10 10 10 fe 00 00 82     ..|.............
     2c6:	fe 82 00 00 40 80 82 7e 02 00 fe 10 28 44 82 00     ....@..~....(D..
     2d6:	fe 80 80 80 80 00 fe 04 18 04 fe 00 fe 08 10 20     ............... 
     2e6:	fe 00 7c 82 82 82 7c 00 fe 12 12 12 0c 00 7c 82     ..|...|.......|.
     2f6:	a2 42 bc 00 fe 12 32 52 8c 00 8c 92 92 92 62 00     .B....2R......b.
     306:	02 02 fe 02 02 00 7e 80 80 80 7e 00 1e 60 80 60     ......~...~..`.`
     316:	1e 00 7e 80 70 80 7e 00 c6 28 10 28 c6 00 0e 10     ..~.p.~..(.(....
     326:	e0 10 0e 00 c2 a2 92 8a 86 00 00 00 fe 82 00 00     ................
     336:	00 06 38 c0 00 00 00 00 82 fe 00 00 08 04 02 04     ..8.............
     346:	08 00 00 80 80 80 80 00 00 00 02 04 00 00 40 a8     ..............@.
     356:	a8 a8 f0 00 fe 90 88 88 70 00 70 88 88 88 40 00     ........p.p...@.
     366:	70 88 88 90 fe 00 70 a8 a8 a8 30 00 10 fc 12 04     p.....p...0.....
     376:	00 00 40 98 a4 a4 7c 00 fe 10 08 08 f0 00 00 88     ..@...|.........
     386:	fa 80 00 00 40 80 80 7a 00 00 fe 20 50 88 00 00     ....@..z... P...
     396:	00 82 fe 80 00 00 f8 08 30 08 f0 00 f8 10 08 08     ........0.......
     3a6:	f0 00 70 88 88 88 70 00 f8 28 28 28 10 00 10 28     ..p...p..(((...(
     3b6:	28 30 f8 00 f8 10 08 08 10 00 90 a8 a8 a8 40 00     (0............@.
     3c6:	08 7e 88 80 40 00 78 80 80 80 78 00 38 40 80 40     .~..@.x...x.8@.@
     3d6:	38 00 78 80 60 80 78 00 88 50 20 50 88 00 18 a0     8.x.`.x..P P....
     3e6:	a0 a0 78 00 88 c8 a8 98 88 00 00 10 ee 82 00 00     ..x.............
     3f6:	00 00 fe 00 00 00 00 00 82 ee 10 00 10 08 10 20     ............... 
     406:	10 00 00 7c 7c 00 00 00                             ...||...

0000040e <__ctors_end>:
     40e:	11 24       	eor	r1, r1
     410:	1f be       	out	0x3f, r1	; 63
     412:	cf ef       	ldi	r28, 0xFF	; 255
     414:	d0 e1       	ldi	r29, 0x10	; 16
     416:	de bf       	out	0x3e, r29	; 62
     418:	cd bf       	out	0x3d, r28	; 61

0000041a <__do_copy_data>:
     41a:	17 e0       	ldi	r17, 0x07	; 7
     41c:	a0 e0       	ldi	r26, 0x00	; 0
     41e:	b1 e0       	ldi	r27, 0x01	; 1
     420:	ea ef       	ldi	r30, 0xFA	; 250
     422:	f8 e5       	ldi	r31, 0x58	; 88
     424:	00 e0       	ldi	r16, 0x00	; 0
     426:	0b bf       	out	0x3b, r16	; 59
     428:	02 c0       	rjmp	.+4      	; 0x42e <__do_copy_data+0x14>
     42a:	07 90       	elpm	r0, Z+
     42c:	0d 92       	st	X+, r0
     42e:	ae 3c       	cpi	r26, 0xCE	; 206
     430:	b1 07       	cpc	r27, r17
     432:	d9 f7       	brne	.-10     	; 0x42a <__do_copy_data+0x10>

00000434 <__do_clear_bss>:
     434:	1c e0       	ldi	r17, 0x0C	; 12
     436:	ae ec       	ldi	r26, 0xCE	; 206
     438:	b7 e0       	ldi	r27, 0x07	; 7
     43a:	01 c0       	rjmp	.+2      	; 0x43e <.do_clear_bss_start>

0000043c <.do_clear_bss_loop>:
     43c:	1d 92       	st	X+, r1

0000043e <.do_clear_bss_start>:
     43e:	a6 3a       	cpi	r26, 0xA6	; 166
     440:	b1 07       	cpc	r27, r17
     442:	e1 f7       	brne	.-8      	; 0x43c <.do_clear_bss_loop>
     444:	0e 94 ec 1d 	call	0x3bd8	; 0x3bd8 <main>
     448:	0c 94 7b 2c 	jmp	0x58f6	; 0x58f6 <_exit>

0000044c <__bad_interrupt>:
     44c:	0c 94 00 00 	jmp	0	; 0x0 <__vectors>

00000450 <bFill>:
     450:	fb 01       	movw	r30, r22
     452:	da 01       	movw	r26, r20
     454:	e8 0f       	add	r30, r24
     456:	f9 1f       	adc	r31, r25
     458:	01 c0       	rjmp	.+2      	; 0x45c <bFill+0xc>
     45a:	81 93       	st	Z+, r24
     45c:	8d 91       	ld	r24, X+
     45e:	88 23       	and	r24, r24
     460:	e1 f7       	brne	.-8      	; 0x45a <bFill+0xa>
     462:	08 95       	ret

00000464 <loadStatInfo>:
     464:	f8 94       	cli
     466:	61 15       	cp	r22, r1
     468:	71 05       	cpc	r23, r1
     46a:	19 f4       	brne	.+6      	; 0x472 <loadStatInfo+0xe>
     46c:	60 e0       	ldi	r22, 0x00	; 0
     46e:	74 e0       	ldi	r23, 0x04	; 4
     470:	02 c0       	rjmp	.+4      	; 0x476 <loadStatInfo+0x12>
     472:	68 e1       	ldi	r22, 0x18	; 24
     474:	7c e0       	ldi	r23, 0x0C	; 12
     476:	43 e0       	ldi	r20, 0x03	; 3
     478:	50 e0       	ldi	r21, 0x00	; 0
     47a:	0e 94 b4 2b 	call	0x5768	; 0x5768 <__eerd_block_m128>
     47e:	78 94       	sei
     480:	08 95       	ret

00000482 <saveStatInfo.constprop.2>:
     482:	f8 94       	cli
     484:	00 97       	sbiw	r24, 0x00	; 0
     486:	29 f4       	brne	.+10     	; 0x492 <saveStatInfo.constprop.2+0x10>
     488:	81 e5       	ldi	r24, 0x51	; 81
     48a:	98 e0       	ldi	r25, 0x08	; 8
     48c:	60 e0       	ldi	r22, 0x00	; 0
     48e:	74 e0       	ldi	r23, 0x04	; 4
     490:	04 c0       	rjmp	.+8      	; 0x49a <saveStatInfo.constprop.2+0x18>
     492:	81 e5       	ldi	r24, 0x51	; 81
     494:	98 e0       	ldi	r25, 0x08	; 8
     496:	68 e1       	ldi	r22, 0x18	; 24
     498:	7c e0       	ldi	r23, 0x0C	; 12
     49a:	43 e0       	ldi	r20, 0x03	; 3
     49c:	50 e0       	ldi	r21, 0x00	; 0
     49e:	0e 94 c4 2b 	call	0x5788	; 0x5788 <__eewr_block_m128>
     4a2:	78 94       	sei
     4a4:	08 95       	ret

000004a6 <handle_config_command>:
     4a6:	cf 93       	push	r28
     4a8:	df 93       	push	r29
     4aa:	ec 01       	movw	r28, r24
     4ac:	60 e0       	ldi	r22, 0x00	; 0
     4ae:	71 e0       	ldi	r23, 0x01	; 1
     4b0:	47 e0       	ldi	r20, 0x07	; 7
     4b2:	50 e0       	ldi	r21, 0x00	; 0
     4b4:	0e 94 66 29 	call	0x52cc	; 0x52cc <strncmp>
     4b8:	00 97       	sbiw	r24, 0x00	; 0
     4ba:	61 f5       	brne	.+88     	; 0x514 <handle_config_command+0x6e>
     4bc:	ac 2f       	mov	r26, r28
     4be:	bd 2f       	mov	r27, r29
     4c0:	fd 01       	movw	r30, r26
     4c2:	01 90       	ld	r0, Z+
     4c4:	00 20       	and	r0, r0
     4c6:	e9 f7       	brne	.-6      	; 0x4c2 <handle_config_command+0x1c>
     4c8:	ea 1b       	sub	r30, r26
     4ca:	fb 0b       	sbc	r31, r27
     4cc:	3d 97       	sbiw	r30, 0x0d	; 13
     4ce:	e4 30       	cpi	r30, 0x04	; 4
     4d0:	f1 05       	cpc	r31, r1
     4d2:	00 f5       	brcc	.+64     	; 0x514 <handle_config_command+0x6e>
     4d4:	be 01       	movw	r22, r28
     4d6:	69 5f       	subi	r22, 0xF9	; 249
     4d8:	7f 4f       	sbci	r23, 0xFF	; 255
     4da:	85 e5       	ldi	r24, 0x55	; 85
     4dc:	98 e0       	ldi	r25, 0x08	; 8
     4de:	0e 94 5f 29 	call	0x52be	; 0x52be <strcpy>
     4e2:	88 e0       	ldi	r24, 0x08	; 8
     4e4:	91 e0       	ldi	r25, 0x01	; 1
     4e6:	0e 94 9b 11 	call	0x2336	; 0x2336 <sdl_write>
     4ea:	85 e5       	ldi	r24, 0x55	; 85
     4ec:	98 e0       	ldi	r25, 0x08	; 8
     4ee:	0e 94 9b 11 	call	0x2336	; 0x2336 <sdl_write>
     4f2:	8c e1       	ldi	r24, 0x1C	; 28
     4f4:	91 e0       	ldi	r25, 0x01	; 1
     4f6:	0e 94 9b 11 	call	0x2336	; 0x2336 <sdl_write>
     4fa:	81 ea       	ldi	r24, 0xA1	; 161
     4fc:	80 93 54 08 	sts	0x0854, r24
     500:	f8 94       	cli
     502:	84 e5       	ldi	r24, 0x54	; 84
     504:	98 e0       	ldi	r25, 0x08	; 8
     506:	60 e0       	ldi	r22, 0x00	; 0
     508:	70 e0       	ldi	r23, 0x00	; 0
     50a:	4a e0       	ldi	r20, 0x0A	; 10
     50c:	50 e0       	ldi	r21, 0x00	; 0
     50e:	0e 94 c4 2b 	call	0x5788	; 0x5788 <__eewr_block_m128>
     512:	78 94       	sei
     514:	df 91       	pop	r29
     516:	cf 91       	pop	r28
     518:	08 95       	ret

0000051a <str_event>:
     51a:	cf 92       	push	r12
     51c:	df 92       	push	r13
     51e:	ef 92       	push	r14
     520:	ff 92       	push	r15
     522:	0f 93       	push	r16
     524:	1f 93       	push	r17
     526:	cf 93       	push	r28
     528:	df 93       	push	r29
     52a:	cd b7       	in	r28, 0x3d	; 61
     52c:	de b7       	in	r29, 0x3e	; 62
     52e:	c0 54       	subi	r28, 0x40	; 64
     530:	d0 40       	sbci	r29, 0x00	; 0
     532:	0f b6       	in	r0, 0x3f	; 63
     534:	f8 94       	cli
     536:	de bf       	out	0x3e, r29	; 62
     538:	0f be       	out	0x3f, r0	; 63
     53a:	cd bf       	out	0x3d, r28	; 61
     53c:	81 e0       	ldi	r24, 0x01	; 1
     53e:	90 e0       	ldi	r25, 0x00	; 0
     540:	90 93 d7 07 	sts	0x07D7, r25
     544:	80 93 d6 07 	sts	0x07D6, r24
     548:	61 15       	cp	r22, r1
     54a:	71 05       	cpc	r23, r1
     54c:	09 f4       	brne	.+2      	; 0x550 <str_event+0x36>
     54e:	51 c5       	rjmp	.+2722   	; 0xff2 <str_event+0xad8>
     550:	0e 94 08 16 	call	0x2c10	; 0x2c10 <str_getRunInfo>
     554:	7c 01       	movw	r14, r24
     556:	dc 01       	movw	r26, r24
     558:	11 96       	adiw	r26, 0x01	; 1
     55a:	2c 91       	ld	r18, X
     55c:	80 91 52 08 	lds	r24, 0x0852
     560:	90 91 53 08 	lds	r25, 0x0853
     564:	82 0f       	add	r24, r18
     566:	91 1d       	adc	r25, r1
     568:	90 93 53 08 	sts	0x0853, r25
     56c:	80 93 52 08 	sts	0x0852, r24
     570:	80 e0       	ldi	r24, 0x00	; 0
     572:	90 e0       	ldi	r25, 0x00	; 0
     574:	0e 94 41 02 	call	0x482	; 0x482 <saveStatInfo.constprop.2>
     578:	81 e0       	ldi	r24, 0x01	; 1
     57a:	90 e0       	ldi	r25, 0x00	; 0
     57c:	0e 94 41 02 	call	0x482	; 0x482 <saveStatInfo.constprop.2>
     580:	89 e1       	ldi	r24, 0x19	; 25
     582:	0e 94 9d 10 	call	0x213a	; 0x213a <ada_font_enLarge>
     586:	81 e0       	ldi	r24, 0x01	; 1
     588:	0e 94 b2 10 	call	0x2164	; 0x2164 <ada_font_bold>
     58c:	81 e0       	ldi	r24, 0x01	; 1
     58e:	0e 94 6e 10 	call	0x20dc	; 0x20dc <ada_align_mode>
     592:	82 ed       	ldi	r24, 0xD2	; 210
     594:	93 e0       	ldi	r25, 0x03	; 3
     596:	0e 94 2f 10 	call	0x205e	; 0x205e <ada_print>
     59a:	80 e0       	ldi	r24, 0x00	; 0
     59c:	0e 94 9d 10 	call	0x213a	; 0x213a <ada_font_enLarge>
     5a0:	80 e0       	ldi	r24, 0x00	; 0
     5a2:	0e 94 b2 10 	call	0x2164	; 0x2164 <ada_font_bold>
     5a6:	80 e0       	ldi	r24, 0x00	; 0
     5a8:	0e 94 6e 10 	call	0x20dc	; 0x20dc <ada_align_mode>
     5ac:	8c ed       	ldi	r24, 0xDC	; 220
     5ae:	93 e0       	ldi	r25, 0x03	; 3
     5b0:	0e 94 2f 10 	call	0x205e	; 0x205e <ada_print>
     5b4:	ef e3       	ldi	r30, 0x3F	; 63
     5b6:	fc e9       	ldi	r31, 0x9C	; 156
     5b8:	31 97       	sbiw	r30, 0x01	; 1
     5ba:	f1 f7       	brne	.-4      	; 0x5b8 <str_event+0x9e>
     5bc:	00 c0       	rjmp	.+0      	; 0x5be <str_event+0xa4>
     5be:	00 00       	nop
     5c0:	82 e3       	ldi	r24, 0x32	; 50
     5c2:	0e 94 c7 10 	call	0x218e	; 0x218e <ada_line_spacing>
     5c6:	2d b7       	in	r18, 0x3d	; 61
     5c8:	3e b7       	in	r19, 0x3e	; 62
     5ca:	2a 50       	subi	r18, 0x0A	; 10
     5cc:	30 40       	sbci	r19, 0x00	; 0
     5ce:	0f b6       	in	r0, 0x3f	; 63
     5d0:	f8 94       	cli
     5d2:	3e bf       	out	0x3e, r19	; 62
     5d4:	0f be       	out	0x3f, r0	; 63
     5d6:	2d bf       	out	0x3d, r18	; 61
     5d8:	ed b7       	in	r30, 0x3d	; 61
     5da:	fe b7       	in	r31, 0x3e	; 62
     5dc:	31 96       	adiw	r30, 0x01	; 1
     5de:	8e 01       	movw	r16, r28
     5e0:	0f 5f       	subi	r16, 0xFF	; 255
     5e2:	1f 4f       	sbci	r17, 0xFF	; 255
     5e4:	ad b7       	in	r26, 0x3d	; 61
     5e6:	be b7       	in	r27, 0x3e	; 62
     5e8:	12 96       	adiw	r26, 0x02	; 2
     5ea:	1c 93       	st	X, r17
     5ec:	0e 93       	st	-X, r16
     5ee:	11 97       	sbiw	r26, 0x01	; 1
     5f0:	8e ee       	ldi	r24, 0xEE	; 238
     5f2:	93 e0       	ldi	r25, 0x03	; 3
     5f4:	93 83       	std	Z+3, r25	; 0x03
     5f6:	82 83       	std	Z+2, r24	; 0x02
     5f8:	d7 01       	movw	r26, r14
     5fa:	12 96       	adiw	r26, 0x02	; 2
     5fc:	8c 91       	ld	r24, X
     5fe:	12 97       	sbiw	r26, 0x02	; 2
     600:	90 e0       	ldi	r25, 0x00	; 0
     602:	80 53       	subi	r24, 0x30	; 48
     604:	98 4f       	sbci	r25, 0xF8	; 248
     606:	95 83       	std	Z+5, r25	; 0x05
     608:	84 83       	std	Z+4, r24	; 0x04
     60a:	13 96       	adiw	r26, 0x03	; 3
     60c:	8c 91       	ld	r24, X
     60e:	13 97       	sbiw	r26, 0x03	; 3
     610:	86 83       	std	Z+6, r24	; 0x06
     612:	17 82       	std	Z+7, r1	; 0x07
     614:	14 96       	adiw	r26, 0x04	; 4
     616:	8c 91       	ld	r24, X
     618:	80 87       	std	Z+8, r24	; 0x08
     61a:	11 86       	std	Z+9, r1	; 0x09
     61c:	0e 94 74 29 	call	0x52e8	; 0x52e8 <sprintf>
     620:	ed b7       	in	r30, 0x3d	; 61
     622:	fe b7       	in	r31, 0x3e	; 62
     624:	3a 96       	adiw	r30, 0x0a	; 10
     626:	0f b6       	in	r0, 0x3f	; 63
     628:	f8 94       	cli
     62a:	fe bf       	out	0x3e, r31	; 62
     62c:	0f be       	out	0x3f, r0	; 63
     62e:	ed bf       	out	0x3d, r30	; 61
     630:	c8 01       	movw	r24, r16
     632:	0e 94 2f 10 	call	0x205e	; 0x205e <ada_print>
     636:	d7 01       	movw	r26, r14
     638:	8c 91       	ld	r24, X
     63a:	81 30       	cpi	r24, 0x01	; 1
     63c:	21 f4       	brne	.+8      	; 0x646 <str_event+0x12c>
     63e:	c8 01       	movw	r24, r16
     640:	65 e0       	ldi	r22, 0x05	; 5
     642:	74 e0       	ldi	r23, 0x04	; 4
     644:	05 c0       	rjmp	.+10     	; 0x650 <str_event+0x136>
     646:	83 30       	cpi	r24, 0x03	; 3
     648:	31 f4       	brne	.+12     	; 0x656 <str_event+0x13c>
     64a:	c8 01       	movw	r24, r16
     64c:	6f e1       	ldi	r22, 0x1F	; 31
     64e:	74 e0       	ldi	r23, 0x04	; 4
     650:	0e 94 5f 29 	call	0x52be	; 0x52be <strcpy>
     654:	21 c0       	rjmp	.+66     	; 0x698 <str_event+0x17e>
     656:	82 30       	cpi	r24, 0x02	; 2
     658:	f9 f4       	brne	.+62     	; 0x698 <str_event+0x17e>
     65a:	00 d0       	rcall	.+0      	; 0x65c <str_event+0x142>
     65c:	00 d0       	rcall	.+0      	; 0x65e <str_event+0x144>
     65e:	00 d0       	rcall	.+0      	; 0x660 <str_event+0x146>
     660:	ed b7       	in	r30, 0x3d	; 61
     662:	fe b7       	in	r31, 0x3e	; 62
     664:	31 96       	adiw	r30, 0x01	; 1
     666:	ad b7       	in	r26, 0x3d	; 61
     668:	be b7       	in	r27, 0x3e	; 62
     66a:	12 96       	adiw	r26, 0x02	; 2
     66c:	1c 93       	st	X, r17
     66e:	0e 93       	st	-X, r16
     670:	11 97       	sbiw	r26, 0x01	; 1
     672:	86 e3       	ldi	r24, 0x36	; 54
     674:	94 e0       	ldi	r25, 0x04	; 4
     676:	93 83       	std	Z+3, r25	; 0x03
     678:	82 83       	std	Z+2, r24	; 0x02
     67a:	d7 01       	movw	r26, r14
     67c:	11 96       	adiw	r26, 0x01	; 1
     67e:	8c 91       	ld	r24, X
     680:	84 83       	std	Z+4, r24	; 0x04
     682:	15 82       	std	Z+5, r1	; 0x05
     684:	0e 94 74 29 	call	0x52e8	; 0x52e8 <sprintf>
     688:	ed b7       	in	r30, 0x3d	; 61
     68a:	fe b7       	in	r31, 0x3e	; 62
     68c:	36 96       	adiw	r30, 0x06	; 6
     68e:	0f b6       	in	r0, 0x3f	; 63
     690:	f8 94       	cli
     692:	fe bf       	out	0x3e, r31	; 62
     694:	0f be       	out	0x3f, r0	; 63
     696:	ed bf       	out	0x3d, r30	; 61
     698:	8e 01       	movw	r16, r28
     69a:	0f 5f       	subi	r16, 0xFF	; 255
     69c:	1f 4f       	sbci	r17, 0xFF	; 255
     69e:	c8 01       	movw	r24, r16
     6a0:	0e 94 2f 10 	call	0x205e	; 0x205e <ada_print>
     6a4:	8b e2       	ldi	r24, 0x2B	; 43
     6a6:	91 e0       	ldi	r25, 0x01	; 1
     6a8:	0e 94 2f 10 	call	0x205e	; 0x205e <ada_print>
     6ac:	8f e3       	ldi	r24, 0x3F	; 63
     6ae:	9c e9       	ldi	r25, 0x9C	; 156
     6b0:	01 97       	sbiw	r24, 0x01	; 1
     6b2:	f1 f7       	brne	.-4      	; 0x6b0 <str_event+0x196>
     6b4:	00 c0       	rjmp	.+0      	; 0x6b6 <str_event+0x19c>
     6b6:	00 00       	nop
     6b8:	ad b7       	in	r26, 0x3d	; 61
     6ba:	be b7       	in	r27, 0x3e	; 62
     6bc:	1a 97       	sbiw	r26, 0x0a	; 10
     6be:	0f b6       	in	r0, 0x3f	; 63
     6c0:	f8 94       	cli
     6c2:	be bf       	out	0x3e, r27	; 62
     6c4:	0f be       	out	0x3f, r0	; 63
     6c6:	ad bf       	out	0x3d, r26	; 61
     6c8:	ed b7       	in	r30, 0x3d	; 61
     6ca:	fe b7       	in	r31, 0x3e	; 62
     6cc:	31 96       	adiw	r30, 0x01	; 1
     6ce:	12 96       	adiw	r26, 0x02	; 2
     6d0:	1c 93       	st	X, r17
     6d2:	0e 93       	st	-X, r16
     6d4:	11 97       	sbiw	r26, 0x01	; 1
     6d6:	8f e4       	ldi	r24, 0x4F	; 79
     6d8:	94 e0       	ldi	r25, 0x04	; 4
     6da:	93 83       	std	Z+3, r25	; 0x03
     6dc:	82 83       	std	Z+2, r24	; 0x02
     6de:	d7 01       	movw	r26, r14
     6e0:	15 96       	adiw	r26, 0x05	; 5
     6e2:	8c 91       	ld	r24, X
     6e4:	15 97       	sbiw	r26, 0x05	; 5
     6e6:	84 83       	std	Z+4, r24	; 0x04
     6e8:	15 82       	std	Z+5, r1	; 0x05
     6ea:	16 96       	adiw	r26, 0x06	; 6
     6ec:	8c 91       	ld	r24, X
     6ee:	16 97       	sbiw	r26, 0x06	; 6
     6f0:	86 83       	std	Z+6, r24	; 0x06
     6f2:	17 82       	std	Z+7, r1	; 0x07
     6f4:	17 96       	adiw	r26, 0x07	; 7
     6f6:	8c 91       	ld	r24, X
     6f8:	80 87       	std	Z+8, r24	; 0x08
     6fa:	11 86       	std	Z+9, r1	; 0x09
     6fc:	0e 94 74 29 	call	0x52e8	; 0x52e8 <sprintf>
     700:	ed b7       	in	r30, 0x3d	; 61
     702:	fe b7       	in	r31, 0x3e	; 62
     704:	3a 96       	adiw	r30, 0x0a	; 10
     706:	0f b6       	in	r0, 0x3f	; 63
     708:	f8 94       	cli
     70a:	fe bf       	out	0x3e, r31	; 62
     70c:	0f be       	out	0x3f, r0	; 63
     70e:	ed bf       	out	0x3d, r30	; 61
     710:	c8 01       	movw	r24, r16
     712:	0e 94 2f 10 	call	0x205e	; 0x205e <ada_print>
     716:	8f e3       	ldi	r24, 0x3F	; 63
     718:	9c e9       	ldi	r25, 0x9C	; 156
     71a:	01 97       	sbiw	r24, 0x01	; 1
     71c:	f1 f7       	brne	.-4      	; 0x71a <str_event+0x200>
     71e:	00 c0       	rjmp	.+0      	; 0x720 <str_event+0x206>
     720:	00 00       	nop
     722:	89 e1       	ldi	r24, 0x19	; 25
     724:	0e 94 83 10 	call	0x2106	; 0x2106 <ada_left_space>
     728:	d7 01       	movw	r26, r14
     72a:	2c 91       	ld	r18, X
     72c:	18 96       	adiw	r26, 0x08	; 8
     72e:	8d 91       	ld	r24, X+
     730:	9c 91       	ld	r25, X
     732:	19 97       	sbiw	r26, 0x09	; 9
     734:	21 30       	cpi	r18, 0x01	; 1
     736:	91 f4       	brne	.+36     	; 0x75c <str_event+0x242>
     738:	ed b7       	in	r30, 0x3d	; 61
     73a:	fe b7       	in	r31, 0x3e	; 62
     73c:	38 97       	sbiw	r30, 0x08	; 8
     73e:	0f b6       	in	r0, 0x3f	; 63
     740:	f8 94       	cli
     742:	fe bf       	out	0x3e, r31	; 62
     744:	0f be       	out	0x3f, r0	; 63
     746:	ed bf       	out	0x3d, r30	; 61
     748:	31 96       	adiw	r30, 0x01	; 1
     74a:	ad b7       	in	r26, 0x3d	; 61
     74c:	be b7       	in	r27, 0x3e	; 62
     74e:	12 96       	adiw	r26, 0x02	; 2
     750:	1c 93       	st	X, r17
     752:	0e 93       	st	-X, r16
     754:	11 97       	sbiw	r26, 0x01	; 1
     756:	2c e6       	ldi	r18, 0x6C	; 108
     758:	34 e0       	ldi	r19, 0x04	; 4
     75a:	16 c0       	rjmp	.+44     	; 0x788 <str_event+0x26e>
     75c:	23 30       	cpi	r18, 0x03	; 3
     75e:	c9 f4       	brne	.+50     	; 0x792 <str_event+0x278>
     760:	2d b7       	in	r18, 0x3d	; 61
     762:	3e b7       	in	r19, 0x3e	; 62
     764:	28 50       	subi	r18, 0x08	; 8
     766:	30 40       	sbci	r19, 0x00	; 0
     768:	0f b6       	in	r0, 0x3f	; 63
     76a:	f8 94       	cli
     76c:	3e bf       	out	0x3e, r19	; 62
     76e:	0f be       	out	0x3f, r0	; 63
     770:	2d bf       	out	0x3d, r18	; 61
     772:	ed b7       	in	r30, 0x3d	; 61
     774:	fe b7       	in	r31, 0x3e	; 62
     776:	31 96       	adiw	r30, 0x01	; 1
     778:	ad b7       	in	r26, 0x3d	; 61
     77a:	be b7       	in	r27, 0x3e	; 62
     77c:	12 96       	adiw	r26, 0x02	; 2
     77e:	1c 93       	st	X, r17
     780:	0e 93       	st	-X, r16
     782:	11 97       	sbiw	r26, 0x01	; 1
     784:	2c e8       	ldi	r18, 0x8C	; 140
     786:	34 e0       	ldi	r19, 0x04	; 4
     788:	33 83       	std	Z+3, r19	; 0x03
     78a:	22 83       	std	Z+2, r18	; 0x02
     78c:	6c e3       	ldi	r22, 0x3C	; 60
     78e:	70 e0       	ldi	r23, 0x00	; 0
     790:	49 c0       	rjmp	.+146    	; 0x824 <str_event+0x30a>
     792:	2d b7       	in	r18, 0x3d	; 61
     794:	3e b7       	in	r19, 0x3e	; 62
     796:	28 50       	subi	r18, 0x08	; 8
     798:	30 40       	sbci	r19, 0x00	; 0
     79a:	0f b6       	in	r0, 0x3f	; 63
     79c:	f8 94       	cli
     79e:	3e bf       	out	0x3e, r19	; 62
     7a0:	0f be       	out	0x3f, r0	; 63
     7a2:	2d bf       	out	0x3d, r18	; 61
     7a4:	ed b7       	in	r30, 0x3d	; 61
     7a6:	fe b7       	in	r31, 0x3e	; 62
     7a8:	31 96       	adiw	r30, 0x01	; 1
     7aa:	ad b7       	in	r26, 0x3d	; 61
     7ac:	be b7       	in	r27, 0x3e	; 62
     7ae:	12 96       	adiw	r26, 0x02	; 2
     7b0:	1c 93       	st	X, r17
     7b2:	0e 93       	st	-X, r16
     7b4:	11 97       	sbiw	r26, 0x01	; 1
     7b6:	29 ea       	ldi	r18, 0xA9	; 169
     7b8:	34 e0       	ldi	r19, 0x04	; 4
     7ba:	33 83       	std	Z+3, r19	; 0x03
     7bc:	22 83       	std	Z+2, r18	; 0x02
     7be:	5c e3       	ldi	r21, 0x3C	; 60
     7c0:	c5 2e       	mov	r12, r21
     7c2:	d1 2c       	mov	r13, r1
     7c4:	b6 01       	movw	r22, r12
     7c6:	0e 94 16 29 	call	0x522c	; 0x522c <__udivmodhi4>
     7ca:	75 83       	std	Z+5, r23	; 0x05
     7cc:	64 83       	std	Z+4, r22	; 0x04
     7ce:	97 83       	std	Z+7, r25	; 0x07
     7d0:	86 83       	std	Z+6, r24	; 0x06
     7d2:	0e 94 74 29 	call	0x52e8	; 0x52e8 <sprintf>
     7d6:	ed b7       	in	r30, 0x3d	; 61
     7d8:	fe b7       	in	r31, 0x3e	; 62
     7da:	38 96       	adiw	r30, 0x08	; 8
     7dc:	0f b6       	in	r0, 0x3f	; 63
     7de:	f8 94       	cli
     7e0:	fe bf       	out	0x3e, r31	; 62
     7e2:	0f be       	out	0x3f, r0	; 63
     7e4:	ed bf       	out	0x3d, r30	; 61
     7e6:	c8 01       	movw	r24, r16
     7e8:	0e 94 2f 10 	call	0x205e	; 0x205e <ada_print>
     7ec:	89 e1       	ldi	r24, 0x19	; 25
     7ee:	0e 94 83 10 	call	0x2106	; 0x2106 <ada_left_space>
     7f2:	d7 01       	movw	r26, r14
     7f4:	1a 96       	adiw	r26, 0x0a	; 10
     7f6:	8d 91       	ld	r24, X+
     7f8:	9c 91       	ld	r25, X
     7fa:	1b 97       	sbiw	r26, 0x0b	; 11
     7fc:	ed b7       	in	r30, 0x3d	; 61
     7fe:	fe b7       	in	r31, 0x3e	; 62
     800:	38 97       	sbiw	r30, 0x08	; 8
     802:	0f b6       	in	r0, 0x3f	; 63
     804:	f8 94       	cli
     806:	fe bf       	out	0x3e, r31	; 62
     808:	0f be       	out	0x3f, r0	; 63
     80a:	ed bf       	out	0x3d, r30	; 61
     80c:	31 96       	adiw	r30, 0x01	; 1
     80e:	ad b7       	in	r26, 0x3d	; 61
     810:	be b7       	in	r27, 0x3e	; 62
     812:	12 96       	adiw	r26, 0x02	; 2
     814:	1c 93       	st	X, r17
     816:	0e 93       	st	-X, r16
     818:	11 97       	sbiw	r26, 0x01	; 1
     81a:	29 ec       	ldi	r18, 0xC9	; 201
     81c:	34 e0       	ldi	r19, 0x04	; 4
     81e:	33 83       	std	Z+3, r19	; 0x03
     820:	22 83       	std	Z+2, r18	; 0x02
     822:	b6 01       	movw	r22, r12
     824:	0e 94 16 29 	call	0x522c	; 0x522c <__udivmodhi4>
     828:	75 83       	std	Z+5, r23	; 0x05
     82a:	64 83       	std	Z+4, r22	; 0x04
     82c:	97 83       	std	Z+7, r25	; 0x07
     82e:	86 83       	std	Z+6, r24	; 0x06
     830:	0e 94 74 29 	call	0x52e8	; 0x52e8 <sprintf>
     834:	ed b7       	in	r30, 0x3d	; 61
     836:	fe b7       	in	r31, 0x3e	; 62
     838:	38 96       	adiw	r30, 0x08	; 8
     83a:	0f b6       	in	r0, 0x3f	; 63
     83c:	f8 94       	cli
     83e:	fe bf       	out	0x3e, r31	; 62
     840:	0f be       	out	0x3f, r0	; 63
     842:	ed bf       	out	0x3d, r30	; 61
     844:	c8 01       	movw	r24, r16
     846:	0e 94 2f 10 	call	0x205e	; 0x205e <ada_print>
     84a:	8f e3       	ldi	r24, 0x3F	; 63
     84c:	9c e9       	ldi	r25, 0x9C	; 156
     84e:	01 97       	sbiw	r24, 0x01	; 1
     850:	f1 f7       	brne	.-4      	; 0x84e <str_event+0x334>
     852:	00 c0       	rjmp	.+0      	; 0x854 <str_event+0x33a>
     854:	00 00       	nop
     856:	d7 01       	movw	r26, r14
     858:	53 96       	adiw	r26, 0x13	; 19
     85a:	8c 91       	ld	r24, X
     85c:	53 97       	sbiw	r26, 0x13	; 19
     85e:	88 23       	and	r24, r24
     860:	09 f4       	brne	.+2      	; 0x864 <str_event+0x34a>
     862:	59 c0       	rjmp	.+178    	; 0x916 <str_event+0x3fc>
     864:	1c 96       	adiw	r26, 0x0c	; 12
     866:	8d 91       	ld	r24, X+
     868:	9c 91       	ld	r25, X
     86a:	1d 97       	sbiw	r26, 0x0d	; 13
     86c:	00 97       	sbiw	r24, 0x00	; 0
     86e:	59 f1       	breq	.+86     	; 0x8c6 <str_event+0x3ac>
     870:	ed b7       	in	r30, 0x3d	; 61
     872:	fe b7       	in	r31, 0x3e	; 62
     874:	38 97       	sbiw	r30, 0x08	; 8
     876:	0f b6       	in	r0, 0x3f	; 63
     878:	f8 94       	cli
     87a:	fe bf       	out	0x3e, r31	; 62
     87c:	0f be       	out	0x3f, r0	; 63
     87e:	ed bf       	out	0x3d, r30	; 61
     880:	31 96       	adiw	r30, 0x01	; 1
     882:	8e 01       	movw	r16, r28
     884:	0f 5f       	subi	r16, 0xFF	; 255
     886:	1f 4f       	sbci	r17, 0xFF	; 255
     888:	ad b7       	in	r26, 0x3d	; 61
     88a:	be b7       	in	r27, 0x3e	; 62
     88c:	12 96       	adiw	r26, 0x02	; 2
     88e:	1c 93       	st	X, r17
     890:	0e 93       	st	-X, r16
     892:	11 97       	sbiw	r26, 0x01	; 1
     894:	27 ee       	ldi	r18, 0xE7	; 231
     896:	34 e0       	ldi	r19, 0x04	; 4
     898:	33 83       	std	Z+3, r19	; 0x03
     89a:	22 83       	std	Z+2, r18	; 0x02
     89c:	6c e3       	ldi	r22, 0x3C	; 60
     89e:	70 e0       	ldi	r23, 0x00	; 0
     8a0:	0e 94 16 29 	call	0x522c	; 0x522c <__udivmodhi4>
     8a4:	75 83       	std	Z+5, r23	; 0x05
     8a6:	64 83       	std	Z+4, r22	; 0x04
     8a8:	97 83       	std	Z+7, r25	; 0x07
     8aa:	86 83       	std	Z+6, r24	; 0x06
     8ac:	0e 94 74 29 	call	0x52e8	; 0x52e8 <sprintf>
     8b0:	ed b7       	in	r30, 0x3d	; 61
     8b2:	fe b7       	in	r31, 0x3e	; 62
     8b4:	38 96       	adiw	r30, 0x08	; 8
     8b6:	0f b6       	in	r0, 0x3f	; 63
     8b8:	f8 94       	cli
     8ba:	fe bf       	out	0x3e, r31	; 62
     8bc:	0f be       	out	0x3f, r0	; 63
     8be:	ed bf       	out	0x3d, r30	; 61
     8c0:	c8 01       	movw	r24, r16
     8c2:	0e 94 2f 10 	call	0x205e	; 0x205e <ada_print>
     8c6:	d7 01       	movw	r26, r14
     8c8:	53 96       	adiw	r26, 0x13	; 19
     8ca:	8c 91       	ld	r24, X
     8cc:	90 e0       	ldi	r25, 0x00	; 0
     8ce:	0e 94 f8 15 	call	0x2bf0	; 0x2bf0 <str_getErrorString>
     8d2:	00 d0       	rcall	.+0      	; 0x8d4 <str_event+0x3ba>
     8d4:	00 d0       	rcall	.+0      	; 0x8d6 <str_event+0x3bc>
     8d6:	00 d0       	rcall	.+0      	; 0x8d8 <str_event+0x3be>
     8d8:	ed b7       	in	r30, 0x3d	; 61
     8da:	fe b7       	in	r31, 0x3e	; 62
     8dc:	31 96       	adiw	r30, 0x01	; 1
     8de:	8e 01       	movw	r16, r28
     8e0:	0f 5f       	subi	r16, 0xFF	; 255
     8e2:	1f 4f       	sbci	r17, 0xFF	; 255
     8e4:	ad b7       	in	r26, 0x3d	; 61
     8e6:	be b7       	in	r27, 0x3e	; 62
     8e8:	12 96       	adiw	r26, 0x02	; 2
     8ea:	1c 93       	st	X, r17
     8ec:	0e 93       	st	-X, r16
     8ee:	11 97       	sbiw	r26, 0x01	; 1
     8f0:	2b e0       	ldi	r18, 0x0B	; 11
     8f2:	35 e0       	ldi	r19, 0x05	; 5
     8f4:	33 83       	std	Z+3, r19	; 0x03
     8f6:	22 83       	std	Z+2, r18	; 0x02
     8f8:	95 83       	std	Z+5, r25	; 0x05
     8fa:	84 83       	std	Z+4, r24	; 0x04
     8fc:	0e 94 74 29 	call	0x52e8	; 0x52e8 <sprintf>
     900:	ed b7       	in	r30, 0x3d	; 61
     902:	fe b7       	in	r31, 0x3e	; 62
     904:	36 96       	adiw	r30, 0x06	; 6
     906:	0f b6       	in	r0, 0x3f	; 63
     908:	f8 94       	cli
     90a:	fe bf       	out	0x3e, r31	; 62
     90c:	0f be       	out	0x3f, r0	; 63
     90e:	ed bf       	out	0x3d, r30	; 61
     910:	c8 01       	movw	r24, r16
     912:	0e 94 2f 10 	call	0x205e	; 0x205e <ada_print>
     916:	2d b7       	in	r18, 0x3d	; 61
     918:	3e b7       	in	r19, 0x3e	; 62
     91a:	2a 50       	subi	r18, 0x0A	; 10
     91c:	30 40       	sbci	r19, 0x00	; 0
     91e:	0f b6       	in	r0, 0x3f	; 63
     920:	f8 94       	cli
     922:	3e bf       	out	0x3e, r19	; 62
     924:	0f be       	out	0x3f, r0	; 63
     926:	2d bf       	out	0x3d, r18	; 61
     928:	ed b7       	in	r30, 0x3d	; 61
     92a:	fe b7       	in	r31, 0x3e	; 62
     92c:	31 96       	adiw	r30, 0x01	; 1
     92e:	8e 01       	movw	r16, r28
     930:	0f 5f       	subi	r16, 0xFF	; 255
     932:	1f 4f       	sbci	r17, 0xFF	; 255
     934:	ad b7       	in	r26, 0x3d	; 61
     936:	be b7       	in	r27, 0x3e	; 62
     938:	12 96       	adiw	r26, 0x02	; 2
     93a:	1c 93       	st	X, r17
     93c:	0e 93       	st	-X, r16
     93e:	11 97       	sbiw	r26, 0x01	; 1
     940:	89 e1       	ldi	r24, 0x19	; 25
     942:	95 e0       	ldi	r25, 0x05	; 5
     944:	93 83       	std	Z+3, r25	; 0x03
     946:	82 83       	std	Z+2, r24	; 0x02
     948:	d7 01       	movw	r26, r14
     94a:	50 96       	adiw	r26, 0x10	; 16
     94c:	8c 91       	ld	r24, X
     94e:	50 97       	sbiw	r26, 0x10	; 16
     950:	84 83       	std	Z+4, r24	; 0x04
     952:	15 82       	std	Z+5, r1	; 0x05
     954:	51 96       	adiw	r26, 0x11	; 17
     956:	8c 91       	ld	r24, X
     958:	51 97       	sbiw	r26, 0x11	; 17
     95a:	86 83       	std	Z+6, r24	; 0x06
     95c:	17 82       	std	Z+7, r1	; 0x07
     95e:	52 96       	adiw	r26, 0x12	; 18
     960:	8c 91       	ld	r24, X
     962:	80 87       	std	Z+8, r24	; 0x08
     964:	11 86       	std	Z+9, r1	; 0x09
     966:	0e 94 74 29 	call	0x52e8	; 0x52e8 <sprintf>
     96a:	ed b7       	in	r30, 0x3d	; 61
     96c:	fe b7       	in	r31, 0x3e	; 62
     96e:	3a 96       	adiw	r30, 0x0a	; 10
     970:	0f b6       	in	r0, 0x3f	; 63
     972:	f8 94       	cli
     974:	fe bf       	out	0x3e, r31	; 62
     976:	0f be       	out	0x3f, r0	; 63
     978:	ed bf       	out	0x3d, r30	; 61
     97a:	c8 01       	movw	r24, r16
     97c:	0e 94 2f 10 	call	0x205e	; 0x205e <ada_print>
     980:	8b e2       	ldi	r24, 0x2B	; 43
     982:	91 e0       	ldi	r25, 0x01	; 1
     984:	0e 94 2f 10 	call	0x205e	; 0x205e <ada_print>
     988:	d7 01       	movw	r26, r14
     98a:	1e 96       	adiw	r26, 0x0e	; 14
     98c:	8d 91       	ld	r24, X+
     98e:	9c 91       	ld	r25, X
     990:	1f 97       	sbiw	r26, 0x0f	; 15
     992:	ed b7       	in	r30, 0x3d	; 61
     994:	fe b7       	in	r31, 0x3e	; 62
     996:	38 97       	sbiw	r30, 0x08	; 8
     998:	0f b6       	in	r0, 0x3f	; 63
     99a:	f8 94       	cli
     99c:	fe bf       	out	0x3e, r31	; 62
     99e:	0f be       	out	0x3f, r0	; 63
     9a0:	ed bf       	out	0x3d, r30	; 61
     9a2:	31 96       	adiw	r30, 0x01	; 1
     9a4:	ad b7       	in	r26, 0x3d	; 61
     9a6:	be b7       	in	r27, 0x3e	; 62
     9a8:	12 96       	adiw	r26, 0x02	; 2
     9aa:	1c 93       	st	X, r17
     9ac:	0e 93       	st	-X, r16
     9ae:	11 97       	sbiw	r26, 0x01	; 1
     9b0:	24 e3       	ldi	r18, 0x34	; 52
     9b2:	35 e0       	ldi	r19, 0x05	; 5
     9b4:	33 83       	std	Z+3, r19	; 0x03
     9b6:	22 83       	std	Z+2, r18	; 0x02
     9b8:	6c e3       	ldi	r22, 0x3C	; 60
     9ba:	70 e0       	ldi	r23, 0x00	; 0
     9bc:	0e 94 16 29 	call	0x522c	; 0x522c <__udivmodhi4>
     9c0:	75 83       	std	Z+5, r23	; 0x05
     9c2:	64 83       	std	Z+4, r22	; 0x04
     9c4:	97 83       	std	Z+7, r25	; 0x07
     9c6:	86 83       	std	Z+6, r24	; 0x06
     9c8:	0e 94 74 29 	call	0x52e8	; 0x52e8 <sprintf>
     9cc:	ed b7       	in	r30, 0x3d	; 61
     9ce:	fe b7       	in	r31, 0x3e	; 62
     9d0:	38 96       	adiw	r30, 0x08	; 8
     9d2:	0f b6       	in	r0, 0x3f	; 63
     9d4:	f8 94       	cli
     9d6:	fe bf       	out	0x3e, r31	; 62
     9d8:	0f be       	out	0x3f, r0	; 63
     9da:	ed bf       	out	0x3d, r30	; 61
     9dc:	c8 01       	movw	r24, r16
     9de:	0e 94 2f 10 	call	0x205e	; 0x205e <ada_print>
     9e2:	00 d0       	rcall	.+0      	; 0x9e4 <str_event+0x4ca>
     9e4:	00 d0       	rcall	.+0      	; 0x9e6 <str_event+0x4cc>
     9e6:	00 d0       	rcall	.+0      	; 0x9e8 <str_event+0x4ce>
     9e8:	ed b7       	in	r30, 0x3d	; 61
     9ea:	fe b7       	in	r31, 0x3e	; 62
     9ec:	31 96       	adiw	r30, 0x01	; 1
     9ee:	ad b7       	in	r26, 0x3d	; 61
     9f0:	be b7       	in	r27, 0x3e	; 62
     9f2:	12 96       	adiw	r26, 0x02	; 2
     9f4:	1c 93       	st	X, r17
     9f6:	0e 93       	st	-X, r16
     9f8:	11 97       	sbiw	r26, 0x01	; 1
     9fa:	88 e5       	ldi	r24, 0x58	; 88
     9fc:	95 e0       	ldi	r25, 0x05	; 5
     9fe:	93 83       	std	Z+3, r25	; 0x03
     a00:	82 83       	std	Z+2, r24	; 0x02
     a02:	80 91 52 08 	lds	r24, 0x0852
     a06:	90 91 53 08 	lds	r25, 0x0853
     a0a:	95 83       	std	Z+5, r25	; 0x05
     a0c:	84 83       	std	Z+4, r24	; 0x04
     a0e:	0e 94 74 29 	call	0x52e8	; 0x52e8 <sprintf>
     a12:	ed b7       	in	r30, 0x3d	; 61
     a14:	fe b7       	in	r31, 0x3e	; 62
     a16:	36 96       	adiw	r30, 0x06	; 6
     a18:	0f b6       	in	r0, 0x3f	; 63
     a1a:	f8 94       	cli
     a1c:	fe bf       	out	0x3e, r31	; 62
     a1e:	0f be       	out	0x3f, r0	; 63
     a20:	ed bf       	out	0x3d, r30	; 61
     a22:	c8 01       	movw	r24, r16
     a24:	0e 94 2f 10 	call	0x205e	; 0x205e <ada_print>
     a28:	8b e2       	ldi	r24, 0x2B	; 43
     a2a:	91 e0       	ldi	r25, 0x01	; 1
     a2c:	0e 94 2f 10 	call	0x205e	; 0x205e <ada_print>
     a30:	89 e1       	ldi	r24, 0x19	; 25
     a32:	0e 94 9d 10 	call	0x213a	; 0x213a <ada_font_enLarge>
     a36:	81 e0       	ldi	r24, 0x01	; 1
     a38:	0e 94 b2 10 	call	0x2164	; 0x2164 <ada_font_bold>
     a3c:	81 e0       	ldi	r24, 0x01	; 1
     a3e:	0e 94 6e 10 	call	0x20dc	; 0x20dc <ada_align_mode>
     a42:	d7 01       	movw	r26, r14
     a44:	53 96       	adiw	r26, 0x13	; 19
     a46:	8c 91       	ld	r24, X
     a48:	53 97       	sbiw	r26, 0x13	; 19
     a4a:	88 23       	and	r24, r24
     a4c:	19 f4       	brne	.+6      	; 0xa54 <str_event+0x53a>
     a4e:	83 e7       	ldi	r24, 0x73	; 115
     a50:	95 e0       	ldi	r25, 0x05	; 5
     a52:	02 c0       	rjmp	.+4      	; 0xa58 <str_event+0x53e>
     a54:	8d e7       	ldi	r24, 0x7D	; 125
     a56:	95 e0       	ldi	r25, 0x05	; 5
     a58:	0e 94 2f 10 	call	0x205e	; 0x205e <ada_print>
     a5c:	80 e0       	ldi	r24, 0x00	; 0
     a5e:	0e 94 9d 10 	call	0x213a	; 0x213a <ada_font_enLarge>
     a62:	80 e0       	ldi	r24, 0x00	; 0
     a64:	0e 94 b2 10 	call	0x2164	; 0x2164 <ada_font_bold>
     a68:	80 e0       	ldi	r24, 0x00	; 0
     a6a:	0e 94 6e 10 	call	0x20dc	; 0x20dc <ada_align_mode>
     a6e:	84 e8       	ldi	r24, 0x84	; 132
     a70:	95 e0       	ldi	r25, 0x05	; 5
     a72:	0e 94 2f 10 	call	0x205e	; 0x205e <ada_print>
     a76:	f7 01       	movw	r30, r14
     a78:	80 81       	ld	r24, Z
     a7a:	81 30       	cpi	r24, 0x01	; 1
     a7c:	31 f0       	breq	.+12     	; 0xa8a <str_event+0x570>
     a7e:	82 30       	cpi	r24, 0x02	; 2
     a80:	31 f0       	breq	.+12     	; 0xa8e <str_event+0x574>
     a82:	83 30       	cpi	r24, 0x03	; 3
     a84:	31 f0       	breq	.+12     	; 0xa92 <str_event+0x578>
     a86:	2e e4       	ldi	r18, 0x4E	; 78
     a88:	05 c0       	rjmp	.+10     	; 0xa94 <str_event+0x57a>
     a8a:	23 e5       	ldi	r18, 0x53	; 83
     a8c:	03 c0       	rjmp	.+6      	; 0xa94 <str_event+0x57a>
     a8e:	22 e5       	ldi	r18, 0x52	; 82
     a90:	01 c0       	rjmp	.+2      	; 0xa94 <str_event+0x57a>
     a92:	24 e4       	ldi	r18, 0x44	; 68
     a94:	8d b7       	in	r24, 0x3d	; 61
     a96:	9e b7       	in	r25, 0x3e	; 62
     a98:	42 97       	sbiw	r24, 0x12	; 18
     a9a:	0f b6       	in	r0, 0x3f	; 63
     a9c:	f8 94       	cli
     a9e:	9e bf       	out	0x3e, r25	; 62
     aa0:	0f be       	out	0x3f, r0	; 63
     aa2:	8d bf       	out	0x3d, r24	; 61
     aa4:	ed b7       	in	r30, 0x3d	; 61
     aa6:	fe b7       	in	r31, 0x3e	; 62
     aa8:	31 96       	adiw	r30, 0x01	; 1
     aaa:	8e 01       	movw	r16, r28
     aac:	0f 5f       	subi	r16, 0xFF	; 255
     aae:	1f 4f       	sbci	r17, 0xFF	; 255
     ab0:	ad b7       	in	r26, 0x3d	; 61
     ab2:	be b7       	in	r27, 0x3e	; 62
     ab4:	12 96       	adiw	r26, 0x02	; 2
     ab6:	1c 93       	st	X, r17
     ab8:	0e 93       	st	-X, r16
     aba:	11 97       	sbiw	r26, 0x01	; 1
     abc:	85 ea       	ldi	r24, 0xA5	; 165
     abe:	95 e0       	ldi	r25, 0x05	; 5
     ac0:	93 83       	std	Z+3, r25	; 0x03
     ac2:	82 83       	std	Z+2, r24	; 0x02
     ac4:	d7 01       	movw	r26, r14
     ac6:	12 96       	adiw	r26, 0x02	; 2
     ac8:	8c 91       	ld	r24, X
     aca:	12 97       	sbiw	r26, 0x02	; 2
     acc:	84 83       	std	Z+4, r24	; 0x04
     ace:	15 82       	std	Z+5, r1	; 0x05
     ad0:	13 96       	adiw	r26, 0x03	; 3
     ad2:	8c 91       	ld	r24, X
     ad4:	13 97       	sbiw	r26, 0x03	; 3
     ad6:	86 83       	std	Z+6, r24	; 0x06
     ad8:	17 82       	std	Z+7, r1	; 0x07
     ada:	14 96       	adiw	r26, 0x04	; 4
     adc:	8c 91       	ld	r24, X
     ade:	14 97       	sbiw	r26, 0x04	; 4
     ae0:	80 87       	std	Z+8, r24	; 0x08
     ae2:	11 86       	std	Z+9, r1	; 0x09
     ae4:	50 96       	adiw	r26, 0x10	; 16
     ae6:	8c 91       	ld	r24, X
     ae8:	50 97       	sbiw	r26, 0x10	; 16
     aea:	82 87       	std	Z+10, r24	; 0x0a
     aec:	13 86       	std	Z+11, r1	; 0x0b
     aee:	51 96       	adiw	r26, 0x11	; 17
     af0:	8c 91       	ld	r24, X
     af2:	51 97       	sbiw	r26, 0x11	; 17
     af4:	84 87       	std	Z+12, r24	; 0x0c
     af6:	15 86       	std	Z+13, r1	; 0x0d
     af8:	52 96       	adiw	r26, 0x12	; 18
     afa:	8c 91       	ld	r24, X
     afc:	86 87       	std	Z+14, r24	; 0x0e
     afe:	17 86       	std	Z+15, r1	; 0x0f
     b00:	20 8b       	std	Z+16, r18	; 0x10
     b02:	11 8a       	std	Z+17, r1	; 0x11
     b04:	0e 94 74 29 	call	0x52e8	; 0x52e8 <sprintf>
     b08:	ed b7       	in	r30, 0x3d	; 61
     b0a:	fe b7       	in	r31, 0x3e	; 62
     b0c:	72 96       	adiw	r30, 0x12	; 18
     b0e:	0f b6       	in	r0, 0x3f	; 63
     b10:	f8 94       	cli
     b12:	fe bf       	out	0x3e, r31	; 62
     b14:	0f be       	out	0x3f, r0	; 63
     b16:	ed bf       	out	0x3d, r30	; 61
     b18:	c8 01       	movw	r24, r16
     b1a:	0e 94 cc 11 	call	0x2398	; 0x2398 <sdl_create>
     b1e:	8f e3       	ldi	r24, 0x3F	; 63
     b20:	9c e9       	ldi	r25, 0x9C	; 156
     b22:	01 97       	sbiw	r24, 0x01	; 1
     b24:	f1 f7       	brne	.-4      	; 0xb22 <str_event+0x608>
     b26:	00 c0       	rjmp	.+0      	; 0xb28 <str_event+0x60e>
     b28:	00 00       	nop
     b2a:	af e3       	ldi	r26, 0x3F	; 63
     b2c:	bc e9       	ldi	r27, 0x9C	; 156
     b2e:	11 97       	sbiw	r26, 0x01	; 1
     b30:	f1 f7       	brne	.-4      	; 0xb2e <str_event+0x614>
     b32:	00 c0       	rjmp	.+0      	; 0xb34 <str_event+0x61a>
     b34:	00 00       	nop
     b36:	82 ed       	ldi	r24, 0xD2	; 210
     b38:	93 e0       	ldi	r25, 0x03	; 3
     b3a:	0e 94 9b 11 	call	0x2336	; 0x2336 <sdl_write>
     b3e:	ef e3       	ldi	r30, 0x3F	; 63
     b40:	fc e9       	ldi	r31, 0x9C	; 156
     b42:	31 97       	sbiw	r30, 0x01	; 1
     b44:	f1 f7       	brne	.-4      	; 0xb42 <str_event+0x628>
     b46:	00 c0       	rjmp	.+0      	; 0xb48 <str_event+0x62e>
     b48:	00 00       	nop
     b4a:	86 ec       	ldi	r24, 0xC6	; 198
     b4c:	95 e0       	ldi	r25, 0x05	; 5
     b4e:	0e 94 9b 11 	call	0x2336	; 0x2336 <sdl_write>
     b52:	8f e3       	ldi	r24, 0x3F	; 63
     b54:	9c e9       	ldi	r25, 0x9C	; 156
     b56:	01 97       	sbiw	r24, 0x01	; 1
     b58:	f1 f7       	brne	.-4      	; 0xb56 <str_event+0x63c>
     b5a:	00 c0       	rjmp	.+0      	; 0xb5c <str_event+0x642>
     b5c:	00 00       	nop
     b5e:	ad b7       	in	r26, 0x3d	; 61
     b60:	be b7       	in	r27, 0x3e	; 62
     b62:	1a 97       	sbiw	r26, 0x0a	; 10
     b64:	0f b6       	in	r0, 0x3f	; 63
     b66:	f8 94       	cli
     b68:	be bf       	out	0x3e, r27	; 62
     b6a:	0f be       	out	0x3f, r0	; 63
     b6c:	ad bf       	out	0x3d, r26	; 61
     b6e:	ed b7       	in	r30, 0x3d	; 61
     b70:	fe b7       	in	r31, 0x3e	; 62
     b72:	31 96       	adiw	r30, 0x01	; 1
     b74:	12 96       	adiw	r26, 0x02	; 2
     b76:	1c 93       	st	X, r17
     b78:	0e 93       	st	-X, r16
     b7a:	11 97       	sbiw	r26, 0x01	; 1
     b7c:	8e ee       	ldi	r24, 0xEE	; 238
     b7e:	93 e0       	ldi	r25, 0x03	; 3
     b80:	93 83       	std	Z+3, r25	; 0x03
     b82:	82 83       	std	Z+2, r24	; 0x02
     b84:	d7 01       	movw	r26, r14
     b86:	12 96       	adiw	r26, 0x02	; 2
     b88:	8c 91       	ld	r24, X
     b8a:	12 97       	sbiw	r26, 0x02	; 2
     b8c:	90 e0       	ldi	r25, 0x00	; 0
     b8e:	80 53       	subi	r24, 0x30	; 48
     b90:	98 4f       	sbci	r25, 0xF8	; 248
     b92:	95 83       	std	Z+5, r25	; 0x05
     b94:	84 83       	std	Z+4, r24	; 0x04
     b96:	13 96       	adiw	r26, 0x03	; 3
     b98:	8c 91       	ld	r24, X
     b9a:	13 97       	sbiw	r26, 0x03	; 3
     b9c:	86 83       	std	Z+6, r24	; 0x06
     b9e:	17 82       	std	Z+7, r1	; 0x07
     ba0:	14 96       	adiw	r26, 0x04	; 4
     ba2:	8c 91       	ld	r24, X
     ba4:	80 87       	std	Z+8, r24	; 0x08
     ba6:	11 86       	std	Z+9, r1	; 0x09
     ba8:	0e 94 74 29 	call	0x52e8	; 0x52e8 <sprintf>
     bac:	ed b7       	in	r30, 0x3d	; 61
     bae:	fe b7       	in	r31, 0x3e	; 62
     bb0:	3a 96       	adiw	r30, 0x0a	; 10
     bb2:	0f b6       	in	r0, 0x3f	; 63
     bb4:	f8 94       	cli
     bb6:	fe bf       	out	0x3e, r31	; 62
     bb8:	0f be       	out	0x3f, r0	; 63
     bba:	ed bf       	out	0x3d, r30	; 61
     bbc:	c8 01       	movw	r24, r16
     bbe:	0e 94 9b 11 	call	0x2336	; 0x2336 <sdl_write>
     bc2:	8f e3       	ldi	r24, 0x3F	; 63
     bc4:	9c e9       	ldi	r25, 0x9C	; 156
     bc6:	01 97       	sbiw	r24, 0x01	; 1
     bc8:	f1 f7       	brne	.-4      	; 0xbc6 <str_event+0x6ac>
     bca:	00 c0       	rjmp	.+0      	; 0xbcc <str_event+0x6b2>
     bcc:	00 00       	nop
     bce:	d7 01       	movw	r26, r14
     bd0:	8c 91       	ld	r24, X
     bd2:	81 30       	cpi	r24, 0x01	; 1
     bd4:	21 f4       	brne	.+8      	; 0xbde <str_event+0x6c4>
     bd6:	c8 01       	movw	r24, r16
     bd8:	65 e0       	ldi	r22, 0x05	; 5
     bda:	74 e0       	ldi	r23, 0x04	; 4
     bdc:	05 c0       	rjmp	.+10     	; 0xbe8 <str_event+0x6ce>
     bde:	83 30       	cpi	r24, 0x03	; 3
     be0:	31 f4       	brne	.+12     	; 0xbee <str_event+0x6d4>
     be2:	c8 01       	movw	r24, r16
     be4:	6f e1       	ldi	r22, 0x1F	; 31
     be6:	74 e0       	ldi	r23, 0x04	; 4
     be8:	0e 94 5f 29 	call	0x52be	; 0x52be <strcpy>
     bec:	21 c0       	rjmp	.+66     	; 0xc30 <str_event+0x716>
     bee:	82 30       	cpi	r24, 0x02	; 2
     bf0:	f9 f4       	brne	.+62     	; 0xc30 <str_event+0x716>
     bf2:	00 d0       	rcall	.+0      	; 0xbf4 <str_event+0x6da>
     bf4:	00 d0       	rcall	.+0      	; 0xbf6 <str_event+0x6dc>
     bf6:	00 d0       	rcall	.+0      	; 0xbf8 <str_event+0x6de>
     bf8:	ed b7       	in	r30, 0x3d	; 61
     bfa:	fe b7       	in	r31, 0x3e	; 62
     bfc:	31 96       	adiw	r30, 0x01	; 1
     bfe:	ad b7       	in	r26, 0x3d	; 61
     c00:	be b7       	in	r27, 0x3e	; 62
     c02:	12 96       	adiw	r26, 0x02	; 2
     c04:	1c 93       	st	X, r17
     c06:	0e 93       	st	-X, r16
     c08:	11 97       	sbiw	r26, 0x01	; 1
     c0a:	86 e3       	ldi	r24, 0x36	; 54
     c0c:	94 e0       	ldi	r25, 0x04	; 4
     c0e:	93 83       	std	Z+3, r25	; 0x03
     c10:	82 83       	std	Z+2, r24	; 0x02
     c12:	d7 01       	movw	r26, r14
     c14:	11 96       	adiw	r26, 0x01	; 1
     c16:	8c 91       	ld	r24, X
     c18:	84 83       	std	Z+4, r24	; 0x04
     c1a:	15 82       	std	Z+5, r1	; 0x05
     c1c:	0e 94 74 29 	call	0x52e8	; 0x52e8 <sprintf>
     c20:	ed b7       	in	r30, 0x3d	; 61
     c22:	fe b7       	in	r31, 0x3e	; 62
     c24:	36 96       	adiw	r30, 0x06	; 6
     c26:	0f b6       	in	r0, 0x3f	; 63
     c28:	f8 94       	cli
     c2a:	fe bf       	out	0x3e, r31	; 62
     c2c:	0f be       	out	0x3f, r0	; 63
     c2e:	ed bf       	out	0x3d, r30	; 61
     c30:	8e 01       	movw	r16, r28
     c32:	0f 5f       	subi	r16, 0xFF	; 255
     c34:	1f 4f       	sbci	r17, 0xFF	; 255
     c36:	c8 01       	movw	r24, r16
     c38:	0e 94 9b 11 	call	0x2336	; 0x2336 <sdl_write>
     c3c:	8f e3       	ldi	r24, 0x3F	; 63
     c3e:	9c e9       	ldi	r25, 0x9C	; 156
     c40:	01 97       	sbiw	r24, 0x01	; 1
     c42:	f1 f7       	brne	.-4      	; 0xc40 <str_event+0x726>
     c44:	00 c0       	rjmp	.+0      	; 0xc46 <str_event+0x72c>
     c46:	00 00       	nop
     c48:	ad b7       	in	r26, 0x3d	; 61
     c4a:	be b7       	in	r27, 0x3e	; 62
     c4c:	1a 97       	sbiw	r26, 0x0a	; 10
     c4e:	0f b6       	in	r0, 0x3f	; 63
     c50:	f8 94       	cli
     c52:	be bf       	out	0x3e, r27	; 62
     c54:	0f be       	out	0x3f, r0	; 63
     c56:	ad bf       	out	0x3d, r26	; 61
     c58:	ed b7       	in	r30, 0x3d	; 61
     c5a:	fe b7       	in	r31, 0x3e	; 62
     c5c:	31 96       	adiw	r30, 0x01	; 1
     c5e:	12 96       	adiw	r26, 0x02	; 2
     c60:	1c 93       	st	X, r17
     c62:	0e 93       	st	-X, r16
     c64:	11 97       	sbiw	r26, 0x01	; 1
     c66:	8f e4       	ldi	r24, 0x4F	; 79
     c68:	94 e0       	ldi	r25, 0x04	; 4
     c6a:	93 83       	std	Z+3, r25	; 0x03
     c6c:	82 83       	std	Z+2, r24	; 0x02
     c6e:	d7 01       	movw	r26, r14
     c70:	15 96       	adiw	r26, 0x05	; 5
     c72:	8c 91       	ld	r24, X
     c74:	15 97       	sbiw	r26, 0x05	; 5
     c76:	84 83       	std	Z+4, r24	; 0x04
     c78:	15 82       	std	Z+5, r1	; 0x05
     c7a:	16 96       	adiw	r26, 0x06	; 6
     c7c:	8c 91       	ld	r24, X
     c7e:	16 97       	sbiw	r26, 0x06	; 6
     c80:	86 83       	std	Z+6, r24	; 0x06
     c82:	17 82       	std	Z+7, r1	; 0x07
     c84:	17 96       	adiw	r26, 0x07	; 7
     c86:	8c 91       	ld	r24, X
     c88:	80 87       	std	Z+8, r24	; 0x08
     c8a:	11 86       	std	Z+9, r1	; 0x09
     c8c:	0e 94 74 29 	call	0x52e8	; 0x52e8 <sprintf>
     c90:	ed b7       	in	r30, 0x3d	; 61
     c92:	fe b7       	in	r31, 0x3e	; 62
     c94:	3a 96       	adiw	r30, 0x0a	; 10
     c96:	0f b6       	in	r0, 0x3f	; 63
     c98:	f8 94       	cli
     c9a:	fe bf       	out	0x3e, r31	; 62
     c9c:	0f be       	out	0x3f, r0	; 63
     c9e:	ed bf       	out	0x3d, r30	; 61
     ca0:	c8 01       	movw	r24, r16
     ca2:	0e 94 9b 11 	call	0x2336	; 0x2336 <sdl_write>
     ca6:	8f e3       	ldi	r24, 0x3F	; 63
     ca8:	9c e9       	ldi	r25, 0x9C	; 156
     caa:	01 97       	sbiw	r24, 0x01	; 1
     cac:	f1 f7       	brne	.-4      	; 0xcaa <str_event+0x790>
     cae:	00 c0       	rjmp	.+0      	; 0xcb0 <str_event+0x796>
     cb0:	00 00       	nop
     cb2:	d7 01       	movw	r26, r14
     cb4:	2c 91       	ld	r18, X
     cb6:	18 96       	adiw	r26, 0x08	; 8
     cb8:	8d 91       	ld	r24, X+
     cba:	9c 91       	ld	r25, X
     cbc:	19 97       	sbiw	r26, 0x09	; 9
     cbe:	21 30       	cpi	r18, 0x01	; 1
     cc0:	91 f4       	brne	.+36     	; 0xce6 <str_event+0x7cc>
     cc2:	ed b7       	in	r30, 0x3d	; 61
     cc4:	fe b7       	in	r31, 0x3e	; 62
     cc6:	38 97       	sbiw	r30, 0x08	; 8
     cc8:	0f b6       	in	r0, 0x3f	; 63
     cca:	f8 94       	cli
     ccc:	fe bf       	out	0x3e, r31	; 62
     cce:	0f be       	out	0x3f, r0	; 63
     cd0:	ed bf       	out	0x3d, r30	; 61
     cd2:	31 96       	adiw	r30, 0x01	; 1
     cd4:	ad b7       	in	r26, 0x3d	; 61
     cd6:	be b7       	in	r27, 0x3e	; 62
     cd8:	12 96       	adiw	r26, 0x02	; 2
     cda:	1c 93       	st	X, r17
     cdc:	0e 93       	st	-X, r16
     cde:	11 97       	sbiw	r26, 0x01	; 1
     ce0:	2c e6       	ldi	r18, 0x6C	; 108
     ce2:	34 e0       	ldi	r19, 0x04	; 4
     ce4:	16 c0       	rjmp	.+44     	; 0xd12 <str_event+0x7f8>
     ce6:	23 30       	cpi	r18, 0x03	; 3
     ce8:	c9 f4       	brne	.+50     	; 0xd1c <str_event+0x802>
     cea:	2d b7       	in	r18, 0x3d	; 61
     cec:	3e b7       	in	r19, 0x3e	; 62
     cee:	28 50       	subi	r18, 0x08	; 8
     cf0:	30 40       	sbci	r19, 0x00	; 0
     cf2:	0f b6       	in	r0, 0x3f	; 63
     cf4:	f8 94       	cli
     cf6:	3e bf       	out	0x3e, r19	; 62
     cf8:	0f be       	out	0x3f, r0	; 63
     cfa:	2d bf       	out	0x3d, r18	; 61
     cfc:	ed b7       	in	r30, 0x3d	; 61
     cfe:	fe b7       	in	r31, 0x3e	; 62
     d00:	31 96       	adiw	r30, 0x01	; 1
     d02:	ad b7       	in	r26, 0x3d	; 61
     d04:	be b7       	in	r27, 0x3e	; 62
     d06:	12 96       	adiw	r26, 0x02	; 2
     d08:	1c 93       	st	X, r17
     d0a:	0e 93       	st	-X, r16
     d0c:	11 97       	sbiw	r26, 0x01	; 1
     d0e:	2c e8       	ldi	r18, 0x8C	; 140
     d10:	34 e0       	ldi	r19, 0x04	; 4
     d12:	33 83       	std	Z+3, r19	; 0x03
     d14:	22 83       	std	Z+2, r18	; 0x02
     d16:	6c e3       	ldi	r22, 0x3C	; 60
     d18:	70 e0       	ldi	r23, 0x00	; 0
     d1a:	46 c0       	rjmp	.+140    	; 0xda8 <str_event+0x88e>
     d1c:	2d b7       	in	r18, 0x3d	; 61
     d1e:	3e b7       	in	r19, 0x3e	; 62
     d20:	28 50       	subi	r18, 0x08	; 8
     d22:	30 40       	sbci	r19, 0x00	; 0
     d24:	0f b6       	in	r0, 0x3f	; 63
     d26:	f8 94       	cli
     d28:	3e bf       	out	0x3e, r19	; 62
     d2a:	0f be       	out	0x3f, r0	; 63
     d2c:	2d bf       	out	0x3d, r18	; 61
     d2e:	ed b7       	in	r30, 0x3d	; 61
     d30:	fe b7       	in	r31, 0x3e	; 62
     d32:	31 96       	adiw	r30, 0x01	; 1
     d34:	ad b7       	in	r26, 0x3d	; 61
     d36:	be b7       	in	r27, 0x3e	; 62
     d38:	12 96       	adiw	r26, 0x02	; 2
     d3a:	1c 93       	st	X, r17
     d3c:	0e 93       	st	-X, r16
     d3e:	11 97       	sbiw	r26, 0x01	; 1
     d40:	29 ea       	ldi	r18, 0xA9	; 169
     d42:	34 e0       	ldi	r19, 0x04	; 4
     d44:	33 83       	std	Z+3, r19	; 0x03
     d46:	22 83       	std	Z+2, r18	; 0x02
     d48:	4c e3       	ldi	r20, 0x3C	; 60
     d4a:	c4 2e       	mov	r12, r20
     d4c:	d1 2c       	mov	r13, r1
     d4e:	b6 01       	movw	r22, r12
     d50:	0e 94 16 29 	call	0x522c	; 0x522c <__udivmodhi4>
     d54:	75 83       	std	Z+5, r23	; 0x05
     d56:	64 83       	std	Z+4, r22	; 0x04
     d58:	97 83       	std	Z+7, r25	; 0x07
     d5a:	86 83       	std	Z+6, r24	; 0x06
     d5c:	0e 94 74 29 	call	0x52e8	; 0x52e8 <sprintf>
     d60:	ed b7       	in	r30, 0x3d	; 61
     d62:	fe b7       	in	r31, 0x3e	; 62
     d64:	38 96       	adiw	r30, 0x08	; 8
     d66:	0f b6       	in	r0, 0x3f	; 63
     d68:	f8 94       	cli
     d6a:	fe bf       	out	0x3e, r31	; 62
     d6c:	0f be       	out	0x3f, r0	; 63
     d6e:	ed bf       	out	0x3d, r30	; 61
     d70:	c8 01       	movw	r24, r16
     d72:	0e 94 9b 11 	call	0x2336	; 0x2336 <sdl_write>
     d76:	d7 01       	movw	r26, r14
     d78:	1a 96       	adiw	r26, 0x0a	; 10
     d7a:	8d 91       	ld	r24, X+
     d7c:	9c 91       	ld	r25, X
     d7e:	1b 97       	sbiw	r26, 0x0b	; 11
     d80:	ed b7       	in	r30, 0x3d	; 61
     d82:	fe b7       	in	r31, 0x3e	; 62
     d84:	38 97       	sbiw	r30, 0x08	; 8
     d86:	0f b6       	in	r0, 0x3f	; 63
     d88:	f8 94       	cli
     d8a:	fe bf       	out	0x3e, r31	; 62
     d8c:	0f be       	out	0x3f, r0	; 63
     d8e:	ed bf       	out	0x3d, r30	; 61
     d90:	31 96       	adiw	r30, 0x01	; 1
     d92:	ad b7       	in	r26, 0x3d	; 61
     d94:	be b7       	in	r27, 0x3e	; 62
     d96:	12 96       	adiw	r26, 0x02	; 2
     d98:	1c 93       	st	X, r17
     d9a:	0e 93       	st	-X, r16
     d9c:	11 97       	sbiw	r26, 0x01	; 1
     d9e:	29 ec       	ldi	r18, 0xC9	; 201
     da0:	34 e0       	ldi	r19, 0x04	; 4
     da2:	33 83       	std	Z+3, r19	; 0x03
     da4:	22 83       	std	Z+2, r18	; 0x02
     da6:	b6 01       	movw	r22, r12
     da8:	0e 94 16 29 	call	0x522c	; 0x522c <__udivmodhi4>
     dac:	75 83       	std	Z+5, r23	; 0x05
     dae:	64 83       	std	Z+4, r22	; 0x04
     db0:	97 83       	std	Z+7, r25	; 0x07
     db2:	86 83       	std	Z+6, r24	; 0x06
     db4:	0e 94 74 29 	call	0x52e8	; 0x52e8 <sprintf>
     db8:	ed b7       	in	r30, 0x3d	; 61
     dba:	fe b7       	in	r31, 0x3e	; 62
     dbc:	38 96       	adiw	r30, 0x08	; 8
     dbe:	0f b6       	in	r0, 0x3f	; 63
     dc0:	f8 94       	cli
     dc2:	fe bf       	out	0x3e, r31	; 62
     dc4:	0f be       	out	0x3f, r0	; 63
     dc6:	ed bf       	out	0x3d, r30	; 61
     dc8:	c8 01       	movw	r24, r16
     dca:	0e 94 9b 11 	call	0x2336	; 0x2336 <sdl_write>
     dce:	d7 01       	movw	r26, r14
     dd0:	53 96       	adiw	r26, 0x13	; 19
     dd2:	8c 91       	ld	r24, X
     dd4:	53 97       	sbiw	r26, 0x13	; 19
     dd6:	88 23       	and	r24, r24
     dd8:	09 f4       	brne	.+2      	; 0xddc <str_event+0x8c2>
     dda:	59 c0       	rjmp	.+178    	; 0xe8e <str_event+0x974>
     ddc:	1c 96       	adiw	r26, 0x0c	; 12
     dde:	8d 91       	ld	r24, X+
     de0:	9c 91       	ld	r25, X
     de2:	1d 97       	sbiw	r26, 0x0d	; 13
     de4:	00 97       	sbiw	r24, 0x00	; 0
     de6:	59 f1       	breq	.+86     	; 0xe3e <str_event+0x924>
     de8:	ed b7       	in	r30, 0x3d	; 61
     dea:	fe b7       	in	r31, 0x3e	; 62
     dec:	38 97       	sbiw	r30, 0x08	; 8
     dee:	0f b6       	in	r0, 0x3f	; 63
     df0:	f8 94       	cli
     df2:	fe bf       	out	0x3e, r31	; 62
     df4:	0f be       	out	0x3f, r0	; 63
     df6:	ed bf       	out	0x3d, r30	; 61
     df8:	31 96       	adiw	r30, 0x01	; 1
     dfa:	8e 01       	movw	r16, r28
     dfc:	0f 5f       	subi	r16, 0xFF	; 255
     dfe:	1f 4f       	sbci	r17, 0xFF	; 255
     e00:	ad b7       	in	r26, 0x3d	; 61
     e02:	be b7       	in	r27, 0x3e	; 62
     e04:	12 96       	adiw	r26, 0x02	; 2
     e06:	1c 93       	st	X, r17
     e08:	0e 93       	st	-X, r16
     e0a:	11 97       	sbiw	r26, 0x01	; 1
     e0c:	28 ed       	ldi	r18, 0xD8	; 216
     e0e:	35 e0       	ldi	r19, 0x05	; 5
     e10:	33 83       	std	Z+3, r19	; 0x03
     e12:	22 83       	std	Z+2, r18	; 0x02
     e14:	6c e3       	ldi	r22, 0x3C	; 60
     e16:	70 e0       	ldi	r23, 0x00	; 0
     e18:	0e 94 16 29 	call	0x522c	; 0x522c <__udivmodhi4>
     e1c:	75 83       	std	Z+5, r23	; 0x05
     e1e:	64 83       	std	Z+4, r22	; 0x04
     e20:	97 83       	std	Z+7, r25	; 0x07
     e22:	86 83       	std	Z+6, r24	; 0x06
     e24:	0e 94 74 29 	call	0x52e8	; 0x52e8 <sprintf>
     e28:	ed b7       	in	r30, 0x3d	; 61
     e2a:	fe b7       	in	r31, 0x3e	; 62
     e2c:	38 96       	adiw	r30, 0x08	; 8
     e2e:	0f b6       	in	r0, 0x3f	; 63
     e30:	f8 94       	cli
     e32:	fe bf       	out	0x3e, r31	; 62
     e34:	0f be       	out	0x3f, r0	; 63
     e36:	ed bf       	out	0x3d, r30	; 61
     e38:	c8 01       	movw	r24, r16
     e3a:	0e 94 9b 11 	call	0x2336	; 0x2336 <sdl_write>
     e3e:	d7 01       	movw	r26, r14
     e40:	53 96       	adiw	r26, 0x13	; 19
     e42:	8c 91       	ld	r24, X
     e44:	90 e0       	ldi	r25, 0x00	; 0
     e46:	0e 94 f8 15 	call	0x2bf0	; 0x2bf0 <str_getErrorString>
     e4a:	00 d0       	rcall	.+0      	; 0xe4c <str_event+0x932>
     e4c:	00 d0       	rcall	.+0      	; 0xe4e <str_event+0x934>
     e4e:	00 d0       	rcall	.+0      	; 0xe50 <str_event+0x936>
     e50:	ed b7       	in	r30, 0x3d	; 61
     e52:	fe b7       	in	r31, 0x3e	; 62
     e54:	31 96       	adiw	r30, 0x01	; 1
     e56:	8e 01       	movw	r16, r28
     e58:	0f 5f       	subi	r16, 0xFF	; 255
     e5a:	1f 4f       	sbci	r17, 0xFF	; 255
     e5c:	ad b7       	in	r26, 0x3d	; 61
     e5e:	be b7       	in	r27, 0x3e	; 62
     e60:	12 96       	adiw	r26, 0x02	; 2
     e62:	1c 93       	st	X, r17
     e64:	0e 93       	st	-X, r16
     e66:	11 97       	sbiw	r26, 0x01	; 1
     e68:	2b e0       	ldi	r18, 0x0B	; 11
     e6a:	35 e0       	ldi	r19, 0x05	; 5
     e6c:	33 83       	std	Z+3, r19	; 0x03
     e6e:	22 83       	std	Z+2, r18	; 0x02
     e70:	95 83       	std	Z+5, r25	; 0x05
     e72:	84 83       	std	Z+4, r24	; 0x04
     e74:	0e 94 74 29 	call	0x52e8	; 0x52e8 <sprintf>
     e78:	ed b7       	in	r30, 0x3d	; 61
     e7a:	fe b7       	in	r31, 0x3e	; 62
     e7c:	36 96       	adiw	r30, 0x06	; 6
     e7e:	0f b6       	in	r0, 0x3f	; 63
     e80:	f8 94       	cli
     e82:	fe bf       	out	0x3e, r31	; 62
     e84:	0f be       	out	0x3f, r0	; 63
     e86:	ed bf       	out	0x3d, r30	; 61
     e88:	c8 01       	movw	r24, r16
     e8a:	0e 94 9b 11 	call	0x2336	; 0x2336 <sdl_write>
     e8e:	2d b7       	in	r18, 0x3d	; 61
     e90:	3e b7       	in	r19, 0x3e	; 62
     e92:	2a 50       	subi	r18, 0x0A	; 10
     e94:	30 40       	sbci	r19, 0x00	; 0
     e96:	0f b6       	in	r0, 0x3f	; 63
     e98:	f8 94       	cli
     e9a:	3e bf       	out	0x3e, r19	; 62
     e9c:	0f be       	out	0x3f, r0	; 63
     e9e:	2d bf       	out	0x3d, r18	; 61
     ea0:	ed b7       	in	r30, 0x3d	; 61
     ea2:	fe b7       	in	r31, 0x3e	; 62
     ea4:	31 96       	adiw	r30, 0x01	; 1
     ea6:	8e 01       	movw	r16, r28
     ea8:	0f 5f       	subi	r16, 0xFF	; 255
     eaa:	1f 4f       	sbci	r17, 0xFF	; 255
     eac:	ad b7       	in	r26, 0x3d	; 61
     eae:	be b7       	in	r27, 0x3e	; 62
     eb0:	12 96       	adiw	r26, 0x02	; 2
     eb2:	1c 93       	st	X, r17
     eb4:	0e 93       	st	-X, r16
     eb6:	11 97       	sbiw	r26, 0x01	; 1
     eb8:	89 e1       	ldi	r24, 0x19	; 25
     eba:	95 e0       	ldi	r25, 0x05	; 5
     ebc:	93 83       	std	Z+3, r25	; 0x03
     ebe:	82 83       	std	Z+2, r24	; 0x02
     ec0:	d7 01       	movw	r26, r14
     ec2:	50 96       	adiw	r26, 0x10	; 16
     ec4:	8c 91       	ld	r24, X
     ec6:	50 97       	sbiw	r26, 0x10	; 16
     ec8:	84 83       	std	Z+4, r24	; 0x04
     eca:	15 82       	std	Z+5, r1	; 0x05
     ecc:	51 96       	adiw	r26, 0x11	; 17
     ece:	8c 91       	ld	r24, X
     ed0:	51 97       	sbiw	r26, 0x11	; 17
     ed2:	86 83       	std	Z+6, r24	; 0x06
     ed4:	17 82       	std	Z+7, r1	; 0x07
     ed6:	52 96       	adiw	r26, 0x12	; 18
     ed8:	8c 91       	ld	r24, X
     eda:	80 87       	std	Z+8, r24	; 0x08
     edc:	11 86       	std	Z+9, r1	; 0x09
     ede:	0e 94 74 29 	call	0x52e8	; 0x52e8 <sprintf>
     ee2:	ed b7       	in	r30, 0x3d	; 61
     ee4:	fe b7       	in	r31, 0x3e	; 62
     ee6:	3a 96       	adiw	r30, 0x0a	; 10
     ee8:	0f b6       	in	r0, 0x3f	; 63
     eea:	f8 94       	cli
     eec:	fe bf       	out	0x3e, r31	; 62
     eee:	0f be       	out	0x3f, r0	; 63
     ef0:	ed bf       	out	0x3d, r30	; 61
     ef2:	c8 01       	movw	r24, r16
     ef4:	0e 94 9b 11 	call	0x2336	; 0x2336 <sdl_write>
     ef8:	8f e3       	ldi	r24, 0x3F	; 63
     efa:	9c e9       	ldi	r25, 0x9C	; 156
     efc:	01 97       	sbiw	r24, 0x01	; 1
     efe:	f1 f7       	brne	.-4      	; 0xefc <str_event+0x9e2>
     f00:	00 c0       	rjmp	.+0      	; 0xf02 <str_event+0x9e8>
     f02:	00 00       	nop
     f04:	d7 01       	movw	r26, r14
     f06:	1e 96       	adiw	r26, 0x0e	; 14
     f08:	8d 91       	ld	r24, X+
     f0a:	9c 91       	ld	r25, X
     f0c:	1f 97       	sbiw	r26, 0x0f	; 15
     f0e:	ed b7       	in	r30, 0x3d	; 61
     f10:	fe b7       	in	r31, 0x3e	; 62
     f12:	38 97       	sbiw	r30, 0x08	; 8
     f14:	0f b6       	in	r0, 0x3f	; 63
     f16:	f8 94       	cli
     f18:	fe bf       	out	0x3e, r31	; 62
     f1a:	0f be       	out	0x3f, r0	; 63
     f1c:	ed bf       	out	0x3d, r30	; 61
     f1e:	31 96       	adiw	r30, 0x01	; 1
     f20:	ad b7       	in	r26, 0x3d	; 61
     f22:	be b7       	in	r27, 0x3e	; 62
     f24:	12 96       	adiw	r26, 0x02	; 2
     f26:	1c 93       	st	X, r17
     f28:	0e 93       	st	-X, r16
     f2a:	11 97       	sbiw	r26, 0x01	; 1
     f2c:	24 e3       	ldi	r18, 0x34	; 52
     f2e:	35 e0       	ldi	r19, 0x05	; 5
     f30:	33 83       	std	Z+3, r19	; 0x03
     f32:	22 83       	std	Z+2, r18	; 0x02
     f34:	6c e3       	ldi	r22, 0x3C	; 60
     f36:	70 e0       	ldi	r23, 0x00	; 0
     f38:	0e 94 16 29 	call	0x522c	; 0x522c <__udivmodhi4>
     f3c:	75 83       	std	Z+5, r23	; 0x05
     f3e:	64 83       	std	Z+4, r22	; 0x04
     f40:	97 83       	std	Z+7, r25	; 0x07
     f42:	86 83       	std	Z+6, r24	; 0x06
     f44:	0e 94 74 29 	call	0x52e8	; 0x52e8 <sprintf>
     f48:	ed b7       	in	r30, 0x3d	; 61
     f4a:	fe b7       	in	r31, 0x3e	; 62
     f4c:	38 96       	adiw	r30, 0x08	; 8
     f4e:	0f b6       	in	r0, 0x3f	; 63
     f50:	f8 94       	cli
     f52:	fe bf       	out	0x3e, r31	; 62
     f54:	0f be       	out	0x3f, r0	; 63
     f56:	ed bf       	out	0x3d, r30	; 61
     f58:	c8 01       	movw	r24, r16
     f5a:	0e 94 9b 11 	call	0x2336	; 0x2336 <sdl_write>
     f5e:	8f e3       	ldi	r24, 0x3F	; 63
     f60:	9c e9       	ldi	r25, 0x9C	; 156
     f62:	01 97       	sbiw	r24, 0x01	; 1
     f64:	f1 f7       	brne	.-4      	; 0xf62 <str_event+0xa48>
     f66:	00 c0       	rjmp	.+0      	; 0xf68 <str_event+0xa4e>
     f68:	00 00       	nop
     f6a:	00 d0       	rcall	.+0      	; 0xf6c <str_event+0xa52>
     f6c:	00 d0       	rcall	.+0      	; 0xf6e <str_event+0xa54>
     f6e:	00 d0       	rcall	.+0      	; 0xf70 <str_event+0xa56>
     f70:	ed b7       	in	r30, 0x3d	; 61
     f72:	fe b7       	in	r31, 0x3e	; 62
     f74:	31 96       	adiw	r30, 0x01	; 1
     f76:	ad b7       	in	r26, 0x3d	; 61
     f78:	be b7       	in	r27, 0x3e	; 62
     f7a:	12 96       	adiw	r26, 0x02	; 2
     f7c:	1c 93       	st	X, r17
     f7e:	0e 93       	st	-X, r16
     f80:	11 97       	sbiw	r26, 0x01	; 1
     f82:	88 ef       	ldi	r24, 0xF8	; 248
     f84:	95 e0       	ldi	r25, 0x05	; 5
     f86:	93 83       	std	Z+3, r25	; 0x03
     f88:	82 83       	std	Z+2, r24	; 0x02
     f8a:	80 91 52 08 	lds	r24, 0x0852
     f8e:	90 91 53 08 	lds	r25, 0x0853
     f92:	95 83       	std	Z+5, r25	; 0x05
     f94:	84 83       	std	Z+4, r24	; 0x04
     f96:	0e 94 74 29 	call	0x52e8	; 0x52e8 <sprintf>
     f9a:	ed b7       	in	r30, 0x3d	; 61
     f9c:	fe b7       	in	r31, 0x3e	; 62
     f9e:	36 96       	adiw	r30, 0x06	; 6
     fa0:	0f b6       	in	r0, 0x3f	; 63
     fa2:	f8 94       	cli
     fa4:	fe bf       	out	0x3e, r31	; 62
     fa6:	0f be       	out	0x3f, r0	; 63
     fa8:	ed bf       	out	0x3d, r30	; 61
     faa:	c8 01       	movw	r24, r16
     fac:	0e 94 9b 11 	call	0x2336	; 0x2336 <sdl_write>
     fb0:	8f e3       	ldi	r24, 0x3F	; 63
     fb2:	9c e9       	ldi	r25, 0x9C	; 156
     fb4:	01 97       	sbiw	r24, 0x01	; 1
     fb6:	f1 f7       	brne	.-4      	; 0xfb4 <str_event+0xa9a>
     fb8:	00 c0       	rjmp	.+0      	; 0xfba <str_event+0xaa0>
     fba:	00 00       	nop
     fbc:	d7 01       	movw	r26, r14
     fbe:	53 96       	adiw	r26, 0x13	; 19
     fc0:	8c 91       	ld	r24, X
     fc2:	53 97       	sbiw	r26, 0x13	; 19
     fc4:	88 23       	and	r24, r24
     fc6:	19 f4       	brne	.+6      	; 0xfce <str_event+0xab4>
     fc8:	83 e7       	ldi	r24, 0x73	; 115
     fca:	95 e0       	ldi	r25, 0x05	; 5
     fcc:	02 c0       	rjmp	.+4      	; 0xfd2 <str_event+0xab8>
     fce:	8d e7       	ldi	r24, 0x7D	; 125
     fd0:	95 e0       	ldi	r25, 0x05	; 5
     fd2:	0e 94 9b 11 	call	0x2336	; 0x2336 <sdl_write>
     fd6:	ef e3       	ldi	r30, 0x3F	; 63
     fd8:	fc e9       	ldi	r31, 0x9C	; 156
     fda:	31 97       	sbiw	r30, 0x01	; 1
     fdc:	f1 f7       	brne	.-4      	; 0xfda <str_event+0xac0>
     fde:	00 c0       	rjmp	.+0      	; 0xfe0 <str_event+0xac6>
     fe0:	00 00       	nop
     fe2:	0e 94 c1 11 	call	0x2382	; 0x2382 <sdl_close>
     fe6:	8f e3       	ldi	r24, 0x3F	; 63
     fe8:	9c e9       	ldi	r25, 0x9C	; 156
     fea:	01 97       	sbiw	r24, 0x01	; 1
     fec:	f1 f7       	brne	.-4      	; 0xfea <str_event+0xad0>
     fee:	00 c0       	rjmp	.+0      	; 0xff0 <str_event+0xad6>
     ff0:	00 00       	nop
     ff2:	c0 5c       	subi	r28, 0xC0	; 192
     ff4:	df 4f       	sbci	r29, 0xFF	; 255
     ff6:	0f b6       	in	r0, 0x3f	; 63
     ff8:	f8 94       	cli
     ffa:	de bf       	out	0x3e, r29	; 62
     ffc:	0f be       	out	0x3f, r0	; 63
     ffe:	cd bf       	out	0x3d, r28	; 61
    1000:	df 91       	pop	r29
    1002:	cf 91       	pop	r28
    1004:	1f 91       	pop	r17
    1006:	0f 91       	pop	r16
    1008:	ff 90       	pop	r15
    100a:	ef 90       	pop	r14
    100c:	df 90       	pop	r13
    100e:	cf 90       	pop	r12
    1010:	08 95       	ret

00001012 <str_step_event>:
    1012:	81 e0       	ldi	r24, 0x01	; 1
    1014:	90 e0       	ldi	r25, 0x00	; 0
    1016:	90 93 d7 07 	sts	0x07D7, r25
    101a:	80 93 d6 07 	sts	0x07D6, r24
    101e:	08 95       	ret

00001020 <timer_alloc>:
    1020:	e2 ec       	ldi	r30, 0xC2	; 194
    1022:	f8 e0       	ldi	r31, 0x08	; 8
    1024:	80 e0       	ldi	r24, 0x00	; 0
    1026:	90 e0       	ldi	r25, 0x00	; 0
    1028:	20 81       	ld	r18, Z
    102a:	27 fd       	sbrc	r18, 7
    102c:	0c c0       	rjmp	.+24     	; 0x1046 <timer_alloc+0x26>
    102e:	fc 01       	movw	r30, r24
    1030:	ee 0f       	add	r30, r30
    1032:	ff 1f       	adc	r31, r31
    1034:	ee 0f       	add	r30, r30
    1036:	ff 1f       	adc	r31, r31
    1038:	e8 0f       	add	r30, r24
    103a:	f9 1f       	adc	r31, r25
    103c:	ee 53       	subi	r30, 0x3E	; 62
    103e:	f7 4f       	sbci	r31, 0xF7	; 247
    1040:	20 e8       	ldi	r18, 0x80	; 128
    1042:	20 83       	st	Z, r18
    1044:	08 95       	ret
    1046:	01 96       	adiw	r24, 0x01	; 1
    1048:	35 96       	adiw	r30, 0x05	; 5
    104a:	80 31       	cpi	r24, 0x10	; 16
    104c:	91 05       	cpc	r25, r1
    104e:	61 f7       	brne	.-40     	; 0x1028 <timer_alloc+0x8>
    1050:	8f ef       	ldi	r24, 0xFF	; 255
    1052:	9f ef       	ldi	r25, 0xFF	; 255
    1054:	08 95       	ret

00001056 <timer_free>:
    1056:	80 31       	cpi	r24, 0x10	; 16
    1058:	91 05       	cpc	r25, r1
    105a:	68 f4       	brcc	.+26     	; 0x1076 <timer_free+0x20>
    105c:	fc 01       	movw	r30, r24
    105e:	ee 0f       	add	r30, r30
    1060:	ff 1f       	adc	r31, r31
    1062:	ee 0f       	add	r30, r30
    1064:	ff 1f       	adc	r31, r31
    1066:	e8 0f       	add	r30, r24
    1068:	f9 1f       	adc	r31, r25
    106a:	ee 53       	subi	r30, 0x3E	; 62
    106c:	f7 4f       	sbci	r31, 0xF7	; 247
    106e:	10 82       	st	Z, r1
    1070:	80 e0       	ldi	r24, 0x00	; 0
    1072:	90 e0       	ldi	r25, 0x00	; 0
    1074:	08 95       	ret
    1076:	8f ef       	ldi	r24, 0xFF	; 255
    1078:	9f ef       	ldi	r25, 0xFF	; 255
    107a:	08 95       	ret

0000107c <timer_set>:
    107c:	80 31       	cpi	r24, 0x10	; 16
    107e:	91 05       	cpc	r25, r1
    1080:	a8 f4       	brcc	.+42     	; 0x10ac <timer_set+0x30>
    1082:	fc 01       	movw	r30, r24
    1084:	ee 0f       	add	r30, r30
    1086:	ff 1f       	adc	r31, r31
    1088:	ee 0f       	add	r30, r30
    108a:	ff 1f       	adc	r31, r31
    108c:	e8 0f       	add	r30, r24
    108e:	f9 1f       	adc	r31, r25
    1090:	ee 53       	subi	r30, 0x3E	; 62
    1092:	f7 4f       	sbci	r31, 0xF7	; 247
    1094:	80 81       	ld	r24, Z
    1096:	87 ff       	sbrs	r24, 7
    1098:	0c c0       	rjmp	.+24     	; 0x10b2 <timer_set+0x36>
    109a:	41 83       	std	Z+1, r20	; 0x01
    109c:	52 83       	std	Z+2, r21	; 0x02
    109e:	63 83       	std	Z+3, r22	; 0x03
    10a0:	74 83       	std	Z+4, r23	; 0x04
    10a2:	81 e8       	ldi	r24, 0x81	; 129
    10a4:	80 83       	st	Z, r24
    10a6:	80 e0       	ldi	r24, 0x00	; 0
    10a8:	90 e0       	ldi	r25, 0x00	; 0
    10aa:	08 95       	ret
    10ac:	8f ef       	ldi	r24, 0xFF	; 255
    10ae:	9f ef       	ldi	r25, 0xFF	; 255
    10b0:	08 95       	ret
    10b2:	8f ef       	ldi	r24, 0xFF	; 255
    10b4:	9f ef       	ldi	r25, 0xFF	; 255
    10b6:	08 95       	ret

000010b8 <timer_get>:
    10b8:	80 31       	cpi	r24, 0x10	; 16
    10ba:	91 05       	cpc	r25, r1
    10bc:	d0 f4       	brcc	.+52     	; 0x10f2 <timer_get+0x3a>
    10be:	fc 01       	movw	r30, r24
    10c0:	ee 0f       	add	r30, r30
    10c2:	ff 1f       	adc	r31, r31
    10c4:	ee 0f       	add	r30, r30
    10c6:	ff 1f       	adc	r31, r31
    10c8:	e8 0f       	add	r30, r24
    10ca:	f9 1f       	adc	r31, r25
    10cc:	ee 53       	subi	r30, 0x3E	; 62
    10ce:	f7 4f       	sbci	r31, 0xF7	; 247
    10d0:	80 81       	ld	r24, Z
    10d2:	81 38       	cpi	r24, 0x81	; 129
    10d4:	89 f4       	brne	.+34     	; 0x10f8 <timer_get+0x40>
    10d6:	81 e0       	ldi	r24, 0x01	; 1
    10d8:	90 e0       	ldi	r25, 0x00	; 0
    10da:	41 81       	ldd	r20, Z+1	; 0x01
    10dc:	52 81       	ldd	r21, Z+2	; 0x02
    10de:	63 81       	ldd	r22, Z+3	; 0x03
    10e0:	74 81       	ldd	r23, Z+4	; 0x04
    10e2:	41 15       	cp	r20, r1
    10e4:	51 05       	cpc	r21, r1
    10e6:	61 05       	cpc	r22, r1
    10e8:	71 05       	cpc	r23, r1
    10ea:	41 f4       	brne	.+16     	; 0x10fc <timer_get+0x44>
    10ec:	80 e0       	ldi	r24, 0x00	; 0
    10ee:	90 e0       	ldi	r25, 0x00	; 0
    10f0:	08 95       	ret
    10f2:	8f ef       	ldi	r24, 0xFF	; 255
    10f4:	9f ef       	ldi	r25, 0xFF	; 255
    10f6:	08 95       	ret
    10f8:	8f ef       	ldi	r24, 0xFF	; 255
    10fa:	9f ef       	ldi	r25, 0xFF	; 255
    10fc:	08 95       	ret

000010fe <timer_clear>:
    10fe:	80 31       	cpi	r24, 0x10	; 16
    1100:	91 05       	cpc	r25, r1
    1102:	70 f4       	brcc	.+28     	; 0x1120 <__stack+0x21>
    1104:	fc 01       	movw	r30, r24
    1106:	ee 0f       	add	r30, r30
    1108:	ff 1f       	adc	r31, r31
    110a:	ee 0f       	add	r30, r30
    110c:	ff 1f       	adc	r31, r31
    110e:	e8 0f       	add	r30, r24
    1110:	f9 1f       	adc	r31, r25
    1112:	ee 53       	subi	r30, 0x3E	; 62
    1114:	f7 4f       	sbci	r31, 0xF7	; 247
    1116:	80 81       	ld	r24, Z
    1118:	87 ff       	sbrs	r24, 7
    111a:	05 c0       	rjmp	.+10     	; 0x1126 <__stack+0x27>
    111c:	80 e8       	ldi	r24, 0x80	; 128
    111e:	80 83       	st	Z, r24
    1120:	8f ef       	ldi	r24, 0xFF	; 255
    1122:	9f ef       	ldi	r25, 0xFF	; 255
    1124:	08 95       	ret
    1126:	80 e0       	ldi	r24, 0x00	; 0
    1128:	90 e0       	ldi	r25, 0x00	; 0
    112a:	08 95       	ret

0000112c <timer_init>:
    112c:	e2 ec       	ldi	r30, 0xC2	; 194
    112e:	f8 e0       	ldi	r31, 0x08	; 8
    1130:	10 82       	st	Z, r1
    1132:	11 82       	std	Z+1, r1	; 0x01
    1134:	12 82       	std	Z+2, r1	; 0x02
    1136:	13 82       	std	Z+3, r1	; 0x03
    1138:	14 82       	std	Z+4, r1	; 0x04
    113a:	35 96       	adiw	r30, 0x05	; 5
    113c:	89 e0       	ldi	r24, 0x09	; 9
    113e:	e2 31       	cpi	r30, 0x12	; 18
    1140:	f8 07       	cpc	r31, r24
    1142:	b1 f7       	brne	.-20     	; 0x1130 <timer_init+0x4>
    1144:	8e e3       	ldi	r24, 0x3E	; 62
    1146:	81 bf       	out	0x31, r24	; 49
    1148:	12 be       	out	0x32, r1	; 50
    114a:	8e e0       	ldi	r24, 0x0E	; 14
    114c:	83 bf       	out	0x33, r24	; 51
    114e:	82 e0       	ldi	r24, 0x02	; 2
    1150:	87 bf       	out	0x37, r24	; 55
    1152:	08 95       	ret

00001154 <__vector_15>:
    1154:	1f 92       	push	r1
    1156:	0f 92       	push	r0
    1158:	0f b6       	in	r0, 0x3f	; 63
    115a:	0f 92       	push	r0
    115c:	0b b6       	in	r0, 0x3b	; 59
    115e:	0f 92       	push	r0
    1160:	11 24       	eor	r1, r1
    1162:	8f 93       	push	r24
    1164:	9f 93       	push	r25
    1166:	af 93       	push	r26
    1168:	bf 93       	push	r27
    116a:	ef 93       	push	r30
    116c:	ff 93       	push	r31
    116e:	80 91 be 08 	lds	r24, 0x08BE
    1172:	90 91 bf 08 	lds	r25, 0x08BF
    1176:	a0 91 c0 08 	lds	r26, 0x08C0
    117a:	b0 91 c1 08 	lds	r27, 0x08C1
    117e:	01 96       	adiw	r24, 0x01	; 1
    1180:	a1 1d       	adc	r26, r1
    1182:	b1 1d       	adc	r27, r1
    1184:	80 93 be 08 	sts	0x08BE, r24
    1188:	90 93 bf 08 	sts	0x08BF, r25
    118c:	a0 93 c0 08 	sts	0x08C0, r26
    1190:	b0 93 c1 08 	sts	0x08C1, r27
    1194:	e3 ec       	ldi	r30, 0xC3	; 195
    1196:	f8 e0       	ldi	r31, 0x08	; 8
    1198:	80 81       	ld	r24, Z
    119a:	91 81       	ldd	r25, Z+1	; 0x01
    119c:	a2 81       	ldd	r26, Z+2	; 0x02
    119e:	b3 81       	ldd	r27, Z+3	; 0x03
    11a0:	00 97       	sbiw	r24, 0x00	; 0
    11a2:	a1 05       	cpc	r26, r1
    11a4:	b1 05       	cpc	r27, r1
    11a6:	39 f0       	breq	.+14     	; 0x11b6 <__vector_15+0x62>
    11a8:	01 97       	sbiw	r24, 0x01	; 1
    11aa:	a1 09       	sbc	r26, r1
    11ac:	b1 09       	sbc	r27, r1
    11ae:	80 83       	st	Z, r24
    11b0:	91 83       	std	Z+1, r25	; 0x01
    11b2:	a2 83       	std	Z+2, r26	; 0x02
    11b4:	b3 83       	std	Z+3, r27	; 0x03
    11b6:	35 96       	adiw	r30, 0x05	; 5
    11b8:	89 e0       	ldi	r24, 0x09	; 9
    11ba:	e3 31       	cpi	r30, 0x13	; 19
    11bc:	f8 07       	cpc	r31, r24
    11be:	61 f7       	brne	.-40     	; 0x1198 <__vector_15+0x44>
    11c0:	ff 91       	pop	r31
    11c2:	ef 91       	pop	r30
    11c4:	bf 91       	pop	r27
    11c6:	af 91       	pop	r26
    11c8:	9f 91       	pop	r25
    11ca:	8f 91       	pop	r24
    11cc:	0f 90       	pop	r0
    11ce:	0b be       	out	0x3b, r0	; 59
    11d0:	0f 90       	pop	r0
    11d2:	0f be       	out	0x3f, r0	; 63
    11d4:	0f 90       	pop	r0
    11d6:	1f 90       	pop	r1
    11d8:	18 95       	reti

000011da <uart_init>:
    11da:	0f 93       	push	r16
    11dc:	1f 93       	push	r17
    11de:	9b 01       	movw	r18, r22
    11e0:	ac 01       	movw	r20, r24
    11e2:	82 e0       	ldi	r24, 0x02	; 2
    11e4:	8b b9       	out	0x0b, r24	; 11
    11e6:	88 ed       	ldi	r24, 0xD8	; 216
    11e8:	8a b9       	out	0x0a, r24	; 10
    11ea:	86 e0       	ldi	r24, 0x06	; 6
    11ec:	80 93 95 00 	sts	0x0095, r24
    11f0:	60 e8       	ldi	r22, 0x80	; 128
    11f2:	74 e8       	ldi	r23, 0x84	; 132
    11f4:	8e e1       	ldi	r24, 0x1E	; 30
    11f6:	90 e0       	ldi	r25, 0x00	; 0
    11f8:	0e 94 3d 29 	call	0x527a	; 0x527a <__udivmodsi4>
    11fc:	89 01       	movw	r16, r18
    11fe:	9a 01       	movw	r18, r20
    1200:	d9 01       	movw	r26, r18
    1202:	c8 01       	movw	r24, r16
    1204:	01 97       	sbiw	r24, 0x01	; 1
    1206:	a1 09       	sbc	r26, r1
    1208:	b1 09       	sbc	r27, r1
    120a:	89 2f       	mov	r24, r25
    120c:	9a 2f       	mov	r25, r26
    120e:	ab 2f       	mov	r26, r27
    1210:	bb 27       	eor	r27, r27
    1212:	80 93 90 00 	sts	0x0090, r24
    1216:	01 50       	subi	r16, 0x01	; 1
    1218:	09 b9       	out	0x09, r16	; 9
    121a:	80 e0       	ldi	r24, 0x00	; 0
    121c:	90 e0       	ldi	r25, 0x00	; 0
    121e:	1f 91       	pop	r17
    1220:	0f 91       	pop	r16
    1222:	08 95       	ret

00001224 <__vector_18>:
    1224:	1f 92       	push	r1
    1226:	0f 92       	push	r0
    1228:	0f b6       	in	r0, 0x3f	; 63
    122a:	0f 92       	push	r0
    122c:	0b b6       	in	r0, 0x3b	; 59
    122e:	0f 92       	push	r0
    1230:	11 24       	eor	r1, r1
    1232:	2f 93       	push	r18
    1234:	8f 93       	push	r24
    1236:	9f 93       	push	r25
    1238:	ef 93       	push	r30
    123a:	ff 93       	push	r31
    123c:	5f 9b       	sbis	0x0b, 7	; 11
    123e:	fe cf       	rjmp	.-4      	; 0x123c <__vector_18+0x18>
    1240:	2c b1       	in	r18, 0x0c	; 12
    1242:	80 91 e9 07 	lds	r24, 0x07E9
    1246:	90 e0       	ldi	r25, 0x00	; 0
    1248:	fc 01       	movw	r30, r24
    124a:	ee 5e       	subi	r30, 0xEE	; 238
    124c:	f6 4f       	sbci	r31, 0xF6	; 246
    124e:	20 83       	st	Z, r18
    1250:	01 96       	adiw	r24, 0x01	; 1
    1252:	8f 73       	andi	r24, 0x3F	; 63
    1254:	90 70       	andi	r25, 0x00	; 0
    1256:	80 93 e9 07 	sts	0x07E9, r24
    125a:	80 91 e8 07 	lds	r24, 0x07E8
    125e:	8f 5f       	subi	r24, 0xFF	; 255
    1260:	80 93 e8 07 	sts	0x07E8, r24
    1264:	ff 91       	pop	r31
    1266:	ef 91       	pop	r30
    1268:	9f 91       	pop	r25
    126a:	8f 91       	pop	r24
    126c:	2f 91       	pop	r18
    126e:	0f 90       	pop	r0
    1270:	0b be       	out	0x3b, r0	; 59
    1272:	0f 90       	pop	r0
    1274:	0f be       	out	0x3f, r0	; 63
    1276:	0f 90       	pop	r0
    1278:	1f 90       	pop	r1
    127a:	18 95       	reti

0000127c <__vector_19>:
    127c:	1f 92       	push	r1
    127e:	0f 92       	push	r0
    1280:	0f b6       	in	r0, 0x3f	; 63
    1282:	0f 92       	push	r0
    1284:	0b b6       	in	r0, 0x3b	; 59
    1286:	0f 92       	push	r0
    1288:	11 24       	eor	r1, r1
    128a:	2f 93       	push	r18
    128c:	3f 93       	push	r19
    128e:	8f 93       	push	r24
    1290:	9f 93       	push	r25
    1292:	ef 93       	push	r30
    1294:	ff 93       	push	r31
    1296:	20 91 e5 07 	lds	r18, 0x07E5
    129a:	22 23       	and	r18, r18
    129c:	81 f0       	breq	.+32     	; 0x12be <__vector_19+0x42>
    129e:	80 91 e7 07 	lds	r24, 0x07E7
    12a2:	90 e0       	ldi	r25, 0x00	; 0
    12a4:	fc 01       	movw	r30, r24
    12a6:	ee 5a       	subi	r30, 0xAE	; 174
    12a8:	f6 4f       	sbci	r31, 0xF6	; 246
    12aa:	30 81       	ld	r19, Z
    12ac:	3c b9       	out	0x0c, r19	; 12
    12ae:	01 96       	adiw	r24, 0x01	; 1
    12b0:	8f 73       	andi	r24, 0x3F	; 63
    12b2:	90 70       	andi	r25, 0x00	; 0
    12b4:	80 93 e7 07 	sts	0x07E7, r24
    12b8:	21 50       	subi	r18, 0x01	; 1
    12ba:	20 93 e5 07 	sts	0x07E5, r18
    12be:	55 98       	cbi	0x0a, 5	; 10
    12c0:	ff 91       	pop	r31
    12c2:	ef 91       	pop	r30
    12c4:	9f 91       	pop	r25
    12c6:	8f 91       	pop	r24
    12c8:	3f 91       	pop	r19
    12ca:	2f 91       	pop	r18
    12cc:	0f 90       	pop	r0
    12ce:	0b be       	out	0x3b, r0	; 59
    12d0:	0f 90       	pop	r0
    12d2:	0f be       	out	0x3f, r0	; 63
    12d4:	0f 90       	pop	r0
    12d6:	1f 90       	pop	r1
    12d8:	18 95       	reti

000012da <__vector_20>:
    12da:	1f 92       	push	r1
    12dc:	0f 92       	push	r0
    12de:	0f b6       	in	r0, 0x3f	; 63
    12e0:	0f 92       	push	r0
    12e2:	0b b6       	in	r0, 0x3b	; 59
    12e4:	0f 92       	push	r0
    12e6:	11 24       	eor	r1, r1
    12e8:	2f 93       	push	r18
    12ea:	3f 93       	push	r19
    12ec:	8f 93       	push	r24
    12ee:	9f 93       	push	r25
    12f0:	ef 93       	push	r30
    12f2:	ff 93       	push	r31
    12f4:	20 91 e5 07 	lds	r18, 0x07E5
    12f8:	22 23       	and	r18, r18
    12fa:	81 f0       	breq	.+32     	; 0x131c <__vector_20+0x42>
    12fc:	80 91 e7 07 	lds	r24, 0x07E7
    1300:	90 e0       	ldi	r25, 0x00	; 0
    1302:	fc 01       	movw	r30, r24
    1304:	ee 5a       	subi	r30, 0xAE	; 174
    1306:	f6 4f       	sbci	r31, 0xF6	; 246
    1308:	30 81       	ld	r19, Z
    130a:	3c b9       	out	0x0c, r19	; 12
    130c:	01 96       	adiw	r24, 0x01	; 1
    130e:	8f 73       	andi	r24, 0x3F	; 63
    1310:	90 70       	andi	r25, 0x00	; 0
    1312:	80 93 e7 07 	sts	0x07E7, r24
    1316:	21 50       	subi	r18, 0x01	; 1
    1318:	20 93 e5 07 	sts	0x07E5, r18
    131c:	ff 91       	pop	r31
    131e:	ef 91       	pop	r30
    1320:	9f 91       	pop	r25
    1322:	8f 91       	pop	r24
    1324:	3f 91       	pop	r19
    1326:	2f 91       	pop	r18
    1328:	0f 90       	pop	r0
    132a:	0b be       	out	0x3b, r0	; 59
    132c:	0f 90       	pop	r0
    132e:	0f be       	out	0x3f, r0	; 63
    1330:	0f 90       	pop	r0
    1332:	1f 90       	pop	r1
    1334:	18 95       	reti

00001336 <uart_getchar>:
    1336:	f8 94       	cli
    1338:	20 91 e8 07 	lds	r18, 0x07E8
    133c:	22 23       	and	r18, r18
    133e:	c9 f0       	breq	.+50     	; 0x1372 <uart_getchar+0x3c>
    1340:	e0 91 ea 07 	lds	r30, 0x07EA
    1344:	f0 e0       	ldi	r31, 0x00	; 0
    1346:	ee 5e       	subi	r30, 0xEE	; 238
    1348:	f6 4f       	sbci	r31, 0xF6	; 246
    134a:	20 81       	ld	r18, Z
    134c:	fc 01       	movw	r30, r24
    134e:	20 83       	st	Z, r18
    1350:	80 91 ea 07 	lds	r24, 0x07EA
    1354:	90 e0       	ldi	r25, 0x00	; 0
    1356:	01 96       	adiw	r24, 0x01	; 1
    1358:	8f 73       	andi	r24, 0x3F	; 63
    135a:	90 70       	andi	r25, 0x00	; 0
    135c:	80 93 ea 07 	sts	0x07EA, r24
    1360:	80 91 e8 07 	lds	r24, 0x07E8
    1364:	81 50       	subi	r24, 0x01	; 1
    1366:	80 93 e8 07 	sts	0x07E8, r24
    136a:	78 94       	sei
    136c:	81 e0       	ldi	r24, 0x01	; 1
    136e:	90 e0       	ldi	r25, 0x00	; 0
    1370:	08 95       	ret
    1372:	78 94       	sei
    1374:	80 e0       	ldi	r24, 0x00	; 0
    1376:	90 e0       	ldi	r25, 0x00	; 0
    1378:	08 95       	ret

0000137a <uart_putchar>:
    137a:	f8 94       	cli
    137c:	55 9a       	sbi	0x0a, 5	; 10
    137e:	40 91 e5 07 	lds	r20, 0x07E5
    1382:	40 34       	cpi	r20, 0x40	; 64
    1384:	a0 f4       	brcc	.+40     	; 0x13ae <uart_putchar+0x34>
    1386:	20 91 e6 07 	lds	r18, 0x07E6
    138a:	30 e0       	ldi	r19, 0x00	; 0
    138c:	f9 01       	movw	r30, r18
    138e:	ee 5a       	subi	r30, 0xAE	; 174
    1390:	f6 4f       	sbci	r31, 0xF6	; 246
    1392:	80 83       	st	Z, r24
    1394:	c9 01       	movw	r24, r18
    1396:	01 96       	adiw	r24, 0x01	; 1
    1398:	8f 73       	andi	r24, 0x3F	; 63
    139a:	90 70       	andi	r25, 0x00	; 0
    139c:	80 93 e6 07 	sts	0x07E6, r24
    13a0:	4f 5f       	subi	r20, 0xFF	; 255
    13a2:	40 93 e5 07 	sts	0x07E5, r20
    13a6:	78 94       	sei
    13a8:	81 e0       	ldi	r24, 0x01	; 1
    13aa:	90 e0       	ldi	r25, 0x00	; 0
    13ac:	08 95       	ret
    13ae:	78 94       	sei
    13b0:	80 e0       	ldi	r24, 0x00	; 0
    13b2:	90 e0       	ldi	r25, 0x00	; 0
    13b4:	08 95       	ret

000013b6 <uart1_init>:
    13b6:	0f 93       	push	r16
    13b8:	1f 93       	push	r17
    13ba:	9b 01       	movw	r18, r22
    13bc:	ac 01       	movw	r20, r24
    13be:	82 e0       	ldi	r24, 0x02	; 2
    13c0:	80 93 9b 00 	sts	0x009B, r24
    13c4:	88 ed       	ldi	r24, 0xD8	; 216
    13c6:	80 93 9a 00 	sts	0x009A, r24
    13ca:	86 e0       	ldi	r24, 0x06	; 6
    13cc:	80 93 9d 00 	sts	0x009D, r24
    13d0:	60 e8       	ldi	r22, 0x80	; 128
    13d2:	74 e8       	ldi	r23, 0x84	; 132
    13d4:	8e e1       	ldi	r24, 0x1E	; 30
    13d6:	90 e0       	ldi	r25, 0x00	; 0
    13d8:	0e 94 3d 29 	call	0x527a	; 0x527a <__udivmodsi4>
    13dc:	89 01       	movw	r16, r18
    13de:	9a 01       	movw	r18, r20
    13e0:	d9 01       	movw	r26, r18
    13e2:	c8 01       	movw	r24, r16
    13e4:	01 97       	sbiw	r24, 0x01	; 1
    13e6:	a1 09       	sbc	r26, r1
    13e8:	b1 09       	sbc	r27, r1
    13ea:	89 2f       	mov	r24, r25
    13ec:	9a 2f       	mov	r25, r26
    13ee:	ab 2f       	mov	r26, r27
    13f0:	bb 27       	eor	r27, r27
    13f2:	80 93 98 00 	sts	0x0098, r24
    13f6:	01 50       	subi	r16, 0x01	; 1
    13f8:	00 93 99 00 	sts	0x0099, r16
    13fc:	80 e0       	ldi	r24, 0x00	; 0
    13fe:	90 e0       	ldi	r25, 0x00	; 0
    1400:	1f 91       	pop	r17
    1402:	0f 91       	pop	r16
    1404:	08 95       	ret

00001406 <__vector_30>:
    1406:	1f 92       	push	r1
    1408:	0f 92       	push	r0
    140a:	0f b6       	in	r0, 0x3f	; 63
    140c:	0f 92       	push	r0
    140e:	0b b6       	in	r0, 0x3b	; 59
    1410:	0f 92       	push	r0
    1412:	11 24       	eor	r1, r1
    1414:	2f 93       	push	r18
    1416:	8f 93       	push	r24
    1418:	9f 93       	push	r25
    141a:	ef 93       	push	r30
    141c:	ff 93       	push	r31
    141e:	80 91 9b 00 	lds	r24, 0x009B
    1422:	87 ff       	sbrs	r24, 7
    1424:	fc cf       	rjmp	.-8      	; 0x141e <__vector_30+0x18>
    1426:	20 91 9c 00 	lds	r18, 0x009C
    142a:	80 91 ef 07 	lds	r24, 0x07EF
    142e:	90 e0       	ldi	r25, 0x00	; 0
    1430:	fc 01       	movw	r30, r24
    1432:	ee 52       	subi	r30, 0x2E	; 46
    1434:	f6 4f       	sbci	r31, 0xF6	; 246
    1436:	20 83       	st	Z, r18
    1438:	01 96       	adiw	r24, 0x01	; 1
    143a:	8f 73       	andi	r24, 0x3F	; 63
    143c:	90 70       	andi	r25, 0x00	; 0
    143e:	80 93 ef 07 	sts	0x07EF, r24
    1442:	80 91 ee 07 	lds	r24, 0x07EE
    1446:	8f 5f       	subi	r24, 0xFF	; 255
    1448:	80 93 ee 07 	sts	0x07EE, r24
    144c:	ff 91       	pop	r31
    144e:	ef 91       	pop	r30
    1450:	9f 91       	pop	r25
    1452:	8f 91       	pop	r24
    1454:	2f 91       	pop	r18
    1456:	0f 90       	pop	r0
    1458:	0b be       	out	0x3b, r0	; 59
    145a:	0f 90       	pop	r0
    145c:	0f be       	out	0x3f, r0	; 63
    145e:	0f 90       	pop	r0
    1460:	1f 90       	pop	r1
    1462:	18 95       	reti

00001464 <__vector_31>:
    1464:	1f 92       	push	r1
    1466:	0f 92       	push	r0
    1468:	0f b6       	in	r0, 0x3f	; 63
    146a:	0f 92       	push	r0
    146c:	0b b6       	in	r0, 0x3b	; 59
    146e:	0f 92       	push	r0
    1470:	11 24       	eor	r1, r1
    1472:	2f 93       	push	r18
    1474:	3f 93       	push	r19
    1476:	8f 93       	push	r24
    1478:	9f 93       	push	r25
    147a:	ef 93       	push	r30
    147c:	ff 93       	push	r31
    147e:	20 91 eb 07 	lds	r18, 0x07EB
    1482:	22 23       	and	r18, r18
    1484:	89 f0       	breq	.+34     	; 0x14a8 <__vector_31+0x44>
    1486:	80 91 ed 07 	lds	r24, 0x07ED
    148a:	90 e0       	ldi	r25, 0x00	; 0
    148c:	fc 01       	movw	r30, r24
    148e:	ee 56       	subi	r30, 0x6E	; 110
    1490:	f6 4f       	sbci	r31, 0xF6	; 246
    1492:	30 81       	ld	r19, Z
    1494:	30 93 9c 00 	sts	0x009C, r19
    1498:	01 96       	adiw	r24, 0x01	; 1
    149a:	8f 73       	andi	r24, 0x3F	; 63
    149c:	90 70       	andi	r25, 0x00	; 0
    149e:	80 93 ed 07 	sts	0x07ED, r24
    14a2:	21 50       	subi	r18, 0x01	; 1
    14a4:	20 93 eb 07 	sts	0x07EB, r18
    14a8:	80 91 9a 00 	lds	r24, 0x009A
    14ac:	8f 7d       	andi	r24, 0xDF	; 223
    14ae:	80 93 9a 00 	sts	0x009A, r24
    14b2:	ff 91       	pop	r31
    14b4:	ef 91       	pop	r30
    14b6:	9f 91       	pop	r25
    14b8:	8f 91       	pop	r24
    14ba:	3f 91       	pop	r19
    14bc:	2f 91       	pop	r18
    14be:	0f 90       	pop	r0
    14c0:	0b be       	out	0x3b, r0	; 59
    14c2:	0f 90       	pop	r0
    14c4:	0f be       	out	0x3f, r0	; 63
    14c6:	0f 90       	pop	r0
    14c8:	1f 90       	pop	r1
    14ca:	18 95       	reti

000014cc <__vector_32>:
    14cc:	1f 92       	push	r1
    14ce:	0f 92       	push	r0
    14d0:	0f b6       	in	r0, 0x3f	; 63
    14d2:	0f 92       	push	r0
    14d4:	0b b6       	in	r0, 0x3b	; 59
    14d6:	0f 92       	push	r0
    14d8:	11 24       	eor	r1, r1
    14da:	2f 93       	push	r18
    14dc:	3f 93       	push	r19
    14de:	8f 93       	push	r24
    14e0:	9f 93       	push	r25
    14e2:	ef 93       	push	r30
    14e4:	ff 93       	push	r31
    14e6:	20 91 eb 07 	lds	r18, 0x07EB
    14ea:	22 23       	and	r18, r18
    14ec:	89 f0       	breq	.+34     	; 0x1510 <__vector_32+0x44>
    14ee:	80 91 ed 07 	lds	r24, 0x07ED
    14f2:	90 e0       	ldi	r25, 0x00	; 0
    14f4:	fc 01       	movw	r30, r24
    14f6:	ee 56       	subi	r30, 0x6E	; 110
    14f8:	f6 4f       	sbci	r31, 0xF6	; 246
    14fa:	30 81       	ld	r19, Z
    14fc:	30 93 9c 00 	sts	0x009C, r19
    1500:	01 96       	adiw	r24, 0x01	; 1
    1502:	8f 73       	andi	r24, 0x3F	; 63
    1504:	90 70       	andi	r25, 0x00	; 0
    1506:	80 93 ed 07 	sts	0x07ED, r24
    150a:	21 50       	subi	r18, 0x01	; 1
    150c:	20 93 eb 07 	sts	0x07EB, r18
    1510:	ff 91       	pop	r31
    1512:	ef 91       	pop	r30
    1514:	9f 91       	pop	r25
    1516:	8f 91       	pop	r24
    1518:	3f 91       	pop	r19
    151a:	2f 91       	pop	r18
    151c:	0f 90       	pop	r0
    151e:	0b be       	out	0x3b, r0	; 59
    1520:	0f 90       	pop	r0
    1522:	0f be       	out	0x3f, r0	; 63
    1524:	0f 90       	pop	r0
    1526:	1f 90       	pop	r1
    1528:	18 95       	reti

0000152a <uart1_getchar>:
    152a:	f8 94       	cli
    152c:	20 91 ee 07 	lds	r18, 0x07EE
    1530:	22 23       	and	r18, r18
    1532:	c9 f0       	breq	.+50     	; 0x1566 <uart1_getchar+0x3c>
    1534:	e0 91 f0 07 	lds	r30, 0x07F0
    1538:	f0 e0       	ldi	r31, 0x00	; 0
    153a:	ee 52       	subi	r30, 0x2E	; 46
    153c:	f6 4f       	sbci	r31, 0xF6	; 246
    153e:	20 81       	ld	r18, Z
    1540:	fc 01       	movw	r30, r24
    1542:	20 83       	st	Z, r18
    1544:	80 91 f0 07 	lds	r24, 0x07F0
    1548:	90 e0       	ldi	r25, 0x00	; 0
    154a:	01 96       	adiw	r24, 0x01	; 1
    154c:	8f 73       	andi	r24, 0x3F	; 63
    154e:	90 70       	andi	r25, 0x00	; 0
    1550:	80 93 f0 07 	sts	0x07F0, r24
    1554:	80 91 ee 07 	lds	r24, 0x07EE
    1558:	81 50       	subi	r24, 0x01	; 1
    155a:	80 93 ee 07 	sts	0x07EE, r24
    155e:	78 94       	sei
    1560:	81 e0       	ldi	r24, 0x01	; 1
    1562:	90 e0       	ldi	r25, 0x00	; 0
    1564:	08 95       	ret
    1566:	78 94       	sei
    1568:	80 e0       	ldi	r24, 0x00	; 0
    156a:	90 e0       	ldi	r25, 0x00	; 0
    156c:	08 95       	ret

0000156e <uart1_putchar>:
    156e:	f8 94       	cli
    1570:	90 91 9a 00 	lds	r25, 0x009A
    1574:	90 62       	ori	r25, 0x20	; 32
    1576:	90 93 9a 00 	sts	0x009A, r25
    157a:	40 91 eb 07 	lds	r20, 0x07EB
    157e:	40 34       	cpi	r20, 0x40	; 64
    1580:	a0 f4       	brcc	.+40     	; 0x15aa <uart1_putchar+0x3c>
    1582:	20 91 ec 07 	lds	r18, 0x07EC
    1586:	30 e0       	ldi	r19, 0x00	; 0
    1588:	f9 01       	movw	r30, r18
    158a:	ee 56       	subi	r30, 0x6E	; 110
    158c:	f6 4f       	sbci	r31, 0xF6	; 246
    158e:	80 83       	st	Z, r24
    1590:	c9 01       	movw	r24, r18
    1592:	01 96       	adiw	r24, 0x01	; 1
    1594:	8f 73       	andi	r24, 0x3F	; 63
    1596:	90 70       	andi	r25, 0x00	; 0
    1598:	80 93 ec 07 	sts	0x07EC, r24
    159c:	4f 5f       	subi	r20, 0xFF	; 255
    159e:	40 93 eb 07 	sts	0x07EB, r20
    15a2:	78 94       	sei
    15a4:	81 e0       	ldi	r24, 0x01	; 1
    15a6:	90 e0       	ldi	r25, 0x00	; 0
    15a8:	08 95       	ret
    15aa:	78 94       	sei
    15ac:	80 e0       	ldi	r24, 0x00	; 0
    15ae:	90 e0       	ldi	r25, 0x00	; 0
    15b0:	08 95       	ret

000015b2 <ds1307_init>:
    15b2:	e2 e6       	ldi	r30, 0x62	; 98
    15b4:	f0 e0       	ldi	r31, 0x00	; 0
    15b6:	80 81       	ld	r24, Z
    15b8:	80 61       	ori	r24, 0x10	; 16
    15ba:	80 83       	st	Z, r24
    15bc:	80 81       	ld	r24, Z
    15be:	80 62       	ori	r24, 0x20	; 32
    15c0:	80 83       	st	Z, r24
    15c2:	e1 e6       	ldi	r30, 0x61	; 97
    15c4:	f0 e0       	ldi	r31, 0x00	; 0
    15c6:	80 81       	ld	r24, Z
    15c8:	80 61       	ori	r24, 0x10	; 16
    15ca:	80 83       	st	Z, r24
    15cc:	80 81       	ld	r24, Z
    15ce:	80 62       	ori	r24, 0x20	; 32
    15d0:	80 83       	st	Z, r24
    15d2:	08 95       	ret

000015d4 <i2c_start>:
    15d4:	e2 e6       	ldi	r30, 0x62	; 98
    15d6:	f0 e0       	ldi	r31, 0x00	; 0
    15d8:	80 81       	ld	r24, Z
    15da:	80 61       	ori	r24, 0x10	; 16
    15dc:	80 83       	st	Z, r24
    15de:	80 81       	ld	r24, Z
    15e0:	80 62       	ori	r24, 0x20	; 32
    15e2:	80 83       	st	Z, r24
    15e4:	a1 e6       	ldi	r26, 0x61	; 97
    15e6:	b0 e0       	ldi	r27, 0x00	; 0
    15e8:	8c 91       	ld	r24, X
    15ea:	80 61       	ori	r24, 0x10	; 16
    15ec:	8c 93       	st	X, r24
    15ee:	8c 91       	ld	r24, X
    15f0:	80 62       	ori	r24, 0x20	; 32
    15f2:	8c 93       	st	X, r24
    15f4:	85 e2       	ldi	r24, 0x25	; 37
    15f6:	8a 95       	dec	r24
    15f8:	f1 f7       	brne	.-4      	; 0x15f6 <i2c_start+0x22>
    15fa:	00 00       	nop
    15fc:	80 81       	ld	r24, Z
    15fe:	8f 7e       	andi	r24, 0xEF	; 239
    1600:	80 83       	st	Z, r24
    1602:	85 e2       	ldi	r24, 0x25	; 37
    1604:	8a 95       	dec	r24
    1606:	f1 f7       	brne	.-4      	; 0x1604 <i2c_start+0x30>
    1608:	00 00       	nop
    160a:	80 81       	ld	r24, Z
    160c:	8f 7d       	andi	r24, 0xDF	; 223
    160e:	80 83       	st	Z, r24
    1610:	08 95       	ret

00001612 <i2c_stop>:
    1612:	a1 e6       	ldi	r26, 0x61	; 97
    1614:	b0 e0       	ldi	r27, 0x00	; 0
    1616:	8c 91       	ld	r24, X
    1618:	80 61       	ori	r24, 0x10	; 16
    161a:	8c 93       	st	X, r24
    161c:	e2 e6       	ldi	r30, 0x62	; 98
    161e:	f0 e0       	ldi	r31, 0x00	; 0
    1620:	80 81       	ld	r24, Z
    1622:	8f 7d       	andi	r24, 0xDF	; 223
    1624:	80 83       	st	Z, r24
    1626:	85 e2       	ldi	r24, 0x25	; 37
    1628:	8a 95       	dec	r24
    162a:	f1 f7       	brne	.-4      	; 0x1628 <i2c_stop+0x16>
    162c:	00 00       	nop
    162e:	80 81       	ld	r24, Z
    1630:	80 62       	ori	r24, 0x20	; 32
    1632:	80 83       	st	Z, r24
    1634:	85 e1       	ldi	r24, 0x15	; 21
    1636:	8a 95       	dec	r24
    1638:	f1 f7       	brne	.-4      	; 0x1636 <i2c_stop+0x24>
    163a:	00 00       	nop
    163c:	80 81       	ld	r24, Z
    163e:	80 61       	ori	r24, 0x10	; 16
    1640:	80 83       	st	Z, r24
    1642:	8c 91       	ld	r24, X
    1644:	8f 7e       	andi	r24, 0xEF	; 239
    1646:	8c 93       	st	X, r24
    1648:	08 95       	ret

0000164a <write_i2c_byte>:
    164a:	90 91 62 00 	lds	r25, 0x0062
    164e:	90 61       	ori	r25, 0x10	; 16
    1650:	90 93 62 00 	sts	0x0062, r25
    1654:	90 91 61 00 	lds	r25, 0x0061
    1658:	90 61       	ori	r25, 0x10	; 16
    165a:	90 93 61 00 	sts	0x0061, r25
    165e:	90 91 62 00 	lds	r25, 0x0062
    1662:	9f 7d       	andi	r25, 0xDF	; 223
    1664:	90 93 62 00 	sts	0x0062, r25
    1668:	98 e0       	ldi	r25, 0x08	; 8
    166a:	20 91 62 00 	lds	r18, 0x0062
    166e:	87 ff       	sbrs	r24, 7
    1670:	02 c0       	rjmp	.+4      	; 0x1676 <write_i2c_byte+0x2c>
    1672:	20 61       	ori	r18, 0x10	; 16
    1674:	01 c0       	rjmp	.+2      	; 0x1678 <write_i2c_byte+0x2e>
    1676:	2f 7e       	andi	r18, 0xEF	; 239
    1678:	20 93 62 00 	sts	0x0062, r18
    167c:	25 e3       	ldi	r18, 0x35	; 53
    167e:	2a 95       	dec	r18
    1680:	f1 f7       	brne	.-4      	; 0x167e <write_i2c_byte+0x34>
    1682:	00 00       	nop
    1684:	20 91 62 00 	lds	r18, 0x0062
    1688:	20 62       	ori	r18, 0x20	; 32
    168a:	20 93 62 00 	sts	0x0062, r18
    168e:	88 0f       	add	r24, r24
    1690:	25 e3       	ldi	r18, 0x35	; 53
    1692:	2a 95       	dec	r18
    1694:	f1 f7       	brne	.-4      	; 0x1692 <write_i2c_byte+0x48>
    1696:	00 00       	nop
    1698:	20 91 62 00 	lds	r18, 0x0062
    169c:	2f 7d       	andi	r18, 0xDF	; 223
    169e:	20 93 62 00 	sts	0x0062, r18
    16a2:	91 50       	subi	r25, 0x01	; 1
    16a4:	11 f7       	brne	.-60     	; 0x166a <write_i2c_byte+0x20>
    16a6:	80 91 62 00 	lds	r24, 0x0062
    16aa:	80 61       	ori	r24, 0x10	; 16
    16ac:	80 93 62 00 	sts	0x0062, r24
    16b0:	80 91 61 00 	lds	r24, 0x0061
    16b4:	8f 7e       	andi	r24, 0xEF	; 239
    16b6:	80 93 61 00 	sts	0x0061, r24
    16ba:	85 e3       	ldi	r24, 0x35	; 53
    16bc:	8a 95       	dec	r24
    16be:	f1 f7       	brne	.-4      	; 0x16bc <write_i2c_byte+0x72>
    16c0:	00 00       	nop
    16c2:	80 91 62 00 	lds	r24, 0x0062
    16c6:	80 62       	ori	r24, 0x20	; 32
    16c8:	80 93 62 00 	sts	0x0062, r24
    16cc:	25 e3       	ldi	r18, 0x35	; 53
    16ce:	2a 95       	dec	r18
    16d0:	f1 f7       	brne	.-4      	; 0x16ce <write_i2c_byte+0x84>
    16d2:	00 00       	nop
    16d4:	80 91 62 00 	lds	r24, 0x0062
    16d8:	8f 7d       	andi	r24, 0xDF	; 223
    16da:	80 93 62 00 	sts	0x0062, r24
    16de:	85 e3       	ldi	r24, 0x35	; 53
    16e0:	8a 95       	dec	r24
    16e2:	f1 f7       	brne	.-4      	; 0x16e0 <write_i2c_byte+0x96>
    16e4:	00 00       	nop
    16e6:	08 95       	ret

000016e8 <read_i2c_byte>:
    16e8:	38 2f       	mov	r19, r24
    16ea:	90 91 62 00 	lds	r25, 0x0062
    16ee:	90 61       	ori	r25, 0x10	; 16
    16f0:	90 93 62 00 	sts	0x0062, r25
    16f4:	90 91 61 00 	lds	r25, 0x0061
    16f8:	9f 7e       	andi	r25, 0xEF	; 239
    16fa:	90 93 61 00 	sts	0x0061, r25
    16fe:	2a e1       	ldi	r18, 0x1A	; 26
    1700:	2a 95       	dec	r18
    1702:	f1 f7       	brne	.-4      	; 0x1700 <read_i2c_byte+0x18>
    1704:	00 c0       	rjmp	.+0      	; 0x1706 <read_i2c_byte+0x1e>
    1706:	98 e0       	ldi	r25, 0x08	; 8
    1708:	80 e0       	ldi	r24, 0x00	; 0
    170a:	88 0f       	add	r24, r24
    170c:	20 91 62 00 	lds	r18, 0x0062
    1710:	20 62       	ori	r18, 0x20	; 32
    1712:	20 93 62 00 	sts	0x0062, r18
    1716:	04 99       	sbic	0x00, 4	; 0
    1718:	81 60       	ori	r24, 0x01	; 1
    171a:	25 e3       	ldi	r18, 0x35	; 53
    171c:	2a 95       	dec	r18
    171e:	f1 f7       	brne	.-4      	; 0x171c <read_i2c_byte+0x34>
    1720:	00 00       	nop
    1722:	20 91 62 00 	lds	r18, 0x0062
    1726:	2f 7d       	andi	r18, 0xDF	; 223
    1728:	20 93 62 00 	sts	0x0062, r18
    172c:	25 e3       	ldi	r18, 0x35	; 53
    172e:	2a 95       	dec	r18
    1730:	f1 f7       	brne	.-4      	; 0x172e <read_i2c_byte+0x46>
    1732:	00 00       	nop
    1734:	91 50       	subi	r25, 0x01	; 1
    1736:	49 f7       	brne	.-46     	; 0x170a <read_i2c_byte+0x22>
    1738:	90 91 61 00 	lds	r25, 0x0061
    173c:	90 61       	ori	r25, 0x10	; 16
    173e:	90 93 61 00 	sts	0x0061, r25
    1742:	90 91 62 00 	lds	r25, 0x0062
    1746:	33 23       	and	r19, r19
    1748:	b9 f4       	brne	.+46     	; 0x1778 <read_i2c_byte+0x90>
    174a:	9f 7e       	andi	r25, 0xEF	; 239
    174c:	90 93 62 00 	sts	0x0062, r25
    1750:	90 91 62 00 	lds	r25, 0x0062
    1754:	90 62       	ori	r25, 0x20	; 32
    1756:	90 93 62 00 	sts	0x0062, r25
    175a:	95 e3       	ldi	r25, 0x35	; 53
    175c:	9a 95       	dec	r25
    175e:	f1 f7       	brne	.-4      	; 0x175c <read_i2c_byte+0x74>
    1760:	00 00       	nop
    1762:	90 91 62 00 	lds	r25, 0x0062
    1766:	9f 7d       	andi	r25, 0xDF	; 223
    1768:	90 93 62 00 	sts	0x0062, r25
    176c:	90 91 62 00 	lds	r25, 0x0062
    1770:	9f 7e       	andi	r25, 0xEF	; 239
    1772:	90 93 62 00 	sts	0x0062, r25
    1776:	08 95       	ret
    1778:	90 61       	ori	r25, 0x10	; 16
    177a:	90 93 62 00 	sts	0x0062, r25
    177e:	90 91 62 00 	lds	r25, 0x0062
    1782:	90 62       	ori	r25, 0x20	; 32
    1784:	90 93 62 00 	sts	0x0062, r25
    1788:	25 e3       	ldi	r18, 0x35	; 53
    178a:	2a 95       	dec	r18
    178c:	f1 f7       	brne	.-4      	; 0x178a <read_i2c_byte+0xa2>
    178e:	00 00       	nop
    1790:	90 91 62 00 	lds	r25, 0x0062
    1794:	9f 7d       	andi	r25, 0xDF	; 223
    1796:	90 93 62 00 	sts	0x0062, r25
    179a:	90 91 62 00 	lds	r25, 0x0062
    179e:	9f 7e       	andi	r25, 0xEF	; 239
    17a0:	90 93 62 00 	sts	0x0062, r25
    17a4:	08 95       	ret

000017a6 <ds1307_read>:
    17a6:	1f 93       	push	r17
    17a8:	cf 93       	push	r28
    17aa:	df 93       	push	r29
    17ac:	0f 92       	push	r0
    17ae:	cd b7       	in	r28, 0x3d	; 61
    17b0:	de b7       	in	r29, 0x3e	; 62
    17b2:	18 2f       	mov	r17, r24
    17b4:	0e 94 ea 0a 	call	0x15d4	; 0x15d4 <i2c_start>
    17b8:	80 ed       	ldi	r24, 0xD0	; 208
    17ba:	0e 94 25 0b 	call	0x164a	; 0x164a <write_i2c_byte>
    17be:	81 2f       	mov	r24, r17
    17c0:	0e 94 25 0b 	call	0x164a	; 0x164a <write_i2c_byte>
    17c4:	0e 94 09 0b 	call	0x1612	; 0x1612 <i2c_stop>
    17c8:	0e 94 ea 0a 	call	0x15d4	; 0x15d4 <i2c_start>
    17cc:	81 ed       	ldi	r24, 0xD1	; 209
    17ce:	0e 94 25 0b 	call	0x164a	; 0x164a <write_i2c_byte>
    17d2:	85 e3       	ldi	r24, 0x35	; 53
    17d4:	8a 95       	dec	r24
    17d6:	f1 f7       	brne	.-4      	; 0x17d4 <ds1307_read+0x2e>
    17d8:	00 00       	nop
    17da:	80 e0       	ldi	r24, 0x00	; 0
    17dc:	0e 94 74 0b 	call	0x16e8	; 0x16e8 <read_i2c_byte>
    17e0:	89 83       	std	Y+1, r24	; 0x01
    17e2:	0e 94 09 0b 	call	0x1612	; 0x1612 <i2c_stop>
    17e6:	89 81       	ldd	r24, Y+1	; 0x01
    17e8:	90 e0       	ldi	r25, 0x00	; 0
    17ea:	0f 90       	pop	r0
    17ec:	df 91       	pop	r29
    17ee:	cf 91       	pop	r28
    17f0:	1f 91       	pop	r17
    17f2:	08 95       	ret

000017f4 <bcdToint>:
    17f4:	48 2f       	mov	r20, r24
    17f6:	42 95       	swap	r20
    17f8:	4f 70       	andi	r20, 0x0F	; 15
    17fa:	50 e0       	ldi	r21, 0x00	; 0
    17fc:	9a 01       	movw	r18, r20
    17fe:	22 0f       	add	r18, r18
    1800:	33 1f       	adc	r19, r19
    1802:	63 e0       	ldi	r22, 0x03	; 3
    1804:	44 0f       	add	r20, r20
    1806:	55 1f       	adc	r21, r21
    1808:	6a 95       	dec	r22
    180a:	e1 f7       	brne	.-8      	; 0x1804 <bcdToint+0x10>
    180c:	24 0f       	add	r18, r20
    180e:	35 1f       	adc	r19, r21
    1810:	8f 70       	andi	r24, 0x0F	; 15
    1812:	28 0f       	add	r18, r24
    1814:	31 1d       	adc	r19, r1
    1816:	c9 01       	movw	r24, r18
    1818:	08 95       	ret

0000181a <ds1307_read_time>:
    181a:	cf 93       	push	r28
    181c:	df 93       	push	r29
    181e:	ec 01       	movw	r28, r24
    1820:	82 e0       	ldi	r24, 0x02	; 2
    1822:	0e 94 d3 0b 	call	0x17a6	; 0x17a6 <ds1307_read>
    1826:	0e 94 fa 0b 	call	0x17f4	; 0x17f4 <bcdToint>
    182a:	88 83       	st	Y, r24
    182c:	81 e0       	ldi	r24, 0x01	; 1
    182e:	0e 94 d3 0b 	call	0x17a6	; 0x17a6 <ds1307_read>
    1832:	0e 94 fa 0b 	call	0x17f4	; 0x17f4 <bcdToint>
    1836:	89 83       	std	Y+1, r24	; 0x01
    1838:	80 e0       	ldi	r24, 0x00	; 0
    183a:	0e 94 d3 0b 	call	0x17a6	; 0x17a6 <ds1307_read>
    183e:	0e 94 fa 0b 	call	0x17f4	; 0x17f4 <bcdToint>
    1842:	8a 83       	std	Y+2, r24	; 0x02
    1844:	80 e0       	ldi	r24, 0x00	; 0
    1846:	90 e0       	ldi	r25, 0x00	; 0
    1848:	df 91       	pop	r29
    184a:	cf 91       	pop	r28
    184c:	08 95       	ret

0000184e <ds1307_read_date>:
    184e:	cf 93       	push	r28
    1850:	df 93       	push	r29
    1852:	ec 01       	movw	r28, r24
    1854:	86 e0       	ldi	r24, 0x06	; 6
    1856:	0e 94 d3 0b 	call	0x17a6	; 0x17a6 <ds1307_read>
    185a:	0e 94 fa 0b 	call	0x17f4	; 0x17f4 <bcdToint>
    185e:	88 83       	st	Y, r24
    1860:	85 e0       	ldi	r24, 0x05	; 5
    1862:	0e 94 d3 0b 	call	0x17a6	; 0x17a6 <ds1307_read>
    1866:	0e 94 fa 0b 	call	0x17f4	; 0x17f4 <bcdToint>
    186a:	89 83       	std	Y+1, r24	; 0x01
    186c:	84 e0       	ldi	r24, 0x04	; 4
    186e:	0e 94 d3 0b 	call	0x17a6	; 0x17a6 <ds1307_read>
    1872:	0e 94 fa 0b 	call	0x17f4	; 0x17f4 <bcdToint>
    1876:	8a 83       	std	Y+2, r24	; 0x02
    1878:	80 e0       	ldi	r24, 0x00	; 0
    187a:	90 e0       	ldi	r25, 0x00	; 0
    187c:	df 91       	pop	r29
    187e:	cf 91       	pop	r28
    1880:	08 95       	ret

00001882 <ds1307_read_time2>:
    1882:	0f 93       	push	r16
    1884:	1f 93       	push	r17
    1886:	cf 93       	push	r28
    1888:	df 93       	push	r29
    188a:	8c 01       	movw	r16, r24
    188c:	eb 01       	movw	r28, r22
    188e:	82 e0       	ldi	r24, 0x02	; 2
    1890:	0e 94 d3 0b 	call	0x17a6	; 0x17a6 <ds1307_read>
    1894:	0e 94 fa 0b 	call	0x17f4	; 0x17f4 <bcdToint>
    1898:	f8 01       	movw	r30, r16
    189a:	80 83       	st	Z, r24
    189c:	81 e0       	ldi	r24, 0x01	; 1
    189e:	0e 94 d3 0b 	call	0x17a6	; 0x17a6 <ds1307_read>
    18a2:	0e 94 fa 0b 	call	0x17f4	; 0x17f4 <bcdToint>
    18a6:	88 83       	st	Y, r24
    18a8:	80 e0       	ldi	r24, 0x00	; 0
    18aa:	90 e0       	ldi	r25, 0x00	; 0
    18ac:	df 91       	pop	r29
    18ae:	cf 91       	pop	r28
    18b0:	1f 91       	pop	r17
    18b2:	0f 91       	pop	r16
    18b4:	08 95       	ret

000018b6 <intTobcd>:
    18b6:	6a e0       	ldi	r22, 0x0A	; 10
    18b8:	0e 94 0a 29 	call	0x5214	; 0x5214 <__udivmodqi4>
    18bc:	82 95       	swap	r24
    18be:	80 7f       	andi	r24, 0xF0	; 240
    18c0:	89 0f       	add	r24, r25
    18c2:	08 95       	ret

000018c4 <ds1307_set_datetime>:
    18c4:	af 92       	push	r10
    18c6:	bf 92       	push	r11
    18c8:	cf 92       	push	r12
    18ca:	df 92       	push	r13
    18cc:	ef 92       	push	r14
    18ce:	0f 93       	push	r16
    18d0:	1f 93       	push	r17
    18d2:	cf 93       	push	r28
    18d4:	df 93       	push	r29
    18d6:	00 d0       	rcall	.+0      	; 0x18d8 <ds1307_set_datetime+0x14>
    18d8:	0f 92       	push	r0
    18da:	cd b7       	in	r28, 0x3d	; 61
    18dc:	de b7       	in	r29, 0x3e	; 62
    18de:	18 2f       	mov	r17, r24
    18e0:	72 e6       	ldi	r23, 0x62	; 98
    18e2:	a7 2e       	mov	r10, r23
    18e4:	b1 2c       	mov	r11, r1
    18e6:	f5 01       	movw	r30, r10
    18e8:	80 81       	ld	r24, Z
    18ea:	80 61       	ori	r24, 0x10	; 16
    18ec:	80 83       	st	Z, r24
    18ee:	80 81       	ld	r24, Z
    18f0:	80 62       	ori	r24, 0x20	; 32
    18f2:	80 83       	st	Z, r24
    18f4:	a1 e6       	ldi	r26, 0x61	; 97
    18f6:	ca 2e       	mov	r12, r26
    18f8:	d1 2c       	mov	r13, r1
    18fa:	f6 01       	movw	r30, r12
    18fc:	80 81       	ld	r24, Z
    18fe:	80 61       	ori	r24, 0x10	; 16
    1900:	80 83       	st	Z, r24
    1902:	80 81       	ld	r24, Z
    1904:	80 62       	ori	r24, 0x20	; 32
    1906:	80 83       	st	Z, r24
    1908:	2b 83       	std	Y+3, r18	; 0x03
    190a:	4a 83       	std	Y+2, r20	; 0x02
    190c:	69 83       	std	Y+1, r22	; 0x01
    190e:	0e 94 ea 0a 	call	0x15d4	; 0x15d4 <i2c_start>
    1912:	80 ed       	ldi	r24, 0xD0	; 208
    1914:	0e 94 25 0b 	call	0x164a	; 0x164a <write_i2c_byte>
    1918:	80 e0       	ldi	r24, 0x00	; 0
    191a:	0e 94 25 0b 	call	0x164a	; 0x164a <write_i2c_byte>
    191e:	81 2f       	mov	r24, r17
    1920:	0e 94 5b 0c 	call	0x18b6	; 0x18b6 <intTobcd>
    1924:	0e 94 25 0b 	call	0x164a	; 0x164a <write_i2c_byte>
    1928:	69 81       	ldd	r22, Y+1	; 0x01
    192a:	86 2f       	mov	r24, r22
    192c:	0e 94 5b 0c 	call	0x18b6	; 0x18b6 <intTobcd>
    1930:	0e 94 25 0b 	call	0x164a	; 0x164a <write_i2c_byte>
    1934:	4a 81       	ldd	r20, Y+2	; 0x02
    1936:	84 2f       	mov	r24, r20
    1938:	0e 94 5b 0c 	call	0x18b6	; 0x18b6 <intTobcd>
    193c:	0e 94 25 0b 	call	0x164a	; 0x164a <write_i2c_byte>
    1940:	80 e1       	ldi	r24, 0x10	; 16
    1942:	0e 94 25 0b 	call	0x164a	; 0x164a <write_i2c_byte>
    1946:	0e 94 09 0b 	call	0x1612	; 0x1612 <i2c_stop>
    194a:	f5 01       	movw	r30, r10
    194c:	80 81       	ld	r24, Z
    194e:	80 61       	ori	r24, 0x10	; 16
    1950:	80 83       	st	Z, r24
    1952:	80 81       	ld	r24, Z
    1954:	80 62       	ori	r24, 0x20	; 32
    1956:	80 83       	st	Z, r24
    1958:	f6 01       	movw	r30, r12
    195a:	80 81       	ld	r24, Z
    195c:	80 61       	ori	r24, 0x10	; 16
    195e:	80 83       	st	Z, r24
    1960:	80 81       	ld	r24, Z
    1962:	80 62       	ori	r24, 0x20	; 32
    1964:	80 83       	st	Z, r24
    1966:	0e 94 ea 0a 	call	0x15d4	; 0x15d4 <i2c_start>
    196a:	80 ed       	ldi	r24, 0xD0	; 208
    196c:	0e 94 25 0b 	call	0x164a	; 0x164a <write_i2c_byte>
    1970:	84 e0       	ldi	r24, 0x04	; 4
    1972:	0e 94 25 0b 	call	0x164a	; 0x164a <write_i2c_byte>
    1976:	2b 81       	ldd	r18, Y+3	; 0x03
    1978:	82 2f       	mov	r24, r18
    197a:	0e 94 5b 0c 	call	0x18b6	; 0x18b6 <intTobcd>
    197e:	0e 94 25 0b 	call	0x164a	; 0x164a <write_i2c_byte>
    1982:	80 2f       	mov	r24, r16
    1984:	0e 94 5b 0c 	call	0x18b6	; 0x18b6 <intTobcd>
    1988:	0e 94 25 0b 	call	0x164a	; 0x164a <write_i2c_byte>
    198c:	8e 2d       	mov	r24, r14
    198e:	0e 94 5b 0c 	call	0x18b6	; 0x18b6 <intTobcd>
    1992:	0e 94 25 0b 	call	0x164a	; 0x164a <write_i2c_byte>
    1996:	80 e1       	ldi	r24, 0x10	; 16
    1998:	0e 94 25 0b 	call	0x164a	; 0x164a <write_i2c_byte>
    199c:	0e 94 09 0b 	call	0x1612	; 0x1612 <i2c_stop>
    19a0:	0f 90       	pop	r0
    19a2:	0f 90       	pop	r0
    19a4:	0f 90       	pop	r0
    19a6:	df 91       	pop	r29
    19a8:	cf 91       	pop	r28
    19aa:	1f 91       	pop	r17
    19ac:	0f 91       	pop	r16
    19ae:	ef 90       	pop	r14
    19b0:	df 90       	pop	r13
    19b2:	cf 90       	pop	r12
    19b4:	bf 90       	pop	r11
    19b6:	af 90       	pop	r10
    19b8:	08 95       	ret

000019ba <ds1307_initial_config>:
    19ba:	cf 92       	push	r12
    19bc:	ef 92       	push	r14
    19be:	0f 93       	push	r16
    19c0:	1f 93       	push	r17
    19c2:	cf 93       	push	r28
    19c4:	df 93       	push	r29
    19c6:	00 d0       	rcall	.+0      	; 0x19c8 <ds1307_initial_config+0xe>
    19c8:	0f 92       	push	r0
    19ca:	cd b7       	in	r28, 0x3d	; 61
    19cc:	de b7       	in	r29, 0x3e	; 62
    19ce:	18 2f       	mov	r17, r24
    19d0:	e2 e6       	ldi	r30, 0x62	; 98
    19d2:	f0 e0       	ldi	r31, 0x00	; 0
    19d4:	80 81       	ld	r24, Z
    19d6:	80 61       	ori	r24, 0x10	; 16
    19d8:	80 83       	st	Z, r24
    19da:	80 81       	ld	r24, Z
    19dc:	80 62       	ori	r24, 0x20	; 32
    19de:	80 83       	st	Z, r24
    19e0:	e1 e6       	ldi	r30, 0x61	; 97
    19e2:	f0 e0       	ldi	r31, 0x00	; 0
    19e4:	80 81       	ld	r24, Z
    19e6:	80 61       	ori	r24, 0x10	; 16
    19e8:	80 83       	st	Z, r24
    19ea:	80 81       	ld	r24, Z
    19ec:	80 62       	ori	r24, 0x20	; 32
    19ee:	80 83       	st	Z, r24
    19f0:	2b 83       	std	Y+3, r18	; 0x03
    19f2:	4a 83       	std	Y+2, r20	; 0x02
    19f4:	69 83       	std	Y+1, r22	; 0x01
    19f6:	0e 94 ea 0a 	call	0x15d4	; 0x15d4 <i2c_start>
    19fa:	80 ed       	ldi	r24, 0xD0	; 208
    19fc:	0e 94 25 0b 	call	0x164a	; 0x164a <write_i2c_byte>
    1a00:	80 e0       	ldi	r24, 0x00	; 0
    1a02:	0e 94 25 0b 	call	0x164a	; 0x164a <write_i2c_byte>
    1a06:	81 2f       	mov	r24, r17
    1a08:	0e 94 5b 0c 	call	0x18b6	; 0x18b6 <intTobcd>
    1a0c:	0e 94 25 0b 	call	0x164a	; 0x164a <write_i2c_byte>
    1a10:	69 81       	ldd	r22, Y+1	; 0x01
    1a12:	86 2f       	mov	r24, r22
    1a14:	0e 94 5b 0c 	call	0x18b6	; 0x18b6 <intTobcd>
    1a18:	0e 94 25 0b 	call	0x164a	; 0x164a <write_i2c_byte>
    1a1c:	4a 81       	ldd	r20, Y+2	; 0x02
    1a1e:	84 2f       	mov	r24, r20
    1a20:	0e 94 5b 0c 	call	0x18b6	; 0x18b6 <intTobcd>
    1a24:	0e 94 25 0b 	call	0x164a	; 0x164a <write_i2c_byte>
    1a28:	2b 81       	ldd	r18, Y+3	; 0x03
    1a2a:	82 2f       	mov	r24, r18
    1a2c:	0e 94 5b 0c 	call	0x18b6	; 0x18b6 <intTobcd>
    1a30:	0e 94 25 0b 	call	0x164a	; 0x164a <write_i2c_byte>
    1a34:	80 2f       	mov	r24, r16
    1a36:	0e 94 5b 0c 	call	0x18b6	; 0x18b6 <intTobcd>
    1a3a:	0e 94 25 0b 	call	0x164a	; 0x164a <write_i2c_byte>
    1a3e:	8e 2d       	mov	r24, r14
    1a40:	0e 94 5b 0c 	call	0x18b6	; 0x18b6 <intTobcd>
    1a44:	0e 94 25 0b 	call	0x164a	; 0x164a <write_i2c_byte>
    1a48:	8c 2d       	mov	r24, r12
    1a4a:	0e 94 5b 0c 	call	0x18b6	; 0x18b6 <intTobcd>
    1a4e:	0e 94 25 0b 	call	0x164a	; 0x164a <write_i2c_byte>
    1a52:	80 e1       	ldi	r24, 0x10	; 16
    1a54:	0e 94 25 0b 	call	0x164a	; 0x164a <write_i2c_byte>
    1a58:	0e 94 09 0b 	call	0x1612	; 0x1612 <i2c_stop>
    1a5c:	0f 90       	pop	r0
    1a5e:	0f 90       	pop	r0
    1a60:	0f 90       	pop	r0
    1a62:	df 91       	pop	r29
    1a64:	cf 91       	pop	r28
    1a66:	1f 91       	pop	r17
    1a68:	0f 91       	pop	r16
    1a6a:	ef 90       	pop	r14
    1a6c:	cf 90       	pop	r12
    1a6e:	08 95       	ret

00001a70 <key_init>:
    1a70:	08 95       	ret

00001a72 <key_getKey>:
    1a72:	00 00       	nop
    1a74:	83 b3       	in	r24, 0x13	; 19
    1a76:	83 ff       	sbrs	r24, 3
    1a78:	0a c0       	rjmp	.+20     	; 0x1a8e <key_getKey+0x1c>
    1a7a:	84 ff       	sbrs	r24, 4
    1a7c:	0a c0       	rjmp	.+20     	; 0x1a92 <key_getKey+0x20>
    1a7e:	85 ff       	sbrs	r24, 5
    1a80:	0a c0       	rjmp	.+20     	; 0x1a96 <key_getKey+0x24>
    1a82:	81 ff       	sbrs	r24, 1
    1a84:	0a c0       	rjmp	.+20     	; 0x1a9a <key_getKey+0x28>
    1a86:	80 ff       	sbrs	r24, 0
    1a88:	0a c0       	rjmp	.+20     	; 0x1a9e <key_getKey+0x2c>
    1a8a:	80 e0       	ldi	r24, 0x00	; 0
    1a8c:	09 c0       	rjmp	.+18     	; 0x1aa0 <key_getKey+0x2e>
    1a8e:	80 e3       	ldi	r24, 0x30	; 48
    1a90:	07 c0       	rjmp	.+14     	; 0x1aa0 <key_getKey+0x2e>
    1a92:	83 e3       	ldi	r24, 0x33	; 51
    1a94:	05 c0       	rjmp	.+10     	; 0x1aa0 <key_getKey+0x2e>
    1a96:	84 e3       	ldi	r24, 0x34	; 52
    1a98:	03 c0       	rjmp	.+6      	; 0x1aa0 <key_getKey+0x2e>
    1a9a:	82 e3       	ldi	r24, 0x32	; 50
    1a9c:	01 c0       	rjmp	.+2      	; 0x1aa0 <key_getKey+0x2e>
    1a9e:	81 e3       	ldi	r24, 0x31	; 49
    1aa0:	80 93 f1 07 	sts	0x07F1, r24
    1aa4:	90 91 f2 07 	lds	r25, 0x07F2
    1aa8:	98 17       	cp	r25, r24
    1aaa:	d1 f4       	brne	.+52     	; 0x1ae0 <key_getKey+0x6e>
    1aac:	90 91 f3 07 	lds	r25, 0x07F3
    1ab0:	9a 30       	cpi	r25, 0x0A	; 10
    1ab2:	20 f4       	brcc	.+8      	; 0x1abc <key_getKey+0x4a>
    1ab4:	9f 5f       	subi	r25, 0xFF	; 255
    1ab6:	90 93 f3 07 	sts	0x07F3, r25
    1aba:	16 c0       	rjmp	.+44     	; 0x1ae8 <key_getKey+0x76>
    1abc:	90 91 f4 07 	lds	r25, 0x07F4
    1ac0:	88 23       	and	r24, r24
    1ac2:	41 f4       	brne	.+16     	; 0x1ad4 <key_getKey+0x62>
    1ac4:	99 23       	and	r25, r25
    1ac6:	81 f0       	breq	.+32     	; 0x1ae8 <key_getKey+0x76>
    1ac8:	89 2f       	mov	r24, r25
    1aca:	90 e0       	ldi	r25, 0x00	; 0
    1acc:	90 61       	ori	r25, 0x10	; 16
    1ace:	10 92 f4 07 	sts	0x07F4, r1
    1ad2:	08 95       	ret
    1ad4:	99 23       	and	r25, r25
    1ad6:	59 f4       	brne	.+22     	; 0x1aee <key_getKey+0x7c>
    1ad8:	80 93 f4 07 	sts	0x07F4, r24
    1adc:	90 e0       	ldi	r25, 0x00	; 0
    1ade:	08 95       	ret
    1ae0:	80 93 f2 07 	sts	0x07F2, r24
    1ae4:	10 92 f3 07 	sts	0x07F3, r1
    1ae8:	80 e0       	ldi	r24, 0x00	; 0
    1aea:	90 e0       	ldi	r25, 0x00	; 0
    1aec:	08 95       	ret
    1aee:	80 e0       	ldi	r24, 0x00	; 0
    1af0:	90 e0       	ldi	r25, 0x00	; 0
    1af2:	08 95       	ret

00001af4 <GLCD_command>:
    1af4:	c4 98       	cbi	0x18, 4	; 24
    1af6:	c0 98       	cbi	0x18, 0	; 24
    1af8:	8f b9       	out	0x0f, r24	; 15
    1afa:	77 9b       	sbis	0x0e, 7	; 14
    1afc:	fe cf       	rjmp	.-4      	; 0x1afa <GLCD_command+0x6>
    1afe:	c0 9a       	sbi	0x18, 0	; 24
    1b00:	08 95       	ret

00001b02 <GLCD_move>:
    1b02:	cf 93       	push	r28
    1b04:	c8 2f       	mov	r28, r24
    1b06:	64 30       	cpi	r22, 0x04	; 4
    1b08:	20 f4       	brcc	.+8      	; 0x1b12 <GLCD_move+0x10>
    1b0a:	86 2f       	mov	r24, r22
    1b0c:	80 55       	subi	r24, 0x50	; 80
    1b0e:	0e 94 7a 0d 	call	0x1af4	; 0x1af4 <GLCD_command>
    1b12:	8c 2f       	mov	r24, r28
    1b14:	82 95       	swap	r24
    1b16:	8f 70       	andi	r24, 0x0F	; 15
    1b18:	80 5f       	subi	r24, 0xF0	; 240
    1b1a:	0e 94 7a 0d 	call	0x1af4	; 0x1af4 <GLCD_command>
    1b1e:	8c 2f       	mov	r24, r28
    1b20:	8f 70       	andi	r24, 0x0F	; 15
    1b22:	0e 94 7a 0d 	call	0x1af4	; 0x1af4 <GLCD_command>
    1b26:	cf 91       	pop	r28
    1b28:	08 95       	ret

00001b2a <GLCD_init>:
    1b2a:	88 b3       	in	r24, 0x18	; 24
    1b2c:	85 60       	ori	r24, 0x05	; 5
    1b2e:	88 bb       	out	0x18, r24	; 24
    1b30:	87 b3       	in	r24, 0x17	; 23
    1b32:	87 60       	ori	r24, 0x07	; 7
    1b34:	87 bb       	out	0x17, r24	; 23
    1b36:	bc 9a       	sbi	0x17, 4	; 23
    1b38:	a2 9a       	sbi	0x14, 2	; 20
    1b3a:	82 e5       	ldi	r24, 0x52	; 82
    1b3c:	8d b9       	out	0x0d, r24	; 13
    1b3e:	81 e0       	ldi	r24, 0x01	; 1
    1b40:	8e b9       	out	0x0e, r24	; 14
    1b42:	8f ef       	ldi	r24, 0xFF	; 255
    1b44:	91 ee       	ldi	r25, 0xE1	; 225
    1b46:	a4 e0       	ldi	r26, 0x04	; 4
    1b48:	81 50       	subi	r24, 0x01	; 1
    1b4a:	90 40       	sbci	r25, 0x00	; 0
    1b4c:	a0 40       	sbci	r26, 0x00	; 0
    1b4e:	e1 f7       	brne	.-8      	; 0x1b48 <GLCD_init+0x1e>
    1b50:	00 c0       	rjmp	.+0      	; 0x1b52 <GLCD_init+0x28>
    1b52:	00 00       	nop
    1b54:	aa 9a       	sbi	0x15, 2	; 21
    1b56:	8e ea       	ldi	r24, 0xAE	; 174
    1b58:	0e 94 7a 0d 	call	0x1af4	; 0x1af4 <GLCD_command>
    1b5c:	83 ea       	ldi	r24, 0xA3	; 163
    1b5e:	0e 94 7a 0d 	call	0x1af4	; 0x1af4 <GLCD_command>
    1b62:	80 ea       	ldi	r24, 0xA0	; 160
    1b64:	0e 94 7a 0d 	call	0x1af4	; 0x1af4 <GLCD_command>
    1b68:	88 ec       	ldi	r24, 0xC8	; 200
    1b6a:	0e 94 7a 0d 	call	0x1af4	; 0x1af4 <GLCD_command>
    1b6e:	81 e2       	ldi	r24, 0x21	; 33
    1b70:	0e 94 7a 0d 	call	0x1af4	; 0x1af4 <GLCD_command>
    1b74:	81 e8       	ldi	r24, 0x81	; 129
    1b76:	0e 94 7a 0d 	call	0x1af4	; 0x1af4 <GLCD_command>
    1b7a:	88 e1       	ldi	r24, 0x18	; 24
    1b7c:	0e 94 7a 0d 	call	0x1af4	; 0x1af4 <GLCD_command>
    1b80:	8f e2       	ldi	r24, 0x2F	; 47
    1b82:	0e 94 7a 0d 	call	0x1af4	; 0x1af4 <GLCD_command>
    1b86:	8f ea       	ldi	r24, 0xAF	; 175
    1b88:	0e 94 7a 0d 	call	0x1af4	; 0x1af4 <GLCD_command>
    1b8c:	80 e4       	ldi	r24, 0x40	; 64
    1b8e:	0e 94 7a 0d 	call	0x1af4	; 0x1af4 <GLCD_command>
    1b92:	80 eb       	ldi	r24, 0xB0	; 176
    1b94:	0e 94 7a 0d 	call	0x1af4	; 0x1af4 <GLCD_command>
    1b98:	80 e1       	ldi	r24, 0x10	; 16
    1b9a:	0e 94 7a 0d 	call	0x1af4	; 0x1af4 <GLCD_command>
    1b9e:	80 e0       	ldi	r24, 0x00	; 0
    1ba0:	0e 94 7a 0d 	call	0x1af4	; 0x1af4 <GLCD_command>
    1ba4:	08 95       	ret

00001ba6 <GLCD_data>:
    1ba6:	c4 9a       	sbi	0x18, 4	; 24
    1ba8:	c0 98       	cbi	0x18, 0	; 24
    1baa:	8f b9       	out	0x0f, r24	; 15
    1bac:	77 9b       	sbis	0x0e, 7	; 14
    1bae:	fe cf       	rjmp	.-4      	; 0x1bac <GLCD_data+0x6>
    1bb0:	c0 9a       	sbi	0x18, 0	; 24
    1bb2:	08 95       	ret

00001bb4 <GLCD_put>:
    1bb4:	0e 94 d3 0d 	call	0x1ba6	; 0x1ba6 <GLCD_data>
    1bb8:	08 95       	ret

00001bba <GLCD_getStatus>:
    1bba:	85 e3       	ldi	r24, 0x35	; 53
    1bbc:	8a 95       	dec	r24
    1bbe:	f1 f7       	brne	.-4      	; 0x1bbc <GLCD_getStatus+0x2>
    1bc0:	00 00       	nop
    1bc2:	80 e0       	ldi	r24, 0x00	; 0
    1bc4:	08 95       	ret

00001bc6 <GLCD_clear>:
    1bc6:	cf 93       	push	r28
    1bc8:	80 e0       	ldi	r24, 0x00	; 0
    1bca:	60 e0       	ldi	r22, 0x00	; 0
    1bcc:	0e 94 81 0d 	call	0x1b02	; 0x1b02 <GLCD_move>
    1bd0:	c0 e0       	ldi	r28, 0x00	; 0
    1bd2:	80 e0       	ldi	r24, 0x00	; 0
    1bd4:	0e 94 d3 0d 	call	0x1ba6	; 0x1ba6 <GLCD_data>
    1bd8:	cf 5f       	subi	r28, 0xFF	; 255
    1bda:	c0 38       	cpi	r28, 0x80	; 128
    1bdc:	d1 f7       	brne	.-12     	; 0x1bd2 <GLCD_clear+0xc>
    1bde:	80 e0       	ldi	r24, 0x00	; 0
    1be0:	61 e0       	ldi	r22, 0x01	; 1
    1be2:	0e 94 81 0d 	call	0x1b02	; 0x1b02 <GLCD_move>
    1be6:	c0 e0       	ldi	r28, 0x00	; 0
    1be8:	80 e0       	ldi	r24, 0x00	; 0
    1bea:	0e 94 d3 0d 	call	0x1ba6	; 0x1ba6 <GLCD_data>
    1bee:	cf 5f       	subi	r28, 0xFF	; 255
    1bf0:	c0 38       	cpi	r28, 0x80	; 128
    1bf2:	d1 f7       	brne	.-12     	; 0x1be8 <GLCD_clear+0x22>
    1bf4:	80 e0       	ldi	r24, 0x00	; 0
    1bf6:	62 e0       	ldi	r22, 0x02	; 2
    1bf8:	0e 94 81 0d 	call	0x1b02	; 0x1b02 <GLCD_move>
    1bfc:	c0 e0       	ldi	r28, 0x00	; 0
    1bfe:	80 e0       	ldi	r24, 0x00	; 0
    1c00:	0e 94 d3 0d 	call	0x1ba6	; 0x1ba6 <GLCD_data>
    1c04:	cf 5f       	subi	r28, 0xFF	; 255
    1c06:	c0 38       	cpi	r28, 0x80	; 128
    1c08:	d1 f7       	brne	.-12     	; 0x1bfe <GLCD_clear+0x38>
    1c0a:	80 e0       	ldi	r24, 0x00	; 0
    1c0c:	63 e0       	ldi	r22, 0x03	; 3
    1c0e:	0e 94 81 0d 	call	0x1b02	; 0x1b02 <GLCD_move>
    1c12:	c0 e0       	ldi	r28, 0x00	; 0
    1c14:	80 e0       	ldi	r24, 0x00	; 0
    1c16:	0e 94 d3 0d 	call	0x1ba6	; 0x1ba6 <GLCD_data>
    1c1a:	cf 5f       	subi	r28, 0xFF	; 255
    1c1c:	c0 38       	cpi	r28, 0x80	; 128
    1c1e:	d1 f7       	brne	.-12     	; 0x1c14 <GLCD_clear+0x4e>
    1c20:	cf 91       	pop	r28
    1c22:	08 95       	ret

00001c24 <td_init>:
    1c24:	0e 94 95 0d 	call	0x1b2a	; 0x1b2a <GLCD_init>
    1c28:	0e 94 e3 0d 	call	0x1bc6	; 0x1bc6 <GLCD_clear>
    1c2c:	e2 e1       	ldi	r30, 0x12	; 18
    1c2e:	fa e0       	ldi	r31, 0x0A	; 10
    1c30:	80 e0       	ldi	r24, 0x00	; 0
    1c32:	90 e0       	ldi	r25, 0x00	; 0
    1c34:	11 92       	st	Z+, r1
    1c36:	01 96       	adiw	r24, 0x01	; 1
    1c38:	80 38       	cpi	r24, 0x80	; 128
    1c3a:	91 05       	cpc	r25, r1
    1c3c:	d9 f7       	brne	.-10     	; 0x1c34 <td_init+0x10>
    1c3e:	08 95       	ret

00001c40 <td_setUpdateMode>:
    1c40:	80 93 11 06 	sts	0x0611, r24
    1c44:	08 95       	ret

00001c46 <td_updateDisplay>:
    1c46:	6f 92       	push	r6
    1c48:	7f 92       	push	r7
    1c4a:	8f 92       	push	r8
    1c4c:	9f 92       	push	r9
    1c4e:	af 92       	push	r10
    1c50:	bf 92       	push	r11
    1c52:	cf 92       	push	r12
    1c54:	df 92       	push	r13
    1c56:	ef 92       	push	r14
    1c58:	ff 92       	push	r15
    1c5a:	0f 93       	push	r16
    1c5c:	1f 93       	push	r17
    1c5e:	cf 93       	push	r28
    1c60:	df 93       	push	r29
    1c62:	92 e9       	ldi	r25, 0x92	; 146
    1c64:	e9 2e       	mov	r14, r25
    1c66:	9a e0       	ldi	r25, 0x0A	; 10
    1c68:	f9 2e       	mov	r15, r25
    1c6a:	00 e0       	ldi	r16, 0x00	; 0
    1c6c:	10 e0       	ldi	r17, 0x00	; 0
    1c6e:	21 e0       	ldi	r18, 0x01	; 1
    1c70:	82 2e       	mov	r8, r18
    1c72:	91 2c       	mov	r9, r1
    1c74:	34 01       	movw	r6, r8
    1c76:	00 2e       	mov	r0, r16
    1c78:	02 c0       	rjmp	.+4      	; 0x1c7e <td_updateDisplay+0x38>
    1c7a:	66 0c       	add	r6, r6
    1c7c:	77 1c       	adc	r7, r7
    1c7e:	0a 94       	dec	r0
    1c80:	e2 f7       	brpl	.-8      	; 0x1c7a <td_updateDisplay+0x34>
    1c82:	82 e1       	ldi	r24, 0x12	; 18
    1c84:	c8 2e       	mov	r12, r24
    1c86:	8a e0       	ldi	r24, 0x0A	; 10
    1c88:	d8 2e       	mov	r13, r24
    1c8a:	56 01       	movw	r10, r12
    1c8c:	20 e0       	ldi	r18, 0x00	; 0
    1c8e:	30 e0       	ldi	r19, 0x00	; 0
    1c90:	c0 e0       	ldi	r28, 0x00	; 0
    1c92:	d0 e0       	ldi	r29, 0x00	; 0
    1c94:	f5 01       	movw	r30, r10
    1c96:	81 91       	ld	r24, Z+
    1c98:	5f 01       	movw	r10, r30
    1c9a:	90 e0       	ldi	r25, 0x00	; 0
    1c9c:	86 21       	and	r24, r6
    1c9e:	97 21       	and	r25, r7
    1ca0:	00 97       	sbiw	r24, 0x00	; 0
    1ca2:	81 f0       	breq	.+32     	; 0x1cc4 <td_updateDisplay+0x7e>
    1ca4:	21 15       	cp	r18, r1
    1ca6:	31 05       	cpc	r19, r1
    1ca8:	21 f4       	brne	.+8      	; 0x1cb2 <td_updateDisplay+0x6c>
    1caa:	8c 2f       	mov	r24, r28
    1cac:	60 2f       	mov	r22, r16
    1cae:	0e 94 81 0d 	call	0x1b02	; 0x1b02 <GLCD_move>
    1cb2:	f7 01       	movw	r30, r14
    1cb4:	ec 0f       	add	r30, r28
    1cb6:	fd 1f       	adc	r31, r29
    1cb8:	80 81       	ld	r24, Z
    1cba:	0e 94 da 0d 	call	0x1bb4	; 0x1bb4 <GLCD_put>
    1cbe:	21 e0       	ldi	r18, 0x01	; 1
    1cc0:	30 e0       	ldi	r19, 0x00	; 0
    1cc2:	02 c0       	rjmp	.+4      	; 0x1cc8 <td_updateDisplay+0x82>
    1cc4:	20 e0       	ldi	r18, 0x00	; 0
    1cc6:	30 e0       	ldi	r19, 0x00	; 0
    1cc8:	21 96       	adiw	r28, 0x01	; 1
    1cca:	c0 38       	cpi	r28, 0x80	; 128
    1ccc:	d1 05       	cpc	r29, r1
    1cce:	11 f7       	brne	.-60     	; 0x1c94 <td_updateDisplay+0x4e>
    1cd0:	0f 5f       	subi	r16, 0xFF	; 255
    1cd2:	1f 4f       	sbci	r17, 0xFF	; 255
    1cd4:	80 e8       	ldi	r24, 0x80	; 128
    1cd6:	90 e0       	ldi	r25, 0x00	; 0
    1cd8:	e8 0e       	add	r14, r24
    1cda:	f9 1e       	adc	r15, r25
    1cdc:	04 30       	cpi	r16, 0x04	; 4
    1cde:	11 05       	cpc	r17, r1
    1ce0:	49 f6       	brne	.-110    	; 0x1c74 <td_updateDisplay+0x2e>
    1ce2:	80 e0       	ldi	r24, 0x00	; 0
    1ce4:	90 e0       	ldi	r25, 0x00	; 0
    1ce6:	f6 01       	movw	r30, r12
    1ce8:	11 92       	st	Z+, r1
    1cea:	6f 01       	movw	r12, r30
    1cec:	01 96       	adiw	r24, 0x01	; 1
    1cee:	80 38       	cpi	r24, 0x80	; 128
    1cf0:	91 05       	cpc	r25, r1
    1cf2:	c9 f7       	brne	.-14     	; 0x1ce6 <td_updateDisplay+0xa0>
    1cf4:	df 91       	pop	r29
    1cf6:	cf 91       	pop	r28
    1cf8:	1f 91       	pop	r17
    1cfa:	0f 91       	pop	r16
    1cfc:	ff 90       	pop	r15
    1cfe:	ef 90       	pop	r14
    1d00:	df 90       	pop	r13
    1d02:	cf 90       	pop	r12
    1d04:	bf 90       	pop	r11
    1d06:	af 90       	pop	r10
    1d08:	9f 90       	pop	r9
    1d0a:	8f 90       	pop	r8
    1d0c:	7f 90       	pop	r7
    1d0e:	6f 90       	pop	r6
    1d10:	08 95       	ret

00001d12 <td_pixel>:
    1d12:	0f 93       	push	r16
    1d14:	1f 93       	push	r17
    1d16:	cf 93       	push	r28
    1d18:	df 93       	push	r29
    1d1a:	ec 01       	movw	r28, r24
    1d1c:	80 38       	cpi	r24, 0x80	; 128
    1d1e:	91 05       	cpc	r25, r1
    1d20:	08 f0       	brcs	.+2      	; 0x1d24 <td_pixel+0x12>
    1d22:	45 c0       	rjmp	.+138    	; 0x1dae <td_pixel+0x9c>
    1d24:	60 32       	cpi	r22, 0x20	; 32
    1d26:	71 05       	cpc	r23, r1
    1d28:	08 f0       	brcs	.+2      	; 0x1d2c <td_pixel+0x1a>
    1d2a:	41 c0       	rjmp	.+130    	; 0x1dae <td_pixel+0x9c>
    1d2c:	9b 01       	movw	r18, r22
    1d2e:	e3 e0       	ldi	r30, 0x03	; 3
    1d30:	35 95       	asr	r19
    1d32:	27 95       	ror	r18
    1d34:	ea 95       	dec	r30
    1d36:	e1 f7       	brne	.-8      	; 0x1d30 <td_pixel+0x1e>
    1d38:	89 01       	movw	r16, r18
    1d3a:	16 95       	lsr	r17
    1d3c:	10 2f       	mov	r17, r16
    1d3e:	00 27       	eor	r16, r16
    1d40:	17 95       	ror	r17
    1d42:	07 95       	ror	r16
    1d44:	67 70       	andi	r22, 0x07	; 7
    1d46:	70 70       	andi	r23, 0x00	; 0
    1d48:	f8 01       	movw	r30, r16
    1d4a:	e8 0f       	add	r30, r24
    1d4c:	f9 1f       	adc	r31, r25
    1d4e:	ee 56       	subi	r30, 0x6E	; 110
    1d50:	f5 4f       	sbci	r31, 0xF5	; 245
    1d52:	81 e0       	ldi	r24, 0x01	; 1
    1d54:	90 e0       	ldi	r25, 0x00	; 0
    1d56:	02 c0       	rjmp	.+4      	; 0x1d5c <td_pixel+0x4a>
    1d58:	88 0f       	add	r24, r24
    1d5a:	99 1f       	adc	r25, r25
    1d5c:	6a 95       	dec	r22
    1d5e:	e2 f7       	brpl	.-8      	; 0x1d58 <td_pixel+0x46>
    1d60:	41 15       	cp	r20, r1
    1d62:	51 05       	cpc	r21, r1
    1d64:	21 f0       	breq	.+8      	; 0x1d6e <td_pixel+0x5c>
    1d66:	90 81       	ld	r25, Z
    1d68:	98 2b       	or	r25, r24
    1d6a:	90 83       	st	Z, r25
    1d6c:	04 c0       	rjmp	.+8      	; 0x1d76 <td_pixel+0x64>
    1d6e:	80 95       	com	r24
    1d70:	90 81       	ld	r25, Z
    1d72:	89 23       	and	r24, r25
    1d74:	80 83       	st	Z, r24
    1d76:	80 91 11 06 	lds	r24, 0x0611
    1d7a:	88 23       	and	r24, r24
    1d7c:	61 f0       	breq	.+24     	; 0x1d96 <td_pixel+0x84>
    1d7e:	8c 2f       	mov	r24, r28
    1d80:	62 2f       	mov	r22, r18
    1d82:	0e 94 81 0d 	call	0x1b02	; 0x1b02 <GLCD_move>
    1d86:	c0 0f       	add	r28, r16
    1d88:	d1 1f       	adc	r29, r17
    1d8a:	ce 56       	subi	r28, 0x6E	; 110
    1d8c:	d5 4f       	sbci	r29, 0xF5	; 245
    1d8e:	88 81       	ld	r24, Y
    1d90:	0e 94 da 0d 	call	0x1bb4	; 0x1bb4 <GLCD_put>
    1d94:	0c c0       	rjmp	.+24     	; 0x1dae <td_pixel+0x9c>
    1d96:	ce 5e       	subi	r28, 0xEE	; 238
    1d98:	d5 4f       	sbci	r29, 0xF5	; 245
    1d9a:	81 e0       	ldi	r24, 0x01	; 1
    1d9c:	90 e0       	ldi	r25, 0x00	; 0
    1d9e:	02 c0       	rjmp	.+4      	; 0x1da4 <td_pixel+0x92>
    1da0:	88 0f       	add	r24, r24
    1da2:	99 1f       	adc	r25, r25
    1da4:	2a 95       	dec	r18
    1da6:	e2 f7       	brpl	.-8      	; 0x1da0 <td_pixel+0x8e>
    1da8:	98 81       	ld	r25, Y
    1daa:	98 2b       	or	r25, r24
    1dac:	98 83       	st	Y, r25
    1dae:	df 91       	pop	r29
    1db0:	cf 91       	pop	r28
    1db2:	1f 91       	pop	r17
    1db4:	0f 91       	pop	r16
    1db6:	08 95       	ret

00001db8 <td_put8>:
    1db8:	6f 92       	push	r6
    1dba:	7f 92       	push	r7
    1dbc:	9f 92       	push	r9
    1dbe:	af 92       	push	r10
    1dc0:	bf 92       	push	r11
    1dc2:	cf 92       	push	r12
    1dc4:	df 92       	push	r13
    1dc6:	ef 92       	push	r14
    1dc8:	ff 92       	push	r15
    1dca:	0f 93       	push	r16
    1dcc:	1f 93       	push	r17
    1dce:	cf 93       	push	r28
    1dd0:	df 93       	push	r29
    1dd2:	6c 01       	movw	r12, r24
    1dd4:	8b 01       	movw	r16, r22
    1dd6:	b3 e0       	ldi	r27, 0x03	; 3
    1dd8:	15 95       	asr	r17
    1dda:	07 95       	ror	r16
    1ddc:	ba 95       	dec	r27
    1dde:	e1 f7       	brne	.-8      	; 0x1dd8 <td_put8+0x20>
    1de0:	c7 e0       	ldi	r28, 0x07	; 7
    1de2:	ec 2e       	mov	r14, r28
    1de4:	f1 2c       	mov	r15, r1
    1de6:	e6 22       	and	r14, r22
    1de8:	f7 22       	and	r15, r23
    1dea:	64 2e       	mov	r6, r20
    1dec:	77 24       	eor	r7, r7
    1dee:	e8 01       	movw	r28, r16
    1df0:	d6 95       	lsr	r29
    1df2:	dc 2f       	mov	r29, r28
    1df4:	cc 27       	eor	r28, r28
    1df6:	d7 95       	ror	r29
    1df8:	c7 95       	ror	r28
    1dfa:	c8 0f       	add	r28, r24
    1dfc:	d9 1f       	adc	r29, r25
    1dfe:	ce 56       	subi	r28, 0x6E	; 110
    1e00:	d5 4f       	sbci	r29, 0xF5	; 245
    1e02:	3f ef       	ldi	r19, 0xFF	; 255
    1e04:	a3 2e       	mov	r10, r19
    1e06:	b1 2c       	mov	r11, r1
    1e08:	c5 01       	movw	r24, r10
    1e0a:	0e 2c       	mov	r0, r14
    1e0c:	02 c0       	rjmp	.+4      	; 0x1e12 <td_put8+0x5a>
    1e0e:	88 0f       	add	r24, r24
    1e10:	99 1f       	adc	r25, r25
    1e12:	0a 94       	dec	r0
    1e14:	e2 f7       	brpl	.-8      	; 0x1e0e <td_put8+0x56>
    1e16:	80 95       	com	r24
    1e18:	98 81       	ld	r25, Y
    1e1a:	89 23       	and	r24, r25
    1e1c:	93 01       	movw	r18, r6
    1e1e:	0e 2c       	mov	r0, r14
    1e20:	02 c0       	rjmp	.+4      	; 0x1e26 <td_put8+0x6e>
    1e22:	22 0f       	add	r18, r18
    1e24:	33 1f       	adc	r19, r19
    1e26:	0a 94       	dec	r0
    1e28:	e2 f7       	brpl	.-8      	; 0x1e22 <td_put8+0x6a>
    1e2a:	82 2b       	or	r24, r18
    1e2c:	88 83       	st	Y, r24
    1e2e:	8c 2d       	mov	r24, r12
    1e30:	60 2f       	mov	r22, r16
    1e32:	0e 94 81 0d 	call	0x1b02	; 0x1b02 <GLCD_move>
    1e36:	88 81       	ld	r24, Y
    1e38:	0e 94 da 0d 	call	0x1bb4	; 0x1bb4 <GLCD_put>
    1e3c:	e1 14       	cp	r14, r1
    1e3e:	f1 04       	cpc	r15, r1
    1e40:	41 f1       	breq	.+80     	; 0x1e92 <td_put8+0xda>
    1e42:	07 30       	cpi	r16, 0x07	; 7
    1e44:	11 05       	cpc	r17, r1
    1e46:	2c f5       	brge	.+74     	; 0x1e92 <td_put8+0xda>
    1e48:	e8 01       	movw	r28, r16
    1e4a:	21 96       	adiw	r28, 0x01	; 1
    1e4c:	d6 95       	lsr	r29
    1e4e:	dc 2f       	mov	r29, r28
    1e50:	cc 27       	eor	r28, r28
    1e52:	d7 95       	ror	r29
    1e54:	c7 95       	ror	r28
    1e56:	cc 0d       	add	r28, r12
    1e58:	dd 1d       	adc	r29, r13
    1e5a:	ce 56       	subi	r28, 0x6E	; 110
    1e5c:	d5 4f       	sbci	r29, 0xF5	; 245
    1e5e:	c5 01       	movw	r24, r10
    1e60:	0e 2c       	mov	r0, r14
    1e62:	02 c0       	rjmp	.+4      	; 0x1e68 <td_put8+0xb0>
    1e64:	95 95       	asr	r25
    1e66:	87 95       	ror	r24
    1e68:	0a 94       	dec	r0
    1e6a:	e2 f7       	brpl	.-8      	; 0x1e64 <td_put8+0xac>
    1e6c:	80 95       	com	r24
    1e6e:	98 81       	ld	r25, Y
    1e70:	89 23       	and	r24, r25
    1e72:	93 01       	movw	r18, r6
    1e74:	02 c0       	rjmp	.+4      	; 0x1e7a <td_put8+0xc2>
    1e76:	35 95       	asr	r19
    1e78:	27 95       	ror	r18
    1e7a:	ea 94       	dec	r14
    1e7c:	e2 f7       	brpl	.-8      	; 0x1e76 <td_put8+0xbe>
    1e7e:	82 2b       	or	r24, r18
    1e80:	88 83       	st	Y, r24
    1e82:	60 2f       	mov	r22, r16
    1e84:	6f 5f       	subi	r22, 0xFF	; 255
    1e86:	8c 2d       	mov	r24, r12
    1e88:	0e 94 81 0d 	call	0x1b02	; 0x1b02 <GLCD_move>
    1e8c:	88 81       	ld	r24, Y
    1e8e:	0e 94 da 0d 	call	0x1bb4	; 0x1bb4 <GLCD_put>
    1e92:	df 91       	pop	r29
    1e94:	cf 91       	pop	r28
    1e96:	1f 91       	pop	r17
    1e98:	0f 91       	pop	r16
    1e9a:	ff 90       	pop	r15
    1e9c:	ef 90       	pop	r14
    1e9e:	df 90       	pop	r13
    1ea0:	cf 90       	pop	r12
    1ea2:	bf 90       	pop	r11
    1ea4:	af 90       	pop	r10
    1ea6:	9f 90       	pop	r9
    1ea8:	7f 90       	pop	r7
    1eaa:	6f 90       	pop	r6
    1eac:	08 95       	ret

00001eae <td_setEFont>:
    1eae:	90 93 f6 07 	sts	0x07F6, r25
    1eb2:	80 93 f5 07 	sts	0x07F5, r24
    1eb6:	08 95       	ret

00001eb8 <td_setHFont>:
    1eb8:	90 93 f8 07 	sts	0x07F8, r25
    1ebc:	80 93 f7 07 	sts	0x07F7, r24
    1ec0:	08 95       	ret

00001ec2 <td_text>:
    1ec2:	2f 92       	push	r2
    1ec4:	3f 92       	push	r3
    1ec6:	4f 92       	push	r4
    1ec8:	5f 92       	push	r5
    1eca:	6f 92       	push	r6
    1ecc:	7f 92       	push	r7
    1ece:	9f 92       	push	r9
    1ed0:	af 92       	push	r10
    1ed2:	bf 92       	push	r11
    1ed4:	cf 92       	push	r12
    1ed6:	df 92       	push	r13
    1ed8:	ef 92       	push	r14
    1eda:	ff 92       	push	r15
    1edc:	0f 93       	push	r16
    1ede:	1f 93       	push	r17
    1ee0:	cf 93       	push	r28
    1ee2:	df 93       	push	r29
    1ee4:	cd b7       	in	r28, 0x3d	; 61
    1ee6:	de b7       	in	r29, 0x3e	; 62
    1ee8:	a0 97       	sbiw	r28, 0x20	; 32
    1eea:	0f b6       	in	r0, 0x3f	; 63
    1eec:	f8 94       	cli
    1eee:	de bf       	out	0x3e, r29	; 62
    1ef0:	0f be       	out	0x3f, r0	; 63
    1ef2:	cd bf       	out	0x3d, r28	; 61
    1ef4:	5c 01       	movw	r10, r24
    1ef6:	1b 01       	movw	r2, r22
    1ef8:	90 90 11 06 	lds	r9, 0x0611
    1efc:	10 92 11 06 	sts	0x0611, r1
    1f00:	2a 01       	movw	r4, r20
    1f02:	4b c0       	rjmp	.+150    	; 0x1f9a <td_text+0xd8>
    1f04:	e0 91 f5 07 	lds	r30, 0x07F5
    1f08:	f0 91 f6 07 	lds	r31, 0x07F6
    1f0c:	30 97       	sbiw	r30, 0x00	; 0
    1f0e:	d9 f1       	breq	.+118    	; 0x1f86 <td_text+0xc4>
    1f10:	06 80       	ldd	r0, Z+6	; 0x06
    1f12:	f7 81       	ldd	r31, Z+7	; 0x07
    1f14:	e0 2d       	mov	r30, r0
    1f16:	90 e0       	ldi	r25, 0x00	; 0
    1f18:	be 01       	movw	r22, r28
    1f1a:	6f 5f       	subi	r22, 0xFF	; 255
    1f1c:	7f 4f       	sbci	r23, 0xFF	; 255
    1f1e:	09 95       	icall
    1f20:	c0 90 f5 07 	lds	r12, 0x07F5
    1f24:	d0 90 f6 07 	lds	r13, 0x07F6
    1f28:	ee 24       	eor	r14, r14
    1f2a:	ff 24       	eor	r15, r15
    1f2c:	25 c0       	rjmp	.+74     	; 0x1f78 <td_text+0xb6>
    1f2e:	d6 01       	movw	r26, r12
    1f30:	18 96       	adiw	r26, 0x08	; 8
    1f32:	ed 91       	ld	r30, X+
    1f34:	fc 91       	ld	r31, X
    1f36:	19 97       	sbiw	r26, 0x09	; 9
    1f38:	ce 01       	movw	r24, r28
    1f3a:	01 96       	adiw	r24, 0x01	; 1
    1f3c:	b7 01       	movw	r22, r14
    1f3e:	a8 01       	movw	r20, r16
    1f40:	09 95       	icall
    1f42:	ac 01       	movw	r20, r24
    1f44:	b8 01       	movw	r22, r16
    1f46:	62 0d       	add	r22, r2
    1f48:	73 1d       	adc	r23, r3
    1f4a:	c3 01       	movw	r24, r6
    1f4c:	0e 94 89 0e 	call	0x1d12	; 0x1d12 <td_pixel>
    1f50:	0f 5f       	subi	r16, 0xFF	; 255
    1f52:	1f 4f       	sbci	r17, 0xFF	; 255
    1f54:	05 c0       	rjmp	.+10     	; 0x1f60 <td_text+0x9e>
    1f56:	00 e0       	ldi	r16, 0x00	; 0
    1f58:	10 e0       	ldi	r17, 0x00	; 0
    1f5a:	37 01       	movw	r6, r14
    1f5c:	6a 0c       	add	r6, r10
    1f5e:	7b 1c       	adc	r7, r11
    1f60:	d6 01       	movw	r26, r12
    1f62:	12 96       	adiw	r26, 0x02	; 2
    1f64:	ed 91       	ld	r30, X+
    1f66:	fc 91       	ld	r31, X
    1f68:	13 97       	sbiw	r26, 0x03	; 3
    1f6a:	09 95       	icall
    1f6c:	08 17       	cp	r16, r24
    1f6e:	19 07       	cpc	r17, r25
    1f70:	f4 f2       	brlt	.-68     	; 0x1f2e <td_text+0x6c>
    1f72:	08 94       	sec
    1f74:	e1 1c       	adc	r14, r1
    1f76:	f1 1c       	adc	r15, r1
    1f78:	d6 01       	movw	r26, r12
    1f7a:	ed 91       	ld	r30, X+
    1f7c:	fc 91       	ld	r31, X
    1f7e:	09 95       	icall
    1f80:	e8 16       	cp	r14, r24
    1f82:	f9 06       	cpc	r15, r25
    1f84:	44 f3       	brlt	.-48     	; 0x1f56 <td_text+0x94>
    1f86:	e0 91 f5 07 	lds	r30, 0x07F5
    1f8a:	f0 91 f6 07 	lds	r31, 0x07F6
    1f8e:	01 90       	ld	r0, Z+
    1f90:	f0 81       	ld	r31, Z
    1f92:	e0 2d       	mov	r30, r0
    1f94:	09 95       	icall
    1f96:	a8 0e       	add	r10, r24
    1f98:	b9 1e       	adc	r11, r25
    1f9a:	f2 01       	movw	r30, r4
    1f9c:	81 91       	ld	r24, Z+
    1f9e:	2f 01       	movw	r4, r30
    1fa0:	88 23       	and	r24, r24
    1fa2:	09 f0       	breq	.+2      	; 0x1fa6 <td_text+0xe4>
    1fa4:	af cf       	rjmp	.-162    	; 0x1f04 <td_text+0x42>
    1fa6:	99 20       	and	r9, r9
    1fa8:	11 f0       	breq	.+4      	; 0x1fae <td_text+0xec>
    1faa:	0e 94 23 0e 	call	0x1c46	; 0x1c46 <td_updateDisplay>
    1fae:	90 92 11 06 	sts	0x0611, r9
    1fb2:	a0 96       	adiw	r28, 0x20	; 32
    1fb4:	0f b6       	in	r0, 0x3f	; 63
    1fb6:	f8 94       	cli
    1fb8:	de bf       	out	0x3e, r29	; 62
    1fba:	0f be       	out	0x3f, r0	; 63
    1fbc:	cd bf       	out	0x3d, r28	; 61
    1fbe:	df 91       	pop	r29
    1fc0:	cf 91       	pop	r28
    1fc2:	1f 91       	pop	r17
    1fc4:	0f 91       	pop	r16
    1fc6:	ff 90       	pop	r15
    1fc8:	ef 90       	pop	r14
    1fca:	df 90       	pop	r13
    1fcc:	cf 90       	pop	r12
    1fce:	bf 90       	pop	r11
    1fd0:	af 90       	pop	r10
    1fd2:	9f 90       	pop	r9
    1fd4:	7f 90       	pop	r7
    1fd6:	6f 90       	pop	r6
    1fd8:	5f 90       	pop	r5
    1fda:	4f 90       	pop	r4
    1fdc:	3f 90       	pop	r3
    1fde:	2f 90       	pop	r2
    1fe0:	08 95       	ret

00001fe2 <TFont_getWidth>:
*/

static int TFont_getWidth()
{
	return 6;
}
    1fe2:	86 e0       	ldi	r24, 0x06	; 6
    1fe4:	90 e0       	ldi	r25, 0x00	; 0
    1fe6:	08 95       	ret

00001fe8 <TFont_getHeight>:
static int TFont_getHeight()
{
	return 8;
}
    1fe8:	88 e0       	ldi	r24, 0x08	; 8
    1fea:	90 e0       	ldi	r25, 0x00	; 0
    1fec:	08 95       	ret

00001fee <TFont_getDataSize>:

static int TFont_getDataSize()
{
	return 8;
}
    1fee:	88 e0       	ldi	r24, 0x08	; 8
    1ff0:	90 e0       	ldi	r25, 0x00	; 0
    1ff2:	08 95       	ret

00001ff4 <TFont_getFontData>:

static void TFont_getFontData(unsigned int code, unsigned char *fontData)
{

	int i;
	for (i=0; i<8; i++) fontData[i] = pgm_read_byte(&TFont2_data[code][i]);
    1ff4:	fc 01       	movw	r30, r24
    1ff6:	ee 0f       	add	r30, r30
    1ff8:	ff 1f       	adc	r31, r31
    1ffa:	e8 0f       	add	r30, r24
    1ffc:	f9 1f       	adc	r31, r25
    1ffe:	ee 0f       	add	r30, r30
    2000:	ff 1f       	adc	r31, r31
static int TFont_getDataSize()
{
	return 8;
}

static void TFont_getFontData(unsigned int code, unsigned char *fontData)
    2002:	e2 5f       	subi	r30, 0xF2	; 242
    2004:	fe 4f       	sbci	r31, 0xFE	; 254
{

	int i;
	for (i=0; i<8; i++) fontData[i] = pgm_read_byte(&TFont2_data[code][i]);
    2006:	a6 2f       	mov	r26, r22
    2008:	b7 2f       	mov	r27, r23
    200a:	80 e0       	ldi	r24, 0x00	; 0
    200c:	90 e0       	ldi	r25, 0x00	; 0
    200e:	24 91       	lpm	r18, Z+
    2010:	2d 93       	st	X+, r18
    2012:	01 96       	adiw	r24, 0x01	; 1
    2014:	31 96       	adiw	r30, 0x01	; 1
    2016:	88 30       	cpi	r24, 0x08	; 8
    2018:	91 05       	cpc	r25, r1
    201a:	c9 f7       	brne	.-14     	; 0x200e <TFont_getFontData+0x1a>
}
    201c:	08 95       	ret

0000201e <TFont_getPixel>:
	8 bits vertical data format.

*/
static int TFont_getPixel(unsigned char *fontData, int i, int j)
{
	if (i>=TFont_getWidth()) return 0;
    201e:	66 30       	cpi	r22, 0x06	; 6
    2020:	71 05       	cpc	r23, r1
    2022:	84 f4       	brge	.+32     	; 0x2044 <TFont_getPixel+0x26>
	if (j>=TFont_getHeight()) return 0;
    2024:	48 30       	cpi	r20, 0x08	; 8
    2026:	51 05       	cpc	r21, r1
    2028:	6c f4       	brge	.+26     	; 0x2044 <TFont_getPixel+0x26>

	if (j<8)
	{
		return (fontData[i] & (1<<j))?1:0;
    202a:	86 0f       	add	r24, r22
    202c:	97 1f       	adc	r25, r23
    202e:	fc 01       	movw	r30, r24
    2030:	20 81       	ld	r18, Z
    2032:	30 e0       	ldi	r19, 0x00	; 0
    2034:	02 c0       	rjmp	.+4      	; 0x203a <TFont_getPixel+0x1c>
    2036:	35 95       	asr	r19
    2038:	27 95       	ror	r18
    203a:	4a 95       	dec	r20
    203c:	e2 f7       	brpl	.-8      	; 0x2036 <TFont_getPixel+0x18>
    203e:	21 70       	andi	r18, 0x01	; 1
    2040:	30 70       	andi	r19, 0x00	; 0
    2042:	02 c0       	rjmp	.+4      	; 0x2048 <TFont_getPixel+0x2a>

*/
static int TFont_getPixel(unsigned char *fontData, int i, int j)
{
	if (i>=TFont_getWidth()) return 0;
	if (j>=TFont_getHeight()) return 0;
    2044:	20 e0       	ldi	r18, 0x00	; 0
    2046:	30 e0       	ldi	r19, 0x00	; 0
	}
	else
	{
		return (fontData[16+i] & (1<<(j-8)))?1:0;
	}
}
    2048:	c9 01       	movw	r24, r18
    204a:	08 95       	ret

0000204c <ada_init>:
/**
	Init printer connection
*/
int ada_init()
{
	uart_init(BAUD_9600);
    204c:	60 e8       	ldi	r22, 0x80	; 128
    204e:	75 e2       	ldi	r23, 0x25	; 37
    2050:	80 e0       	ldi	r24, 0x00	; 0
    2052:	90 e0       	ldi	r25, 0x00	; 0
    2054:	0e 94 ed 08 	call	0x11da	; 0x11da <uart_init>

	return 0;
}
    2058:	80 e0       	ldi	r24, 0x00	; 0
    205a:	90 e0       	ldi	r25, 0x00	; 0
    205c:	08 95       	ret

0000205e <ada_print>:
	write string to printer

	note) no end of line char needed.
*/
void ada_print(char *str)
{
    205e:	ef 92       	push	r14
    2060:	ff 92       	push	r15
    2062:	cf 93       	push	r28
    2064:	df 93       	push	r29
	char *p = str;
    2066:	e8 2e       	mov	r14, r24
    2068:	e7 01       	movw	r28, r14
    206a:	7e 01       	movw	r14, r28
    206c:	f9 2e       	mov	r15, r25
    206e:	e7 01       	movw	r28, r14

	while (*p)
    2070:	06 c0       	rjmp	.+12     	; 0x207e <ada_print+0x20>
	{
		PUTC(*p);		// until ok(1).   note) 0:fail.
    2072:	88 81       	ld	r24, Y
    2074:	0e 94 bd 09 	call	0x137a	; 0x137a <uart_putchar>
    2078:	00 97       	sbiw	r24, 0x00	; 0
    207a:	d9 f3       	breq	.-10     	; 0x2072 <ada_print+0x14>
		p++;
    207c:	21 96       	adiw	r28, 0x01	; 1
*/
void ada_print(char *str)
{
	char *p = str;

	while (*p)
    207e:	88 81       	ld	r24, Y
    2080:	88 23       	and	r24, r24
    2082:	b9 f7       	brne	.-18     	; 0x2072 <ada_print+0x14>
	{
		PUTC(*p);		// until ok(1).   note) 0:fail.
		p++;
	}
}
    2084:	df 91       	pop	r29
    2086:	cf 91       	pop	r28
    2088:	ff 90       	pop	r15
    208a:	ef 90       	pop	r14
    208c:	08 95       	ret

0000208e <ada_print_line>:
	write a line of log

	note) no end of line char needed.
*/
int ada_print_line(char *str)
{
    208e:	ef 92       	push	r14
    2090:	ff 92       	push	r15
    2092:	cf 93       	push	r28
    2094:	df 93       	push	r29
	char *p = str;
    2096:	e8 2e       	mov	r14, r24
    2098:	e7 01       	movw	r28, r14
    209a:	7e 01       	movw	r14, r28
    209c:	f9 2e       	mov	r15, r25
    209e:	e7 01       	movw	r28, r14

	while (*p)
    20a0:	06 c0       	rjmp	.+12     	; 0x20ae <ada_print_line+0x20>
	{
		//if ((*p == '\r') || (*p == '\n')) break;

		PUTC(*p);		// until ok(1).   note) 0:fail.
    20a2:	88 81       	ld	r24, Y
    20a4:	0e 94 bd 09 	call	0x137a	; 0x137a <uart_putchar>
    20a8:	00 97       	sbiw	r24, 0x00	; 0
    20aa:	d9 f3       	breq	.-10     	; 0x20a2 <ada_print_line+0x14>
		p++;
    20ac:	21 96       	adiw	r28, 0x01	; 1
*/
int ada_print_line(char *str)
{
	char *p = str;

	while (*p)
    20ae:	88 81       	ld	r24, Y
    20b0:	88 23       	and	r24, r24
    20b2:	b9 f7       	brne	.-18     	; 0x20a2 <ada_print_line+0x14>

	// put "end of line : <LF>" char.
	//uart_putchar('\n');

	return 0;
}
    20b4:	80 e0       	ldi	r24, 0x00	; 0
    20b6:	90 e0       	ldi	r25, 0x00	; 0
    20b8:	df 91       	pop	r29
    20ba:	cf 91       	pop	r28
    20bc:	ff 90       	pop	r15
    20be:	ef 90       	pop	r14
    20c0:	08 95       	ret

000020c2 <ada_init_printer>:
		- Return to standard mode.
		- Delete user_defined characters.
*/
int ada_init_printer()
{
	PUTC(0x1B); 
    20c2:	8b e1       	ldi	r24, 0x1B	; 27
    20c4:	0e 94 bd 09 	call	0x137a	; 0x137a <uart_putchar>
    20c8:	00 97       	sbiw	r24, 0x00	; 0
    20ca:	d9 f3       	breq	.-10     	; 0x20c2 <ada_init_printer>
	PUTC(0x40);
    20cc:	80 e4       	ldi	r24, 0x40	; 64
    20ce:	0e 94 bd 09 	call	0x137a	; 0x137a <uart_putchar>
    20d2:	00 97       	sbiw	r24, 0x00	; 0
    20d4:	d9 f3       	breq	.-10     	; 0x20cc <ada_init_printer+0xa>
	 
	return 0;
}
    20d6:	80 e0       	ldi	r24, 0x00	; 0
    20d8:	90 e0       	ldi	r25, 0x00	; 0
    20da:	08 95       	ret

000020dc <ada_align_mode>:
	0 - left
	1 - center
	2 - right
*/
int ada_align_mode(uint8 align)
{
    20dc:	1f 93       	push	r17
    20de:	18 2f       	mov	r17, r24
	PUTC(0x1B); 
    20e0:	8b e1       	ldi	r24, 0x1B	; 27
    20e2:	0e 94 bd 09 	call	0x137a	; 0x137a <uart_putchar>
    20e6:	00 97       	sbiw	r24, 0x00	; 0
    20e8:	d9 f3       	breq	.-10     	; 0x20e0 <ada_align_mode+0x4>
	PUTC(0x61);
    20ea:	81 e6       	ldi	r24, 0x61	; 97
    20ec:	0e 94 bd 09 	call	0x137a	; 0x137a <uart_putchar>
    20f0:	00 97       	sbiw	r24, 0x00	; 0
    20f2:	d9 f3       	breq	.-10     	; 0x20ea <ada_align_mode+0xe>

	PUTC(align); 
    20f4:	81 2f       	mov	r24, r17
    20f6:	0e 94 bd 09 	call	0x137a	; 0x137a <uart_putchar>
    20fa:	00 97       	sbiw	r24, 0x00	; 0
    20fc:	d9 f3       	breq	.-10     	; 0x20f4 <ada_align_mode+0x18>

	return 0;
}
    20fe:	80 e0       	ldi	r24, 0x00	; 0
    2100:	90 e0       	ldi	r25, 0x00	; 0
    2102:	1f 91       	pop	r17
    2104:	08 95       	ret

00002106 <ada_left_space>:
	left space

	1 => 0.125mm
*/
int ada_left_space(uint8 space)
{
    2106:	1f 93       	push	r17
    2108:	18 2f       	mov	r17, r24
	PUTC(0x1B); 
    210a:	8b e1       	ldi	r24, 0x1B	; 27
    210c:	0e 94 bd 09 	call	0x137a	; 0x137a <uart_putchar>
    2110:	00 97       	sbiw	r24, 0x00	; 0
    2112:	d9 f3       	breq	.-10     	; 0x210a <ada_left_space+0x4>
	PUTC(0x24);
    2114:	84 e2       	ldi	r24, 0x24	; 36
    2116:	0e 94 bd 09 	call	0x137a	; 0x137a <uart_putchar>
    211a:	00 97       	sbiw	r24, 0x00	; 0
    211c:	d9 f3       	breq	.-10     	; 0x2114 <ada_left_space+0xe>

	PUTC(space);
    211e:	81 2f       	mov	r24, r17
    2120:	0e 94 bd 09 	call	0x137a	; 0x137a <uart_putchar>
    2124:	00 97       	sbiw	r24, 0x00	; 0
    2126:	d9 f3       	breq	.-10     	; 0x211e <ada_left_space+0x18>
	PUTC(0x00);
    2128:	80 e0       	ldi	r24, 0x00	; 0
    212a:	0e 94 bd 09 	call	0x137a	; 0x137a <uart_putchar>
    212e:	00 97       	sbiw	r24, 0x00	; 0
    2130:	d9 f3       	breq	.-10     	; 0x2128 <ada_left_space+0x22>

	return 0;
}
    2132:	80 e0       	ldi	r24, 0x00	; 0
    2134:	90 e0       	ldi	r25, 0x00	; 0
    2136:	1f 91       	pop	r17
    2138:	08 95       	ret

0000213a <ada_font_enLarge>:

/**
	font enLarge
*/
int ada_font_enLarge(uint8 large)
{
    213a:	1f 93       	push	r17
    213c:	18 2f       	mov	r17, r24
	PUTC(0x1D); 
    213e:	8d e1       	ldi	r24, 0x1D	; 29
    2140:	0e 94 bd 09 	call	0x137a	; 0x137a <uart_putchar>
    2144:	00 97       	sbiw	r24, 0x00	; 0
    2146:	d9 f3       	breq	.-10     	; 0x213e <ada_font_enLarge+0x4>
	PUTC(0x21);
    2148:	81 e2       	ldi	r24, 0x21	; 33
    214a:	0e 94 bd 09 	call	0x137a	; 0x137a <uart_putchar>
    214e:	00 97       	sbiw	r24, 0x00	; 0
    2150:	d9 f3       	breq	.-10     	; 0x2148 <ada_font_enLarge+0xe>

	PUTC(large);
    2152:	81 2f       	mov	r24, r17
    2154:	0e 94 bd 09 	call	0x137a	; 0x137a <uart_putchar>
    2158:	00 97       	sbiw	r24, 0x00	; 0
    215a:	d9 f3       	breq	.-10     	; 0x2152 <ada_font_enLarge+0x18>

	return 0;
}
    215c:	80 e0       	ldi	r24, 0x00	; 0
    215e:	90 e0       	ldi	r25, 0x00	; 0
    2160:	1f 91       	pop	r17
    2162:	08 95       	ret

00002164 <ada_font_bold>:
	font bold
		0 - normal
		1 - bold
*/
int ada_font_bold(uint8 bold)
{
    2164:	1f 93       	push	r17
    2166:	18 2f       	mov	r17, r24
	PUTC(0x1B); 
    2168:	8b e1       	ldi	r24, 0x1B	; 27
    216a:	0e 94 bd 09 	call	0x137a	; 0x137a <uart_putchar>
    216e:	00 97       	sbiw	r24, 0x00	; 0
    2170:	d9 f3       	breq	.-10     	; 0x2168 <ada_font_bold+0x4>
	PUTC(0x45);
    2172:	85 e4       	ldi	r24, 0x45	; 69
    2174:	0e 94 bd 09 	call	0x137a	; 0x137a <uart_putchar>
    2178:	00 97       	sbiw	r24, 0x00	; 0
    217a:	d9 f3       	breq	.-10     	; 0x2172 <ada_font_bold+0xe>

	PUTC(bold);
    217c:	81 2f       	mov	r24, r17
    217e:	0e 94 bd 09 	call	0x137a	; 0x137a <uart_putchar>
    2182:	00 97       	sbiw	r24, 0x00	; 0
    2184:	d9 f3       	breq	.-10     	; 0x217c <ada_font_bold+0x18>

	return 0;
}
    2186:	80 e0       	ldi	r24, 0x00	; 0
    2188:	90 e0       	ldi	r25, 0x00	; 0
    218a:	1f 91       	pop	r17
    218c:	08 95       	ret

0000218e <ada_line_spacing>:
/**
	line spacing(0 ~ 255)
		default : 32
*/
int ada_line_spacing(uint8 space)
{
    218e:	1f 93       	push	r17
    2190:	18 2f       	mov	r17, r24
	PUTC(0x1B); 
    2192:	8b e1       	ldi	r24, 0x1B	; 27
    2194:	0e 94 bd 09 	call	0x137a	; 0x137a <uart_putchar>
    2198:	00 97       	sbiw	r24, 0x00	; 0
    219a:	d9 f3       	breq	.-10     	; 0x2192 <ada_line_spacing+0x4>
	PUTC(0x33);
    219c:	83 e3       	ldi	r24, 0x33	; 51
    219e:	0e 94 bd 09 	call	0x137a	; 0x137a <uart_putchar>
    21a2:	00 97       	sbiw	r24, 0x00	; 0
    21a4:	d9 f3       	breq	.-10     	; 0x219c <ada_line_spacing+0xe>

	PUTC(space);
    21a6:	81 2f       	mov	r24, r17
    21a8:	0e 94 bd 09 	call	0x137a	; 0x137a <uart_putchar>
    21ac:	00 97       	sbiw	r24, 0x00	; 0
    21ae:	d9 f3       	breq	.-10     	; 0x21a6 <ada_line_spacing+0x18>

	return 0;
}
    21b0:	80 e0       	ldi	r24, 0x00	; 0
    21b2:	90 e0       	ldi	r25, 0x00	; 0
    21b4:	1f 91       	pop	r17
    21b6:	08 95       	ret

000021b8 <ada_print_error>:



int ada_print_error(char *str, int errorNum)
{
    21b8:	ef 92       	push	r14
    21ba:	ff 92       	push	r15
    21bc:	cf 93       	push	r28
    21be:	df 93       	push	r29
    21c0:	e8 2e       	mov	r14, r24
    21c2:	e7 01       	movw	r28, r14
    21c4:	7e 01       	movw	r14, r28
    21c6:	f9 2e       	mov	r15, r25
    21c8:	e7 01       	movw	r28, r14
	char *p = str;



	while (*p)
    21ca:	06 c0       	rjmp	.+12     	; 0x21d8 <ada_print_error+0x20>
	{
		if ((*p == '\r') || (*p == '\n')) break;
    21cc:	8d 30       	cpi	r24, 0x0D	; 13
    21ce:	39 f0       	breq	.+14     	; 0x21de <ada_print_error+0x26>
    21d0:	8a 30       	cpi	r24, 0x0A	; 10
    21d2:	29 f0       	breq	.+10     	; 0x21de <ada_print_error+0x26>

		uart_putchar(*p);
    21d4:	0e 94 bd 09 	call	0x137a	; 0x137a <uart_putchar>
{
	char *p = str;



	while (*p)
    21d8:	89 91       	ld	r24, Y+
    21da:	88 23       	and	r24, r24
    21dc:	b9 f7       	brne	.-18     	; 0x21cc <ada_print_error+0x14>
		uart_putchar(*p);
		p++;
	}

	// put "end of line : <LF>" char.
	uart_putchar('\n');
    21de:	8a e0       	ldi	r24, 0x0A	; 10
    21e0:	0e 94 bd 09 	call	0x137a	; 0x137a <uart_putchar>

	return 0;
}
    21e4:	80 e0       	ldi	r24, 0x00	; 0
    21e6:	90 e0       	ldi	r25, 0x00	; 0
    21e8:	df 91       	pop	r29
    21ea:	cf 91       	pop	r28
    21ec:	ff 90       	pop	r15
    21ee:	ef 90       	pop	r14
    21f0:	08 95       	ret

000021f2 <sdl_init>:
/**
	Create log file.
*/
int sdl_init()
{
	uart1_init(BAUD_38400);
    21f2:	60 e0       	ldi	r22, 0x00	; 0
    21f4:	76 e9       	ldi	r23, 0x96	; 150
    21f6:	80 e0       	ldi	r24, 0x00	; 0
    21f8:	90 e0       	ldi	r25, 0x00	; 0
    21fa:	0e 94 db 09 	call	0x13b6	; 0x13b6 <uart1_init>

	sdl_state = 0;
    21fe:	10 92 0c 08 	sts	0x080C, r1
	return 0;
}
    2202:	80 e0       	ldi	r24, 0x00	; 0
    2204:	90 e0       	ldi	r25, 0x00	; 0
    2206:	08 95       	ret

00002208 <sdl_getState>:
	'R'	:
	'D'
*/
char sdl_getState()
{
	if ((sdl_state == 'R') || (sdl_state == 'D'))	return sdl_state;
    2208:	80 91 0c 08 	lds	r24, 0x080C
    220c:	82 35       	cpi	r24, 0x52	; 82
    220e:	19 f0       	breq	.+6      	; 0x2216 <sdl_getState+0xe>
    2210:	84 34       	cpi	r24, 0x44	; 68
    2212:	09 f0       	breq	.+2      	; 0x2216 <sdl_getState+0xe>
	else	return 'E';
    2214:	85 e4       	ldi	r24, 0x45	; 69
}
    2216:	08 95       	ret

00002218 <sdl_writeLine>:
	write a line of log

	note) no end of line char needed.
*/
int sdl_writeLine(char *str)
{
    2218:	ef 92       	push	r14
    221a:	ff 92       	push	r15
    221c:	cf 93       	push	r28
    221e:	df 93       	push	r29
	char *p = str;
    2220:	e8 2e       	mov	r14, r24
    2222:	e7 01       	movw	r28, r14
    2224:	7e 01       	movw	r14, r28
    2226:	f9 2e       	mov	r15, r25
    2228:	e7 01       	movw	r28, r14

	while (*p)
    222a:	0a c0       	rjmp	.+20     	; 0x2240 <sdl_writeLine+0x28>
	{
		if ((*p == '\r') || (*p == '\n')) break;
    222c:	8d 30       	cpi	r24, 0x0D	; 13
    222e:	59 f0       	breq	.+22     	; 0x2246 <sdl_writeLine+0x2e>
    2230:	8a 30       	cpi	r24, 0x0A	; 10
    2232:	49 f0       	breq	.+18     	; 0x2246 <sdl_writeLine+0x2e>

		while (uart1_putchar(*p) == 0);
    2234:	88 81       	ld	r24, Y
    2236:	0e 94 b7 0a 	call	0x156e	; 0x156e <uart1_putchar>
    223a:	00 97       	sbiw	r24, 0x00	; 0
    223c:	d9 f3       	breq	.-10     	; 0x2234 <sdl_writeLine+0x1c>
		p++;
    223e:	21 96       	adiw	r28, 0x01	; 1
*/
int sdl_writeLine(char *str)
{
	char *p = str;

	while (*p)
    2240:	88 81       	ld	r24, Y
    2242:	88 23       	and	r24, r24
    2244:	99 f7       	brne	.-26     	; 0x222c <sdl_writeLine+0x14>
		while (uart1_putchar(*p) == 0);
		p++;
	}

	// put "end of line" char.
	while (uart1_putchar('\r') == 0);
    2246:	8d e0       	ldi	r24, 0x0D	; 13
    2248:	0e 94 b7 0a 	call	0x156e	; 0x156e <uart1_putchar>
    224c:	00 97       	sbiw	r24, 0x00	; 0
    224e:	d9 f3       	breq	.-10     	; 0x2246 <sdl_writeLine+0x2e>

	return 0;
}
    2250:	80 e0       	ldi	r24, 0x00	; 0
    2252:	90 e0       	ldi	r25, 0x00	; 0
    2254:	df 91       	pop	r29
    2256:	cf 91       	pop	r28
    2258:	ff 90       	pop	r15
    225a:	ef 90       	pop	r14
    225c:	08 95       	ret

0000225e <sdl_process>:
		<st> = 'R', 'D'.
	OK
	ERROR
*/
void sdl_process()
{
    225e:	df 93       	push	r29
    2260:	cf 93       	push	r28
    2262:	0f 92       	push	r0
    2264:	cd b7       	in	r28, 0x3d	; 61
    2266:	de b7       	in	r29, 0x3e	; 62
#define	MAX_LEN	16
	static char rxBuff[MAX_LEN+1];
	static int	 rxLen = 0;

	uint8 c;
	if (uart1_getchar(&c) == 1)
    2268:	ce 01       	movw	r24, r28
    226a:	01 96       	adiw	r24, 0x01	; 1
    226c:	0e 94 95 0a 	call	0x152a	; 0x152a <uart1_getchar>
    2270:	81 30       	cpi	r24, 0x01	; 1
    2272:	91 05       	cpc	r25, r1
    2274:	09 f0       	breq	.+2      	; 0x2278 <sdl_process+0x1a>
    2276:	41 c0       	rjmp	.+130    	; 0x22fa <sdl_process+0x9c>
	{
		if (c == '\r')
    2278:	29 81       	ldd	r18, Y+1	; 0x01
    227a:	2d 30       	cpi	r18, 0x0D	; 13
    227c:	61 f5       	brne	.+88     	; 0x22d6 <sdl_process+0x78>
		{
			rxBuff[rxLen] = 0;		// make string.
    227e:	e0 91 f9 07 	lds	r30, 0x07F9
    2282:	f0 91 fa 07 	lds	r31, 0x07FA
    2286:	e5 50       	subi	r30, 0x05	; 5
    2288:	f8 4f       	sbci	r31, 0xF8	; 248
    228a:	10 82       	st	Z, r1
	handle response line.
	--
*/
static void sdl_handle_response(const char *resBuff)
{
	if (strncmp(resBuff, "SE:", 3) == 0)
    228c:	8b ef       	ldi	r24, 0xFB	; 251
    228e:	97 e0       	ldi	r25, 0x07	; 7
    2290:	6c e1       	ldi	r22, 0x1C	; 28
    2292:	76 e0       	ldi	r23, 0x06	; 6
    2294:	43 e0       	ldi	r20, 0x03	; 3
    2296:	50 e0       	ldi	r21, 0x00	; 0
    2298:	0e 94 66 29 	call	0x52cc	; 0x52cc <strncmp>
    229c:	00 97       	sbiw	r24, 0x00	; 0
    229e:	29 f4       	brne	.+10     	; 0x22aa <sdl_process+0x4c>
	{
		sdl_state = resBuff[3];
    22a0:	80 91 fe 07 	lds	r24, 0x07FE
    22a4:	80 93 0c 08 	sts	0x080C, r24
    22a8:	0d c0       	rjmp	.+26     	; 0x22c4 <sdl_process+0x66>
	}
	else if (strncmp(resBuff, "OK", 2) == 0)
    22aa:	8b ef       	ldi	r24, 0xFB	; 251
    22ac:	97 e0       	ldi	r25, 0x07	; 7
    22ae:	60 e2       	ldi	r22, 0x20	; 32
    22b0:	76 e0       	ldi	r23, 0x06	; 6
    22b2:	42 e0       	ldi	r20, 0x02	; 2
    22b4:	50 e0       	ldi	r21, 0x00	; 0
    22b6:	0e 94 66 29 	call	0x52cc	; 0x52cc <strncmp>
    22ba:	00 97       	sbiw	r24, 0x00	; 0
    22bc:	19 f4       	brne	.+6      	; 0x22c4 <sdl_process+0x66>
	{
		rFlag = 1;
    22be:	81 e0       	ldi	r24, 0x01	; 1
    22c0:	80 93 0d 08 	sts	0x080D, r24

// special command for... : format = "SET SN=AF001"
void handle_config_command(const char *resBuff);

			// new for serial no configuration.
			handle_config_command(rxBuff);
    22c4:	8b ef       	ldi	r24, 0xFB	; 251
    22c6:	97 e0       	ldi	r25, 0x07	; 7
    22c8:	0e 94 53 02 	call	0x4a6	; 0x4a6 <handle_config_command>

			rxLen = 0;
    22cc:	10 92 fa 07 	sts	0x07FA, r1
    22d0:	10 92 f9 07 	sts	0x07F9, r1
    22d4:	12 c0       	rjmp	.+36     	; 0x22fa <sdl_process+0x9c>
		}
		else if (c == '\n')	// ignore this.
    22d6:	2a 30       	cpi	r18, 0x0A	; 10
    22d8:	81 f0       	breq	.+32     	; 0x22fa <sdl_process+0x9c>
		{
			// do nothing.
		}
		else
		{
			if (rxLen < MAX_LEN)		// 7 char only for string.
    22da:	80 91 f9 07 	lds	r24, 0x07F9
    22de:	90 91 fa 07 	lds	r25, 0x07FA
    22e2:	80 31       	cpi	r24, 0x10	; 16
    22e4:	91 05       	cpc	r25, r1
    22e6:	4c f4       	brge	.+18     	; 0x22fa <sdl_process+0x9c>
			{
				rxBuff[rxLen++] = c;
    22e8:	fc 01       	movw	r30, r24
    22ea:	e5 50       	subi	r30, 0x05	; 5
    22ec:	f8 4f       	sbci	r31, 0xF8	; 248
    22ee:	20 83       	st	Z, r18
    22f0:	01 96       	adiw	r24, 0x01	; 1
    22f2:	90 93 fa 07 	sts	0x07FA, r25
    22f6:	80 93 f9 07 	sts	0x07F9, r24
			}
		}
	}
}
    22fa:	0f 90       	pop	r0
    22fc:	cf 91       	pop	r28
    22fe:	df 91       	pop	r29
    2300:	08 95       	ret

00002302 <sdl_wait>:

/**
	max timeout 60 secons
*/
static int sdl_wait(uint16 timeoutMs)
{
    2302:	cf 93       	push	r28
    2304:	df 93       	push	r29
    2306:	ec 01       	movw	r28, r24
	do
	{
		sdl_process();
    2308:	0e 94 2f 11 	call	0x225e	; 0x225e <sdl_process>

		if (rFlag == 1)
    230c:	80 91 0d 08 	lds	r24, 0x080D
    2310:	81 30       	cpi	r24, 0x01	; 1
    2312:	59 f0       	breq	.+22     	; 0x232a <sdl_wait+0x28>
	#else
		//round up by default
		__ticks_dc = (uint32_t)(ceil(fabs(__tmp)));
	#endif

	__builtin_avr_delay_cycles(__ticks_dc);
    2314:	8f ec       	ldi	r24, 0xCF	; 207
    2316:	97 e0       	ldi	r25, 0x07	; 7
    2318:	01 97       	sbiw	r24, 0x01	; 1
    231a:	f1 f7       	brne	.-4      	; 0x2318 <sdl_wait+0x16>
    231c:	00 c0       	rjmp	.+0      	; 0x231e <sdl_wait+0x1c>
    231e:	00 00       	nop
		{
			return 0;
		}

		_delay_us(500);		// consider process time
		timeoutMs--;
    2320:	21 97       	sbiw	r28, 0x01	; 1
	}
	while (timeoutMs > 0);
    2322:	91 f7       	brne	.-28     	; 0x2308 <sdl_wait+0x6>

	// timeout
	return -1;
    2324:	2f ef       	ldi	r18, 0xFF	; 255
    2326:	3f ef       	ldi	r19, 0xFF	; 255
    2328:	02 c0       	rjmp	.+4      	; 0x232e <sdl_wait+0x2c>
	{
		sdl_process();

		if (rFlag == 1)
		{
			return 0;
    232a:	20 e0       	ldi	r18, 0x00	; 0
    232c:	30 e0       	ldi	r19, 0x00	; 0
	}
	while (timeoutMs > 0);

	// timeout
	return -1;
}
    232e:	c9 01       	movw	r24, r18
    2330:	df 91       	pop	r29
    2332:	cf 91       	pop	r28
    2334:	08 95       	ret

00002336 <sdl_write>:

	return 0;
}

int sdl_write(char *str)
{
    2336:	0f 93       	push	r16
    2338:	1f 93       	push	r17
    233a:	cf 93       	push	r28
    233c:	df 93       	push	r29
	char *p = str;
    233e:	08 2f       	mov	r16, r24
    2340:	19 2f       	mov	r17, r25
    2342:	12 c0       	rjmp	.+36     	; 0x2368 <sdl_write+0x32>
	int wCnt = 0;		// write count

	while (*p)
	{
		while (uart1_putchar(*p) == 0);
    2344:	f8 01       	movw	r30, r16
    2346:	80 81       	ld	r24, Z
    2348:	0e 94 b7 0a 	call	0x156e	; 0x156e <uart1_putchar>
    234c:	00 97       	sbiw	r24, 0x00	; 0
    234e:	d1 f3       	breq	.-12     	; 0x2344 <sdl_write+0xe>
		p++;
    2350:	0f 5f       	subi	r16, 0xFF	; 255
    2352:	1f 4f       	sbci	r17, 0xFF	; 255

		wCnt++;
    2354:	21 96       	adiw	r28, 0x01	; 1
		
		// wait per 100 char.
		if (wCnt > 100)
    2356:	c5 36       	cpi	r28, 0x65	; 101
    2358:	d1 05       	cpc	r29, r1
    235a:	44 f0       	brlt	.+16     	; 0x236c <sdl_write+0x36>
		{
			// wait ok.
			rFlag = 0;
    235c:	10 92 0d 08 	sts	0x080D, r1
			sdl_wait(300);
    2360:	8c e2       	ldi	r24, 0x2C	; 44
    2362:	91 e0       	ldi	r25, 0x01	; 1
    2364:	0e 94 81 11 	call	0x2302	; 0x2302 <sdl_wait>
			wCnt = 0;
    2368:	c0 e0       	ldi	r28, 0x00	; 0
    236a:	d0 e0       	ldi	r29, 0x00	; 0
int sdl_write(char *str)
{
	char *p = str;
	int wCnt = 0;		// write count

	while (*p)
    236c:	f8 01       	movw	r30, r16
    236e:	80 81       	ld	r24, Z
    2370:	88 23       	and	r24, r24
    2372:	41 f7       	brne	.-48     	; 0x2344 <sdl_write+0xe>
			wCnt = 0;
		} 
	}

	return 0;
}
    2374:	80 e0       	ldi	r24, 0x00	; 0
    2376:	90 e0       	ldi	r25, 0x00	; 0
    2378:	df 91       	pop	r29
    237a:	cf 91       	pop	r28
    237c:	1f 91       	pop	r17
    237e:	0f 91       	pop	r16
    2380:	08 95       	ret

00002382 <sdl_close>:

	note) don't care whether open or not.
*/
int sdl_close()
{
	sdl_write("@@FC=0\r");
    2382:	83 e2       	ldi	r24, 0x23	; 35
    2384:	96 e0       	ldi	r25, 0x06	; 6
    2386:	0e 94 9b 11 	call	0x2336	; 0x2336 <sdl_write>
	rFlag = 0;
    238a:	10 92 0d 08 	sts	0x080D, r1
	return sdl_wait(3*1000);	
    238e:	88 eb       	ldi	r24, 0xB8	; 184
    2390:	9b e0       	ldi	r25, 0x0B	; 11
    2392:	0e 94 81 11 	call	0x2302	; 0x2302 <sdl_wait>
}
    2396:	08 95       	ret

00002398 <sdl_create>:

	note) filename should not include ','
		only 8.3 format for name
*/
int sdl_create(char *fileName)
{
    2398:	0f 93       	push	r16
    239a:	1f 93       	push	r17
    239c:	df 93       	push	r29
    239e:	cf 93       	push	r28
    23a0:	cd b7       	in	r28, 0x3d	; 61
    23a2:	de b7       	in	r29, 0x3e	; 62
    23a4:	a8 97       	sbiw	r28, 0x28	; 40
    23a6:	0f b6       	in	r0, 0x3f	; 63
    23a8:	f8 94       	cli
    23aa:	de bf       	out	0x3e, r29	; 62
    23ac:	0f be       	out	0x3f, r0	; 63
    23ae:	cd bf       	out	0x3d, r28	; 61
	char buff[32+8];

	sprintf(buff, "@@FO=0,%s,a\r", fileName);
    23b0:	00 d0       	rcall	.+0      	; 0x23b2 <sdl_create+0x1a>
    23b2:	00 d0       	rcall	.+0      	; 0x23b4 <sdl_create+0x1c>
    23b4:	00 d0       	rcall	.+0      	; 0x23b6 <sdl_create+0x1e>
    23b6:	ed b7       	in	r30, 0x3d	; 61
    23b8:	fe b7       	in	r31, 0x3e	; 62
    23ba:	31 96       	adiw	r30, 0x01	; 1
    23bc:	8e 01       	movw	r16, r28
    23be:	0f 5f       	subi	r16, 0xFF	; 255
    23c0:	1f 4f       	sbci	r17, 0xFF	; 255
    23c2:	ad b7       	in	r26, 0x3d	; 61
    23c4:	be b7       	in	r27, 0x3e	; 62
    23c6:	12 96       	adiw	r26, 0x02	; 2
    23c8:	1c 93       	st	X, r17
    23ca:	0e 93       	st	-X, r16
    23cc:	11 97       	sbiw	r26, 0x01	; 1
    23ce:	2b e2       	ldi	r18, 0x2B	; 43
    23d0:	36 e0       	ldi	r19, 0x06	; 6
    23d2:	33 83       	std	Z+3, r19	; 0x03
    23d4:	22 83       	std	Z+2, r18	; 0x02
    23d6:	95 83       	std	Z+5, r25	; 0x05
    23d8:	84 83       	std	Z+4, r24	; 0x04
    23da:	0e 94 74 29 	call	0x52e8	; 0x52e8 <sprintf>

	// write command.
	sdl_write(buff);
    23de:	8d b7       	in	r24, 0x3d	; 61
    23e0:	9e b7       	in	r25, 0x3e	; 62
    23e2:	06 96       	adiw	r24, 0x06	; 6
    23e4:	0f b6       	in	r0, 0x3f	; 63
    23e6:	f8 94       	cli
    23e8:	9e bf       	out	0x3e, r25	; 62
    23ea:	0f be       	out	0x3f, r0	; 63
    23ec:	8d bf       	out	0x3d, r24	; 61
    23ee:	c8 01       	movw	r24, r16
    23f0:	0e 94 9b 11 	call	0x2336	; 0x2336 <sdl_write>
	
	// wait maximum 7 seconds.
	rFlag = 0;
    23f4:	10 92 0d 08 	sts	0x080D, r1
	return sdl_wait(7*1000);	
    23f8:	88 e5       	ldi	r24, 0x58	; 88
    23fa:	9b e1       	ldi	r25, 0x1B	; 27
    23fc:	0e 94 81 11 	call	0x2302	; 0x2302 <sdl_wait>
}
    2400:	a8 96       	adiw	r28, 0x28	; 40
    2402:	0f b6       	in	r0, 0x3f	; 63
    2404:	f8 94       	cli
    2406:	de bf       	out	0x3e, r29	; 62
    2408:	0f be       	out	0x3f, r0	; 63
    240a:	cd bf       	out	0x3d, r28	; 61
    240c:	cf 91       	pop	r28
    240e:	df 91       	pop	r29
    2410:	1f 91       	pop	r17
    2412:	0f 91       	pop	r16
    2414:	08 95       	ret

00002416 <ste_reset>:
	Reset Proc engine
	- when completed, init for next procedure run.
*/
static void ste_reset()
{
	engState = 0;			// reset engine state
    2416:	10 92 2c 08 	sts	0x082C, r1
    241a:	10 92 2b 08 	sts	0x082B, r1
	currErrorCode = 0;
    241e:	10 92 1e 08 	sts	0x081E, r1
    2422:	10 92 1d 08 	sts	0x081D, r1

	// should clear error checking state.
	ps1ErrorTime = 0;
    2426:	10 92 44 08 	sts	0x0844, r1
	ps2ErrorTime = 0;
    242a:	10 92 45 08 	sts	0x0845, r1
	flowErrorTime = 0;
    242e:	10 92 46 08 	sts	0x0846, r1
}
    2432:	08 95       	ret

00002434 <ste_start>:
	str_step_event(strState, runCycle, step, totalStep);
}

static int ste_start(ControlProc *proc)
{
	if (engState == 0)	// ready
    2434:	20 91 2b 08 	lds	r18, 0x082B
    2438:	30 91 2c 08 	lds	r19, 0x082C
    243c:	21 15       	cp	r18, r1
    243e:	31 05       	cpc	r19, r1
    2440:	89 f4       	brne	.+34     	; 0x2464 <ste_start+0x30>
	{
		currentProc = proc;
    2442:	90 93 38 08 	sts	0x0838, r25
    2446:	80 93 37 08 	sts	0x0837, r24
		nextRunStep = 0;
    244a:	10 92 36 08 	sts	0x0836, r1
    244e:	10 92 35 08 	sts	0x0835, r1

		DPRINTF("eng start\n");
		engState = 1;
    2452:	81 e0       	ldi	r24, 0x01	; 1
    2454:	90 e0       	ldi	r25, 0x00	; 0
    2456:	90 93 2c 08 	sts	0x082C, r25
    245a:	80 93 2b 08 	sts	0x082B, r24
		
		//runSeconds = 0;		=> moved to str.

//		DPRINTF("--: ****    TV[]       SV[]   P,F,H, F,s,s\n"); ()
//		DPRINTF("--: ****Hms 1,2,3,4,5, 1,2,3, P,F,H, F,1,2\n");
		return 0;
    245e:	20 e0       	ldi	r18, 0x00	; 0
    2460:	30 e0       	ldi	r19, 0x00	; 0
    2462:	02 c0       	rjmp	.+4      	; 0x2468 <ste_start+0x34>
	}
	else
	{
		return -1;
    2464:	2f ef       	ldi	r18, 0xFF	; 255
    2466:	3f ef       	ldi	r19, 0xFF	; 255
	}
}
    2468:	c9 01       	movw	r24, r18
    246a:	08 95       	ret

0000246c <ste_stop>:

	note) don't clear error code.
*/
static void ste_stop()
{
	timer_clear(tid_ct);
    246c:	80 91 2f 08 	lds	r24, 0x082F
    2470:	90 91 30 08 	lds	r25, 0x0830
    2474:	0e 94 7f 08 	call	0x10fe	; 0x10fe <timer_clear>
	engState = 0;
    2478:	10 92 2c 08 	sts	0x082C, r1
    247c:	10 92 2b 08 	sts	0x082B, r1

	currentProc = 0;	// dummy.
    2480:	10 92 38 08 	sts	0x0838, r1
    2484:	10 92 37 08 	sts	0x0837, r1
	nextRunStep = 0;	// dummy.
    2488:	10 92 36 08 	sts	0x0836, r1
    248c:	10 92 35 08 	sts	0x0835, r1
}
    2490:	08 95       	ret

00002492 <dummyErrorStop>:
/**
	For dummy error processing.
*/
static void dummyErrorStop()
{
	errorCode = 0x20;	// internal error : not possible
    2492:	80 e2       	ldi	r24, 0x20	; 32
    2494:	90 e0       	ldi	r25, 0x00	; 0
    2496:	90 93 20 08 	sts	0x0820, r25
    249a:	80 93 1f 08 	sts	0x081F, r24
	runInfo.errorCode = errorCode;
    249e:	80 e2       	ldi	r24, 0x20	; 32
    24a0:	80 93 a5 0c 	sts	0x0CA5, r24

	ste_stop();
    24a4:	0e 94 36 12 	call	0x246c	; 0x246c <ste_stop>
	ste_reset();					// clear error checking var.
    24a8:	0e 94 0b 12 	call	0x2416	; 0x2416 <ste_reset>
	strState = ST_STOPPING;
    24ac:	8a e0       	ldi	r24, 0x0A	; 10
    24ae:	90 e0       	ldi	r25, 0x00	; 0
    24b0:	90 93 14 08 	sts	0x0814, r25
    24b4:	80 93 13 08 	sts	0x0813, r24
}
    24b8:	08 95       	ret

000024ba <goErrorFinishing>:
	runInfo.endTime.minute = dtime.minute;
	runInfo.endTime.second = dtime.second;
}

static void goErrorFinishing(int step)
{
    24ba:	cf 93       	push	r28
    24bc:	df 93       	push	r29
    24be:	ec 01       	movw	r28, r24
	// go efinish by error.
	errorCode = currErrorCode;
    24c0:	80 91 1d 08 	lds	r24, 0x081D
    24c4:	90 91 1e 08 	lds	r25, 0x081E
    24c8:	80 93 1f 08 	sts	0x081F, r24
    24cc:	90 93 20 08 	sts	0x0820, r25
	runInfo.errorCode = errorCode;
    24d0:	80 93 a5 0c 	sts	0x0CA5, r24

	currErrorCode = 0;				// clear error code.
    24d4:	10 92 1e 08 	sts	0x081E, r1
    24d8:	10 92 1d 08 	sts	0x081D, r1

	ste_stop();
    24dc:	0e 94 36 12 	call	0x246c	; 0x246c <ste_stop>
	ste_reset();					// clear error checking var.
    24e0:	0e 94 0b 12 	call	0x2416	; 0x2416 <ste_reset>
    24e4:	80 91 23 08 	lds	r24, 0x0823
    24e8:	90 91 24 08 	lds	r25, 0x0824


	if (step == 1)
    24ec:	c1 30       	cpi	r28, 0x01	; 1
    24ee:	d1 05       	cpc	r29, r1
    24f0:	29 f4       	brne	.+10     	; 0x24fc <goErrorFinishing+0x42>
	{
		// 1st step go error finishing
		runInfo.firstStepSecs = totalRunSeconds;
    24f2:	90 93 9b 0c 	sts	0x0C9B, r25
    24f6:	80 93 9a 0c 	sts	0x0C9A, r24
    24fa:	0b c0       	rjmp	.+22     	; 0x2512 <goErrorFinishing+0x58>
		prevTotalSeonds = totalRunSeconds;
	}
	else	// if step == 2
	{
		// 2nd step go error finishing
		runInfo.secondStepSecs = totalRunSeconds - prevTotalSeonds;
    24fc:	20 91 25 08 	lds	r18, 0x0825
    2500:	30 91 26 08 	lds	r19, 0x0826
    2504:	ac 01       	movw	r20, r24
    2506:	42 1b       	sub	r20, r18
    2508:	53 0b       	sbc	r21, r19
    250a:	50 93 9d 0c 	sts	0x0C9D, r21
    250e:	40 93 9c 0c 	sts	0x0C9C, r20
		prevTotalSeonds = totalRunSeconds;
    2512:	90 93 26 08 	sts	0x0826, r25
    2516:	80 93 25 08 	sts	0x0825, r24
	}

	// start error finishing process
	if (ste_start(&errFinishProc) == 0)
    251a:	8e e0       	ldi	r24, 0x0E	; 14
    251c:	97 e0       	ldi	r25, 0x07	; 7
    251e:	0e 94 1a 12 	call	0x2434	; 0x2434 <ste_start>
    2522:	00 97       	sbiw	r24, 0x00	; 0
    2524:	59 f4       	brne	.+22     	; 0x253c <goErrorFinishing+0x82>
	{
		//DPRINTF("go finish by error(%04u)\n", errorCode);
		strState = ST_EFINISH;
    2526:	89 e0       	ldi	r24, 0x09	; 9
    2528:	90 e0       	ldi	r25, 0x00	; 0
    252a:	90 93 14 08 	sts	0x0814, r25
    252e:	80 93 13 08 	sts	0x0813, r24

		str_event(strState, 0);
    2532:	60 e0       	ldi	r22, 0x00	; 0
    2534:	70 e0       	ldi	r23, 0x00	; 0
    2536:	0e 94 8d 02 	call	0x51a	; 0x51a <str_event>
    253a:	02 c0       	rjmp	.+4      	; 0x2540 <goErrorFinishing+0x86>
	}
	else
	{
		dummyErrorStop();
    253c:	0e 94 49 12 	call	0x2492	; 0x2492 <dummyErrorStop>
	}
}
    2540:	df 91       	pop	r29
    2542:	cf 91       	pop	r28
    2544:	08 95       	ret

00002546 <updateRunInfoEndTime>:
/**
	param 1 : as firstStep..
		
*/
static void updateRunInfoEndTime(int step)
{
    2546:	df 93       	push	r29
    2548:	cf 93       	push	r28
    254a:	00 d0       	rcall	.+0      	; 0x254c <updateRunInfoEndTime+0x6>
    254c:	0f 92       	push	r0
    254e:	cd b7       	in	r28, 0x3d	; 61
    2550:	de b7       	in	r29, 0x3e	; 62

	// end of single Self-Test mode run.
	if (step == 1)
    2552:	81 30       	cpi	r24, 0x01	; 1
    2554:	91 05       	cpc	r25, r1
    2556:	69 f4       	brne	.+26     	; 0x2572 <updateRunInfoEndTime+0x2c>
	{
		runInfo.firstStepSecs = totalRunSeconds;
    2558:	80 91 23 08 	lds	r24, 0x0823
    255c:	90 91 24 08 	lds	r25, 0x0824
    2560:	90 93 9b 0c 	sts	0x0C9B, r25
    2564:	80 93 9a 0c 	sts	0x0C9A, r24
		prevTotalSeonds = totalRunSeconds;
    2568:	90 93 26 08 	sts	0x0826, r25
    256c:	80 93 25 08 	sts	0x0825, r24
    2570:	1e c0       	rjmp	.+60     	; 0x25ae <updateRunInfoEndTime+0x68>
    2572:	20 91 23 08 	lds	r18, 0x0823
    2576:	30 91 24 08 	lds	r19, 0x0824
    257a:	40 91 25 08 	lds	r20, 0x0825
    257e:	50 91 26 08 	lds	r21, 0x0826
	}
	else if (step == 2)
    2582:	82 30       	cpi	r24, 0x02	; 2
    2584:	91 05       	cpc	r25, r1
    2586:	41 f4       	brne	.+16     	; 0x2598 <updateRunInfoEndTime+0x52>
	{
		runInfo.secondStepSecs = totalRunSeconds - prevTotalSeonds;
    2588:	c9 01       	movw	r24, r18
    258a:	84 1b       	sub	r24, r20
    258c:	95 0b       	sbc	r25, r21
    258e:	90 93 9d 0c 	sts	0x0C9D, r25
    2592:	80 93 9c 0c 	sts	0x0C9C, r24
    2596:	07 c0       	rjmp	.+14     	; 0x25a6 <updateRunInfoEndTime+0x60>
		prevTotalSeonds = totalRunSeconds;	
	}
	else
	{
		runInfo.finishStepSecs = totalRunSeconds - prevTotalSeonds;
    2598:	c9 01       	movw	r24, r18
    259a:	84 1b       	sub	r24, r20
    259c:	95 0b       	sbc	r25, r21
    259e:	90 93 9f 0c 	sts	0x0C9F, r25
    25a2:	80 93 9e 0c 	sts	0x0C9E, r24
		prevTotalSeonds = totalRunSeconds;	
    25a6:	30 93 26 08 	sts	0x0826, r19
    25aa:	20 93 25 08 	sts	0x0825, r18
	}

	runInfo.totalSeconds = totalRunSeconds;
    25ae:	80 91 23 08 	lds	r24, 0x0823
    25b2:	90 91 24 08 	lds	r25, 0x0824
    25b6:	90 93 a1 0c 	sts	0x0CA1, r25
    25ba:	80 93 a0 0c 	sts	0x0CA0, r24

	// end time.
	DS1307_time dtime;
	ds1307_read_time(&dtime);
    25be:	ce 01       	movw	r24, r28
    25c0:	01 96       	adiw	r24, 0x01	; 1
    25c2:	0e 94 0d 0c 	call	0x181a	; 0x181a <ds1307_read_time>

	runInfo.endTime.hour   = dtime.hour;
    25c6:	89 81       	ldd	r24, Y+1	; 0x01
    25c8:	80 93 a2 0c 	sts	0x0CA2, r24
	runInfo.endTime.minute = dtime.minute;
    25cc:	8a 81       	ldd	r24, Y+2	; 0x02
    25ce:	80 93 a3 0c 	sts	0x0CA3, r24
	runInfo.endTime.second = dtime.second;
    25d2:	8b 81       	ldd	r24, Y+3	; 0x03
    25d4:	80 93 a4 0c 	sts	0x0CA4, r24
}
    25d8:	0f 90       	pop	r0
    25da:	0f 90       	pop	r0
    25dc:	0f 90       	pop	r0
    25de:	cf 91       	pop	r28
    25e0:	df 91       	pop	r29
    25e2:	08 95       	ret

000025e4 <ste_event.clone.0>:
/**
	@param	state	engine state
	@param	step	current step
	@param	totalStep	procedure total step
*/
static void ste_event(int state, int step, int totalStep)
    25e4:	ac 01       	movw	r20, r24
    25e6:	9b 01       	movw	r18, r22
{
	//
	DPRINTF("EST:%d %d/%d\n", state, step, totalStep);

	// notify user
	str_step_event(strState, runCycle, step, totalStep);
    25e8:	60 91 27 08 	lds	r22, 0x0827
    25ec:	70 91 28 08 	lds	r23, 0x0828
    25f0:	80 91 13 08 	lds	r24, 0x0813
    25f4:	90 91 14 08 	lds	r25, 0x0814
    25f8:	0e 94 09 08 	call	0x1012	; 0x1012 <str_step_event>
}
    25fc:	08 95       	ret

000025fe <goErrorStopping.clone.1>:
/**
	// go stopping by door error
*/
static void goErrorStopping(int step, int err)
{
	errorCode = err;
    25fe:	28 e0       	ldi	r18, 0x08	; 8
    2600:	30 e0       	ldi	r19, 0x00	; 0
    2602:	30 93 20 08 	sts	0x0820, r19
    2606:	20 93 1f 08 	sts	0x081F, r18
	runInfo.errorCode = errorCode;
    260a:	28 e0       	ldi	r18, 0x08	; 8
    260c:	20 93 a5 0c 	sts	0x0CA5, r18

	buzzProfile = BUZZ_ERROR;
    2610:	20 e0       	ldi	r18, 0x00	; 0
    2612:	30 e0       	ldi	r19, 0x00	; 0
    2614:	40 e0       	ldi	r20, 0x00	; 0
    2616:	50 e9       	ldi	r21, 0x90	; 144
    2618:	20 93 0e 08 	sts	0x080E, r18
    261c:	30 93 0f 08 	sts	0x080F, r19
    2620:	40 93 10 08 	sts	0x0810, r20
    2624:	50 93 11 08 	sts	0x0811, r21
	buzzIndex = 0;
    2628:	10 92 12 08 	sts	0x0812, r1

	if (step == 1)		runInfo.firstStepSecs = totalRunSeconds;
    262c:	81 30       	cpi	r24, 0x01	; 1
    262e:	91 05       	cpc	r25, r1
    2630:	49 f4       	brne	.+18     	; 0x2644 <goErrorStopping.clone.1+0x46>
    2632:	80 91 23 08 	lds	r24, 0x0823
    2636:	90 91 24 08 	lds	r25, 0x0824
    263a:	90 93 9b 0c 	sts	0x0C9B, r25
    263e:	80 93 9a 0c 	sts	0x0C9A, r24
    2642:	18 c0       	rjmp	.+48     	; 0x2674 <goErrorStopping.clone.1+0x76>
    2644:	40 91 23 08 	lds	r20, 0x0823
    2648:	50 91 24 08 	lds	r21, 0x0824
    264c:	20 91 25 08 	lds	r18, 0x0825
    2650:	30 91 26 08 	lds	r19, 0x0826
	else if (step == 2)	runInfo.secondStepSecs = totalRunSeconds - prevTotalSeonds;
    2654:	82 30       	cpi	r24, 0x02	; 2
    2656:	91 05       	cpc	r25, r1
    2658:	39 f4       	brne	.+14     	; 0x2668 <goErrorStopping.clone.1+0x6a>
    265a:	42 1b       	sub	r20, r18
    265c:	53 0b       	sbc	r21, r19
    265e:	50 93 9d 0c 	sts	0x0C9D, r21
    2662:	40 93 9c 0c 	sts	0x0C9C, r20
    2666:	06 c0       	rjmp	.+12     	; 0x2674 <goErrorStopping.clone.1+0x76>
	else				runInfo.finishStepSecs = totalRunSeconds - prevTotalSeonds;
    2668:	42 1b       	sub	r20, r18
    266a:	53 0b       	sbc	r21, r19
    266c:	50 93 9f 0c 	sts	0x0C9F, r21
    2670:	40 93 9e 0c 	sts	0x0C9E, r20

	ste_stop();
    2674:	0e 94 36 12 	call	0x246c	; 0x246c <ste_stop>
	ste_reset();					// clear error checking var.
    2678:	0e 94 0b 12 	call	0x2416	; 0x2416 <ste_reset>

	strState = ST_STOPPING;
    267c:	8a e0       	ldi	r24, 0x0A	; 10
    267e:	90 e0       	ldi	r25, 0x00	; 0
    2680:	90 93 14 08 	sts	0x0814, r25
    2684:	80 93 13 08 	sts	0x0813, r24
}
    2688:	08 95       	ret

0000268a <str_ControlDev>:

//------------------------------------------------------------------------------


int str_ControlDev(DeviceControl dc)
{
    268a:	df 93       	push	r29
    268c:	cf 93       	push	r28
    268e:	00 d0       	rcall	.+0      	; 0x2690 <str_ControlDev+0x6>
    2690:	00 d0       	rcall	.+0      	; 0x2692 <str_ControlDev+0x8>
    2692:	00 d0       	rcall	.+0      	; 0x2694 <str_ControlDev+0xa>
    2694:	cd b7       	in	r28, 0x3d	; 61
    2696:	de b7       	in	r29, 0x3e	; 62
    2698:	49 83       	std	Y+1, r20	; 0x01
    269a:	5a 83       	std	Y+2, r21	; 0x02
    269c:	26 2f       	mov	r18, r22
    269e:	6b 83       	std	Y+3, r22	; 0x03
    26a0:	7c 83       	std	Y+4, r23	; 0x04
    26a2:	8d 83       	std	Y+5, r24	; 0x05
    26a4:	9e 83       	std	Y+6, r25	; 0x06
		dc.tv3, dc.sv1, dc.pump, 
		dc.sv1t, dc.fan,  
		dc.fs, dc.ps1, dc.ps2);


	if (dc.tv1)	TWVALVE1_ON();
    26a6:	63 ff       	sbrs	r22, 3
    26a8:	02 c0       	rjmp	.+4      	; 0x26ae <str_ControlDev+0x24>
    26aa:	df 9a       	sbi	0x1b, 7	; 27
    26ac:	01 c0       	rjmp	.+2      	; 0x26b0 <str_ControlDev+0x26>
	else		TWVALVE1_OFF();
    26ae:	df 98       	cbi	0x1b, 7	; 27

	if (dc.tv2)	TWVALVE2_ON();
    26b0:	24 ff       	sbrs	r18, 4
    26b2:	02 c0       	rjmp	.+4      	; 0x26b8 <str_ControlDev+0x2e>
    26b4:	de 9a       	sbi	0x1b, 6	; 27
    26b6:	01 c0       	rjmp	.+2      	; 0x26ba <str_ControlDev+0x30>
	else		TWVALVE2_OFF();
    26b8:	de 98       	cbi	0x1b, 6	; 27

	if (dc.tv3)	TWVALVE3_ON();
    26ba:	25 ff       	sbrs	r18, 5
    26bc:	02 c0       	rjmp	.+4      	; 0x26c2 <str_ControlDev+0x38>
    26be:	dd 9a       	sbi	0x1b, 5	; 27
    26c0:	01 c0       	rjmp	.+2      	; 0x26c4 <str_ControlDev+0x3a>
	else		TWVALVE3_OFF();
    26c2:	dd 98       	cbi	0x1b, 5	; 27
//	else		TWVALVE4_OFF();

//	if (dc.tv5)	TWVALVE5_ON();
//	else		TWVALVE5_OFF();

	if (dc.sv1)	SVALVE1_ON();
    26c4:	26 ff       	sbrs	r18, 6
    26c6:	02 c0       	rjmp	.+4      	; 0x26cc <str_ControlDev+0x42>
    26c8:	dc 9a       	sbi	0x1b, 4	; 27
    26ca:	01 c0       	rjmp	.+2      	; 0x26ce <str_ControlDev+0x44>
	else		SVALVE1_OFF();
    26cc:	dc 98       	cbi	0x1b, 4	; 27

	if (dc.sv2)	SVALVE2_ON();
    26ce:	20 ff       	sbrs	r18, 0
    26d0:	02 c0       	rjmp	.+4      	; 0x26d6 <str_ControlDev+0x4c>
    26d2:	96 9a       	sbi	0x12, 6	; 18
    26d4:	01 c0       	rjmp	.+2      	; 0x26d8 <str_ControlDev+0x4e>
	else		SVALVE2_OFF();
    26d6:	96 98       	cbi	0x12, 6	; 18

	if (dc.sv3)	SVALVE3_ON();
    26d8:	21 ff       	sbrs	r18, 1
    26da:	02 c0       	rjmp	.+4      	; 0x26e0 <str_ControlDev+0x56>
    26dc:	97 9a       	sbi	0x12, 7	; 18
    26de:	01 c0       	rjmp	.+2      	; 0x26e2 <str_ControlDev+0x58>
	else		SVALVE3_OFF();
    26e0:	97 98       	cbi	0x12, 7	; 18

	if (dc.pump)	PUMP_ON();
    26e2:	27 ff       	sbrs	r18, 7
    26e4:	02 c0       	rjmp	.+4      	; 0x26ea <str_ControlDev+0x60>
    26e6:	1d 9a       	sbi	0x03, 5	; 3
    26e8:	01 c0       	rjmp	.+2      	; 0x26ec <str_ControlDev+0x62>
	else			PUMP_OFF();
    26ea:	1d 98       	cbi	0x03, 5	; 3

	if (dc.fan)		FAN_ON();
    26ec:	8c 81       	ldd	r24, Y+4	; 0x04
    26ee:	81 ff       	sbrs	r24, 1
    26f0:	02 c0       	rjmp	.+4      	; 0x26f6 <str_ControlDev+0x6c>
    26f2:	1e 9a       	sbi	0x03, 6	; 3
    26f4:	01 c0       	rjmp	.+2      	; 0x26f8 <str_ControlDev+0x6e>
	else			FAN_OFF();
    26f6:	1e 98       	cbi	0x03, 6	; 3

	if (dc.hv)		HV_ON();
    26f8:	22 ff       	sbrs	r18, 2
    26fa:	04 c0       	rjmp	.+8      	; 0x2704 <str_ControlDev+0x7a>
    26fc:	80 91 62 00 	lds	r24, 0x0062
    2700:	80 68       	ori	r24, 0x80	; 128
    2702:	03 c0       	rjmp	.+6      	; 0x270a <str_ControlDev+0x80>
	else			HV_OFF();
    2704:	80 91 62 00 	lds	r24, 0x0062
    2708:	8f 77       	andi	r24, 0x7F	; 127
    270a:	80 93 62 00 	sts	0x0062, r24

	// copy current control to check.
	// note) used at stopping procedure.
	currentCtrl = dc;
    270e:	a7 e1       	ldi	r26, 0x17	; 23
    2710:	b8 e0       	ldi	r27, 0x08	; 8
    2712:	fe 01       	movw	r30, r28
    2714:	31 96       	adiw	r30, 0x01	; 1
    2716:	86 e0       	ldi	r24, 0x06	; 6
    2718:	01 90       	ld	r0, Z+
    271a:	0d 92       	st	X+, r0
    271c:	81 50       	subi	r24, 0x01	; 1
    271e:	e1 f7       	brne	.-8      	; 0x2718 <str_ControlDev+0x8e>

	return 0;
}
    2720:	80 e0       	ldi	r24, 0x00	; 0
    2722:	90 e0       	ldi	r25, 0x00	; 0
    2724:	26 96       	adiw	r28, 0x06	; 6
    2726:	0f b6       	in	r0, 0x3f	; 63
    2728:	f8 94       	cli
    272a:	de bf       	out	0x3e, r29	; 62
    272c:	0f be       	out	0x3f, r0	; 63
    272e:	cd bf       	out	0x3d, r28	; 61
    2730:	cf 91       	pop	r28
    2732:	df 91       	pop	r29
    2734:	08 95       	ret

00002736 <str_init>:
	note) HW_REV03 only, 2016/06/14.
*/
int str_init()
{
	// PA7,6,5,4,3 - 3WAY Valve 1,2,3,4,5
	DDRA |= 0xF8;		// high active
    2736:	8a b3       	in	r24, 0x1a	; 26
    2738:	88 6f       	ori	r24, 0xF8	; 248
    273a:	8a bb       	out	0x1a, r24	; 26

	// PE5 - TUBE_PUMP	- high active
	// PE6 - FAN_MOTOR	- high active
	// PE7 - RUN_LED	- low active
	DDRE |= 0xE0;
    273c:	82 b1       	in	r24, 0x02	; 2
    273e:	80 6e       	ori	r24, 0xE0	; 224
    2740:	82 b9       	out	0x02, r24	; 2

	// PD1 - FLOW INPUT

	// PD5,6,7 - SOL 1,2,3
	DDRD |= 0xE0;		// high active
    2742:	81 b3       	in	r24, 0x11	; 17
    2744:	80 6e       	ori	r24, 0xE0	; 224
    2746:	81 bb       	out	0x11, r24	; 17
	// PD5,6,7 - SOL 1,2,3; high active
	// PD4 - ERROR_LED
	// PD0 - STOP_LED
	DDRD |= 0xF1;
    2748:	81 b3       	in	r24, 0x11	; 17
    274a:	81 6f       	ori	r24, 0xF1	; 241
    274c:	81 bb       	out	0x11, r24	; 17

	// PF0,1,2 - TEMP 1,2,3

	// Plasma sensor : PC6.
	//PORTC |= 0x40;		// internal pull-up. 20170220 -> cancel. don't pull-up.
	DDRC &=~0x40;
    274e:	a6 98       	cbi	0x14, 6	; 20

	// PF4,5 - TIME_SDA,SDL => DS1307.

	// PF7 - HV: H.P.G_CNT
	DDRF |= 0x80;
    2750:	e1 e6       	ldi	r30, 0x61	; 97
    2752:	f0 e0       	ldi	r31, 0x00	; 0
    2754:	80 81       	ld	r24, Z
    2756:	80 68       	ori	r24, 0x80	; 128
    2758:	80 83       	st	Z, r24

	// PG0 - buzz
	PORTG |= 0x01;	// buzz off.
    275a:	e5 e6       	ldi	r30, 0x65	; 101
    275c:	f0 e0       	ldi	r31, 0x00	; 0
    275e:	80 81       	ld	r24, Z
    2760:	81 60       	ori	r24, 0x01	; 1
    2762:	80 83       	st	Z, r24
	DDRG |= 0x01;
    2764:	e4 e6       	ldi	r30, 0x64	; 100
    2766:	f0 e0       	ldi	r31, 0x00	; 0
    2768:	80 81       	ld	r24, Z
    276a:	81 60       	ori	r24, 0x01	; 1
    276c:	80 83       	st	Z, r24
	// PG1,3 - input. water-in, door-input.

	// adc init. for PF0,1,2.
	//ADCSRA	= 0x87;// ADEN(7)	// only enable:, ADSC(6), ADFR(5).

	RUN_LED_OFF();
    276e:	1f 9a       	sbi	0x03, 7	; 3
	STOP_LED_OFF();
    2770:	90 9a       	sbi	0x12, 0	; 18
	ERROR_LED_OFF();
    2772:	94 9a       	sbi	0x12, 4	; 18

	tid_t1 = timer_alloc();		// process general timer
    2774:	0e 94 10 08 	call	0x1020	; 0x1020 <timer_alloc>
    2778:	90 93 16 08 	sts	0x0816, r25
    277c:	80 93 15 08 	sts	0x0815, r24

	tid_buzz = timer_alloc();
    2780:	0e 94 10 08 	call	0x1020	; 0x1020 <timer_alloc>
    2784:	90 93 32 08 	sts	0x0832, r25
    2788:	80 93 31 08 	sts	0x0831, r24
	timer_set(tid_buzz, 1000);
    278c:	48 ee       	ldi	r20, 0xE8	; 232
    278e:	53 e0       	ldi	r21, 0x03	; 3
    2790:	60 e0       	ldi	r22, 0x00	; 0
    2792:	70 e0       	ldi	r23, 0x00	; 0
    2794:	0e 94 3e 08 	call	0x107c	; 0x107c <timer_set>
	tid_bto = timer_alloc();
    2798:	0e 94 10 08 	call	0x1020	; 0x1020 <timer_alloc>
    279c:	90 93 2e 08 	sts	0x082E, r25
    27a0:	80 93 2d 08 	sts	0x082D, r24

	tid_ct = timer_alloc();			// engine control timer
    27a4:	0e 94 10 08 	call	0x1020	; 0x1020 <timer_alloc>
    27a8:	90 93 30 08 	sts	0x0830, r25
    27ac:	80 93 2f 08 	sts	0x082F, r24
	tid_s1ct = timer_alloc();		// engine control timer for sv1 toggle
    27b0:	0e 94 10 08 	call	0x1020	; 0x1020 <timer_alloc>
    27b4:	90 93 3a 08 	sts	0x083A, r25
    27b8:	80 93 39 08 	sts	0x0839, r24
	tid_op = timer_alloc();			// engine timer <- flow sensor check
    27bc:	0e 94 10 08 	call	0x1020	; 0x1020 <timer_alloc>
    27c0:	90 93 3c 08 	sts	0x083C, r25
    27c4:	80 93 3b 08 	sts	0x083B, r24
	tid_chk = timer_alloc();		// sensor check
    27c8:	0e 94 10 08 	call	0x1020	; 0x1020 <timer_alloc>
    27cc:	90 93 42 08 	sts	0x0842, r25
    27d0:	80 93 41 08 	sts	0x0841, r24

	timer_set(tid_op, 1000);
    27d4:	80 91 3b 08 	lds	r24, 0x083B
    27d8:	90 91 3c 08 	lds	r25, 0x083C
    27dc:	48 ee       	ldi	r20, 0xE8	; 232
    27de:	53 e0       	ldi	r21, 0x03	; 3
    27e0:	60 e0       	ldi	r22, 0x00	; 0
    27e2:	70 e0       	ldi	r23, 0x00	; 0
    27e4:	0e 94 3e 08 	call	0x107c	; 0x107c <timer_set>
	timer_set(tid_chk, 100);
    27e8:	80 91 41 08 	lds	r24, 0x0841
    27ec:	90 91 42 08 	lds	r25, 0x0842
    27f0:	44 e6       	ldi	r20, 0x64	; 100
    27f2:	50 e0       	ldi	r21, 0x00	; 0
    27f4:	60 e0       	ldi	r22, 0x00	; 0
    27f6:	70 e0       	ldi	r23, 0x00	; 0
    27f8:	0e 94 3e 08 	call	0x107c	; 0x107c <timer_set>


	currentCtrl.ps1 = 0;
    27fc:	80 91 1a 08 	lds	r24, 0x081A
	currentCtrl.ps2 = 0;
	currentCtrl.fs = 0;
    2800:	83 7c       	andi	r24, 0xC3	; 195
    2802:	80 93 1a 08 	sts	0x081A, r24

	// after warming up, check wls and temp sensor.
	strState = ST_NONE;
    2806:	10 92 14 08 	sts	0x0814, r1
    280a:	10 92 13 08 	sts	0x0813, r1
	timer_set(tid_t1, INIT_DELAY);	// 3 sec delay
    280e:	80 91 15 08 	lds	r24, 0x0815
    2812:	90 91 16 08 	lds	r25, 0x0816
    2816:	44 ef       	ldi	r20, 0xF4	; 244
    2818:	51 e0       	ldi	r21, 0x01	; 1
    281a:	60 e0       	ldi	r22, 0x00	; 0
    281c:	70 e0       	ldi	r23, 0x00	; 0
    281e:	0e 94 3e 08 	call	0x107c	; 0x107c <timer_set>

	return 0;
}
    2822:	80 e0       	ldi	r24, 0x00	; 0
    2824:	90 e0       	ldi	r25, 0x00	; 0
    2826:	08 95       	ret

00002828 <str_goReady>:

	note) test only
*/
int str_goReady()
{
	if (strState == ST_NONE)
    2828:	80 91 13 08 	lds	r24, 0x0813
    282c:	90 91 14 08 	lds	r25, 0x0814
    2830:	00 97       	sbiw	r24, 0x00	; 0
    2832:	69 f4       	brne	.+26     	; 0x284e <str_goReady+0x26>
	{
		strState = ST_READY;
    2834:	83 e0       	ldi	r24, 0x03	; 3
    2836:	90 e0       	ldi	r25, 0x00	; 0
    2838:	90 93 14 08 	sts	0x0814, r25
    283c:	80 93 13 08 	sts	0x0813, r24
		isTestCompleted = 1;
    2840:	81 e0       	ldi	r24, 0x01	; 1
    2842:	90 e0       	ldi	r25, 0x00	; 0
    2844:	90 93 22 08 	sts	0x0822, r25
    2848:	80 93 21 08 	sts	0x0821, r24
    284c:	19 c0       	rjmp	.+50     	; 0x2880 <str_goReady+0x58>
	}
	else if (strState == ST_COMPLETE)
    284e:	8b 30       	cpi	r24, 0x0B	; 11
    2850:	91 05       	cpc	r25, r1
    2852:	b1 f4       	brne	.+44     	; 0x2880 <str_goReady+0x58>
	{
		strState = ST_READY;
    2854:	83 e0       	ldi	r24, 0x03	; 3
    2856:	90 e0       	ldi	r25, 0x00	; 0
    2858:	90 93 14 08 	sts	0x0814, r25
    285c:	80 93 13 08 	sts	0x0813, r24
		isTestCompleted = 1;
    2860:	81 e0       	ldi	r24, 0x01	; 1
    2862:	90 e0       	ldi	r25, 0x00	; 0
    2864:	90 93 22 08 	sts	0x0822, r25
    2868:	80 93 21 08 	sts	0x0821, r24

		// stopping buzz.
		buzzProfile = 0;
    286c:	10 92 0e 08 	sts	0x080E, r1
    2870:	10 92 0f 08 	sts	0x080F, r1
    2874:	10 92 10 08 	sts	0x0810, r1
    2878:	10 92 11 08 	sts	0x0811, r1
		buzzIndex = 0;
    287c:	10 92 12 08 	sts	0x0812, r1
	}
	return 0;
}
    2880:	80 e0       	ldi	r24, 0x00	; 0
    2882:	90 e0       	ldi	r25, 0x00	; 0
    2884:	08 95       	ret

00002886 <str_reset>:
*/
int str_reset()
{
	// error,
	if ( (strState == ST_COMPLETE)
		|| (strState == ST_ERROR) )
    2886:	80 91 13 08 	lds	r24, 0x0813
    288a:	90 91 14 08 	lds	r25, 0x0814
    288e:	0b 97       	sbiw	r24, 0x0b	; 11
	note) only valid when COMPLETE, STOPPED, ERROR
*/
int str_reset()
{
	// error,
	if ( (strState == ST_COMPLETE)
    2890:	82 30       	cpi	r24, 0x02	; 2
    2892:	91 05       	cpc	r25, r1
    2894:	80 f5       	brcc	.+96     	; 0x28f6 <str_reset+0x70>
		|| (strState == ST_ERROR) )
	{
		// clear error code
		errorCode = 0;
    2896:	10 92 20 08 	sts	0x0820, r1
    289a:	10 92 1f 08 	sts	0x081F, r1

		prevTotalSeonds = 0;
    289e:	10 92 26 08 	sts	0x0826, r1
    28a2:	10 92 25 08 	sts	0x0825, r1
		totalRunSeconds = 0;
    28a6:	10 92 24 08 	sts	0x0824, r1
    28aa:	10 92 23 08 	sts	0x0823, r1

		runInfo.runDate.year = 0;
    28ae:	10 92 94 0c 	sts	0x0C94, r1

		ste_reset();		// dummy, engine must be stopped already.
    28b2:	0e 94 0b 12 	call	0x2416	; 0x2416 <ste_reset>

		currentCtrl.wls = 1;
    28b6:	80 91 1a 08 	lds	r24, 0x081A
		currentCtrl.ts = 1;
    28ba:	80 6c       	ori	r24, 0xC0	; 192
    28bc:	80 93 1a 08 	sts	0x081A, r24
		timer_set(tid_t1, 10000UL);		// check tempearture again...
    28c0:	80 91 15 08 	lds	r24, 0x0815
    28c4:	90 91 16 08 	lds	r25, 0x0816
    28c8:	40 e1       	ldi	r20, 0x10	; 16
    28ca:	57 e2       	ldi	r21, 0x27	; 39
    28cc:	60 e0       	ldi	r22, 0x00	; 0
    28ce:	70 e0       	ldi	r23, 0x00	; 0
    28d0:	0e 94 3e 08 	call	0x107c	; 0x107c <timer_set>
		
		// clear buzzer.
		buzzProfile = 0;		// buzz none.
    28d4:	10 92 0e 08 	sts	0x080E, r1
    28d8:	10 92 0f 08 	sts	0x080F, r1
    28dc:	10 92 10 08 	sts	0x0810, r1
    28e0:	10 92 11 08 	sts	0x0811, r1
		buzzIndex = 0;
    28e4:	10 92 12 08 	sts	0x0812, r1

		strState = ST_NONE;
    28e8:	10 92 14 08 	sts	0x0814, r1
    28ec:	10 92 13 08 	sts	0x0813, r1

		return 0;
    28f0:	20 e0       	ldi	r18, 0x00	; 0
    28f2:	30 e0       	ldi	r19, 0x00	; 0
    28f4:	02 c0       	rjmp	.+4      	; 0x28fa <str_reset+0x74>
	}
	else
	{
		return -1;			// invalid call.
    28f6:	2f ef       	ldi	r18, 0xFF	; 255
    28f8:	3f ef       	ldi	r19, 0xFF	; 255
	}
}
    28fa:	c9 01       	movw	r24, r18
    28fc:	08 95       	ret

000028fe <str_startSelfTest>:
	Start self test

	note) At READY state, for test only.
*/
int str_startSelfTest()
{
    28fe:	df 93       	push	r29
    2900:	cf 93       	push	r28
    2902:	cd b7       	in	r28, 0x3d	; 61
    2904:	de b7       	in	r29, 0x3e	; 62
    2906:	27 97       	sbiw	r28, 0x07	; 7
    2908:	0f b6       	in	r0, 0x3f	; 63
    290a:	f8 94       	cli
    290c:	de bf       	out	0x3e, r29	; 62
    290e:	0f be       	out	0x3f, r0	; 63
    2910:	cd bf       	out	0x3d, r28	; 61
	if ( (strState == ST_NONE)
    2912:	80 91 13 08 	lds	r24, 0x0813
    2916:	90 91 14 08 	lds	r25, 0x0814
    291a:	00 97       	sbiw	r24, 0x00	; 0
    291c:	21 f0       	breq	.+8      	; 0x2926 <str_startSelfTest+0x28>
		|| (strState == ST_READY) )
    291e:	83 30       	cpi	r24, 0x03	; 3
    2920:	91 05       	cpc	r25, r1
    2922:	09 f0       	breq	.+2      	; 0x2926 <str_startSelfTest+0x28>
    2924:	59 c0       	rjmp	.+178    	; 0x29d8 <str_startSelfTest+0xda>
	{
		if (isDoorOpen())
    2926:	80 91 4d 08 	lds	r24, 0x084D
    292a:	88 23       	and	r24, r24
    292c:	09 f0       	breq	.+2      	; 0x2930 <str_startSelfTest+0x32>
    292e:	57 c0       	rjmp	.+174    	; 0x29de <str_startSelfTest+0xe0>
		{
			return -1;			// error cannot start.
		}

		// initiate self-test.
		if (ste_start(&selfTestProc) == 0)
    2930:	8c e3       	ldi	r24, 0x3C	; 60
    2932:	96 e0       	ldi	r25, 0x06	; 6
    2934:	0e 94 1a 12 	call	0x2434	; 0x2434 <ste_start>
    2938:	00 97       	sbiw	r24, 0x00	; 0
    293a:	09 f0       	breq	.+2      	; 0x293e <str_startSelfTest+0x40>
    293c:	50 c0       	rjmp	.+160    	; 0x29de <str_startSelfTest+0xe0>
		{
			//DPRINTF("engine start ok\n");
			strState = ST_STRUN;
    293e:	84 e0       	ldi	r24, 0x04	; 4
    2940:	90 e0       	ldi	r25, 0x00	; 0
    2942:	90 93 14 08 	sts	0x0814, r25
    2946:	80 93 13 08 	sts	0x0813, r24

			configMode = MODE_SELF_TEST;
    294a:	81 e0       	ldi	r24, 0x01	; 1
    294c:	90 e0       	ldi	r25, 0x00	; 0
    294e:	90 93 51 07 	sts	0x0751, r25
    2952:	80 93 50 07 	sts	0x0750, r24
			configCycle = 1;
    2956:	90 93 4d 07 	sts	0x074D, r25
    295a:	80 93 4c 07 	sts	0x074C, r24

			totalRunSeconds = 0;		// reset run seconds.
    295e:	10 92 24 08 	sts	0x0824, r1
    2962:	10 92 23 08 	sts	0x0823, r1
			prevTotalSeonds = 0;
    2966:	10 92 26 08 	sts	0x0826, r1
    296a:	10 92 25 08 	sts	0x0825, r1

			runInfo.mode = MODE_SELF_TEST;
    296e:	81 e0       	ldi	r24, 0x01	; 1
    2970:	80 93 92 0c 	sts	0x0C92, r24
			runInfo.runCycles = 0;
    2974:	10 92 93 0c 	sts	0x0C93, r1

			runInfo.firstStepSecs = 0;
    2978:	10 92 9b 0c 	sts	0x0C9B, r1
    297c:	10 92 9a 0c 	sts	0x0C9A, r1
			runInfo.secondStepSecs = 0;
    2980:	10 92 9d 0c 	sts	0x0C9D, r1
    2984:	10 92 9c 0c 	sts	0x0C9C, r1
			runInfo.finishStepSecs = 0;
    2988:	10 92 9f 0c 	sts	0x0C9F, r1
    298c:	10 92 9e 0c 	sts	0x0C9E, r1
			runInfo.totalSeconds = 0;
    2990:	10 92 a1 0c 	sts	0x0CA1, r1
    2994:	10 92 a0 0c 	sts	0x0CA0, r1

			DS1307_date ddate;
			ds1307_read_date(&ddate);
    2998:	ce 01       	movw	r24, r28
    299a:	04 96       	adiw	r24, 0x04	; 4
    299c:	0e 94 27 0c 	call	0x184e	; 0x184e <ds1307_read_date>
			runInfo.runDate.year	 = ddate.year;
    29a0:	8c 81       	ldd	r24, Y+4	; 0x04
    29a2:	80 93 94 0c 	sts	0x0C94, r24
			runInfo.runDate.month 	 = ddate.month;
    29a6:	8d 81       	ldd	r24, Y+5	; 0x05
    29a8:	80 93 95 0c 	sts	0x0C95, r24
			runInfo.runDate.date	 = ddate.day;
    29ac:	8e 81       	ldd	r24, Y+6	; 0x06
    29ae:	80 93 96 0c 	sts	0x0C96, r24

			DS1307_time dtime;
			ds1307_read_time(&dtime);
    29b2:	ce 01       	movw	r24, r28
    29b4:	01 96       	adiw	r24, 0x01	; 1
    29b6:	0e 94 0d 0c 	call	0x181a	; 0x181a <ds1307_read_time>
			runInfo.startTime.hour	 = dtime.hour;
    29ba:	89 81       	ldd	r24, Y+1	; 0x01
    29bc:	80 93 97 0c 	sts	0x0C97, r24
			runInfo.startTime.minute = dtime.minute;
    29c0:	8a 81       	ldd	r24, Y+2	; 0x02
    29c2:	80 93 98 0c 	sts	0x0C98, r24
			runInfo.startTime.second = dtime.second;
    29c6:	8b 81       	ldd	r24, Y+3	; 0x03
    29c8:	80 93 99 0c 	sts	0x0C99, r24

			runInfo.errorCode = 0;
    29cc:	10 92 a5 0c 	sts	0x0CA5, r1

			DLOCK_ON();
    29d0:	db 9a       	sbi	0x1b, 3	; 27
	}
	else
	{
		return -2;
	}
	return 0;
    29d2:	20 e0       	ldi	r18, 0x00	; 0
    29d4:	30 e0       	ldi	r19, 0x00	; 0
    29d6:	05 c0       	rjmp	.+10     	; 0x29e2 <str_startSelfTest+0xe4>
			return -1;
		}
	}
	else
	{
		return -2;
    29d8:	2e ef       	ldi	r18, 0xFE	; 254
    29da:	3f ef       	ldi	r19, 0xFF	; 255
    29dc:	02 c0       	rjmp	.+4      	; 0x29e2 <str_startSelfTest+0xe4>
			DLOCK_ON();
		}
		else
		{
			DPRINTF("ste_start error\n");
			return -1;
    29de:	2f ef       	ldi	r18, 0xFF	; 255
    29e0:	3f ef       	ldi	r19, 0xFF	; 255
	else
	{
		return -2;
	}
	return 0;
}
    29e2:	c9 01       	movw	r24, r18
    29e4:	27 96       	adiw	r28, 0x07	; 7
    29e6:	0f b6       	in	r0, 0x3f	; 63
    29e8:	f8 94       	cli
    29ea:	de bf       	out	0x3e, r29	; 62
    29ec:	0f be       	out	0x3f, r0	; 63
    29ee:	cd bf       	out	0x3d, r28	; 61
    29f0:	cf 91       	pop	r28
    29f2:	df 91       	pop	r29
    29f4:	08 95       	ret

000029f6 <str_startDrying>:

/**
	Start finishing/drying mode only
*/
int str_startDrying()
{
    29f6:	df 93       	push	r29
    29f8:	cf 93       	push	r28
    29fa:	cd b7       	in	r28, 0x3d	; 61
    29fc:	de b7       	in	r29, 0x3e	; 62
    29fe:	27 97       	sbiw	r28, 0x07	; 7
    2a00:	0f b6       	in	r0, 0x3f	; 63
    2a02:	f8 94       	cli
    2a04:	de bf       	out	0x3e, r29	; 62
    2a06:	0f be       	out	0x3f, r0	; 63
    2a08:	cd bf       	out	0x3d, r28	; 61
	if ( (strState == ST_NONE)
    2a0a:	80 91 13 08 	lds	r24, 0x0813
    2a0e:	90 91 14 08 	lds	r25, 0x0814
    2a12:	00 97       	sbiw	r24, 0x00	; 0
    2a14:	21 f0       	breq	.+8      	; 0x2a1e <str_startDrying+0x28>
		|| (strState == ST_READY) )
    2a16:	83 30       	cpi	r24, 0x03	; 3
    2a18:	91 05       	cpc	r25, r1
    2a1a:	09 f0       	breq	.+2      	; 0x2a1e <str_startDrying+0x28>
    2a1c:	5c c0       	rjmp	.+184    	; 0x2ad6 <str_startDrying+0xe0>
	{
		if (isDoorOpen())
    2a1e:	80 91 4d 08 	lds	r24, 0x084D
    2a22:	88 23       	and	r24, r24
    2a24:	09 f0       	breq	.+2      	; 0x2a28 <str_startDrying+0x32>
    2a26:	5a c0       	rjmp	.+180    	; 0x2adc <str_startDrying+0xe6>
		{
			return -1;			// error cannot start.
		}

		// initiate finishing mode
		if (ste_start(&dryingProc) == 0)
    2a28:	80 ed       	ldi	r24, 0xD0	; 208
    2a2a:	96 e0       	ldi	r25, 0x06	; 6
    2a2c:	0e 94 1a 12 	call	0x2434	; 0x2434 <ste_start>
    2a30:	00 97       	sbiw	r24, 0x00	; 0
    2a32:	09 f0       	breq	.+2      	; 0x2a36 <str_startDrying+0x40>
    2a34:	53 c0       	rjmp	.+166    	; 0x2adc <str_startDrying+0xe6>
		{
			//DPRINTF("engine start ok\n");
			strState = ST_SDRYING;
    2a36:	85 e0       	ldi	r24, 0x05	; 5
    2a38:	90 e0       	ldi	r25, 0x00	; 0
    2a3a:	90 93 14 08 	sts	0x0814, r25
    2a3e:	80 93 13 08 	sts	0x0813, r24

			configMode = MODE_DRYING;
    2a42:	83 e0       	ldi	r24, 0x03	; 3
    2a44:	90 e0       	ldi	r25, 0x00	; 0
    2a46:	90 93 51 07 	sts	0x0751, r25
    2a4a:	80 93 50 07 	sts	0x0750, r24
			configCycle = 1;
    2a4e:	81 e0       	ldi	r24, 0x01	; 1
    2a50:	90 e0       	ldi	r25, 0x00	; 0
    2a52:	90 93 4d 07 	sts	0x074D, r25
    2a56:	80 93 4c 07 	sts	0x074C, r24

			totalRunSeconds = 0;		// reset run seconds.
    2a5a:	10 92 24 08 	sts	0x0824, r1
    2a5e:	10 92 23 08 	sts	0x0823, r1
			prevTotalSeonds = 0;
    2a62:	10 92 26 08 	sts	0x0826, r1
    2a66:	10 92 25 08 	sts	0x0825, r1

			runInfo.mode = MODE_DRYING;		// finishing
    2a6a:	83 e0       	ldi	r24, 0x03	; 3
    2a6c:	80 93 92 0c 	sts	0x0C92, r24
			runInfo.runCycles = 1;
    2a70:	81 e0       	ldi	r24, 0x01	; 1
    2a72:	80 93 93 0c 	sts	0x0C93, r24

			runInfo.firstStepSecs = 0;
    2a76:	10 92 9b 0c 	sts	0x0C9B, r1
    2a7a:	10 92 9a 0c 	sts	0x0C9A, r1
			runInfo.secondStepSecs = 0;
    2a7e:	10 92 9d 0c 	sts	0x0C9D, r1
    2a82:	10 92 9c 0c 	sts	0x0C9C, r1
			runInfo.finishStepSecs = 0;
    2a86:	10 92 9f 0c 	sts	0x0C9F, r1
    2a8a:	10 92 9e 0c 	sts	0x0C9E, r1
			runInfo.totalSeconds = 0;
    2a8e:	10 92 a1 0c 	sts	0x0CA1, r1
    2a92:	10 92 a0 0c 	sts	0x0CA0, r1

			DS1307_date ddate;
			ds1307_read_date(&ddate);
    2a96:	ce 01       	movw	r24, r28
    2a98:	04 96       	adiw	r24, 0x04	; 4
    2a9a:	0e 94 27 0c 	call	0x184e	; 0x184e <ds1307_read_date>
			runInfo.runDate.year	 = ddate.year;
    2a9e:	8c 81       	ldd	r24, Y+4	; 0x04
    2aa0:	80 93 94 0c 	sts	0x0C94, r24
			runInfo.runDate.month 	 = ddate.month;
    2aa4:	8d 81       	ldd	r24, Y+5	; 0x05
    2aa6:	80 93 95 0c 	sts	0x0C95, r24
			runInfo.runDate.date	 = ddate.day;
    2aaa:	8e 81       	ldd	r24, Y+6	; 0x06
    2aac:	80 93 96 0c 	sts	0x0C96, r24

			DS1307_time dtime;
			ds1307_read_time(&dtime);
    2ab0:	ce 01       	movw	r24, r28
    2ab2:	01 96       	adiw	r24, 0x01	; 1
    2ab4:	0e 94 0d 0c 	call	0x181a	; 0x181a <ds1307_read_time>
			runInfo.startTime.hour	 = dtime.hour;
    2ab8:	89 81       	ldd	r24, Y+1	; 0x01
    2aba:	80 93 97 0c 	sts	0x0C97, r24
			runInfo.startTime.minute = dtime.minute;
    2abe:	8a 81       	ldd	r24, Y+2	; 0x02
    2ac0:	80 93 98 0c 	sts	0x0C98, r24
			runInfo.startTime.second = dtime.second;
    2ac4:	8b 81       	ldd	r24, Y+3	; 0x03
    2ac6:	80 93 99 0c 	sts	0x0C99, r24

			runInfo.errorCode = 0;
    2aca:	10 92 a5 0c 	sts	0x0CA5, r1

			DLOCK_ON();
    2ace:	db 9a       	sbi	0x1b, 3	; 27
	}
	else
	{
		return -2;
	}
	return 0;
    2ad0:	20 e0       	ldi	r18, 0x00	; 0
    2ad2:	30 e0       	ldi	r19, 0x00	; 0
    2ad4:	05 c0       	rjmp	.+10     	; 0x2ae0 <str_startDrying+0xea>
			return -1;
		}
	}
	else
	{
		return -2;
    2ad6:	2e ef       	ldi	r18, 0xFE	; 254
    2ad8:	3f ef       	ldi	r19, 0xFF	; 255
    2ada:	02 c0       	rjmp	.+4      	; 0x2ae0 <str_startDrying+0xea>
			DLOCK_ON();
		}
		else
		{
			DPRINTF("ste_start error\n");
			return -1;
    2adc:	2f ef       	ldi	r18, 0xFF	; 255
    2ade:	3f ef       	ldi	r19, 0xFF	; 255
	else
	{
		return -2;
	}
	return 0;
}
    2ae0:	c9 01       	movw	r24, r18
    2ae2:	27 96       	adiw	r28, 0x07	; 7
    2ae4:	0f b6       	in	r0, 0x3f	; 63
    2ae6:	f8 94       	cli
    2ae8:	de bf       	out	0x3e, r29	; 62
    2aea:	0f be       	out	0x3f, r0	; 63
    2aec:	cd bf       	out	0x3d, r28	; 61
    2aee:	cf 91       	pop	r28
    2af0:	df 91       	pop	r29
    2af2:	08 95       	ret

00002af4 <str_startPTesting>:

/**
	Start pressure test mode
*/
int str_startPTesting()
{
    2af4:	cf 93       	push	r28
    2af6:	df 93       	push	r29
	if ( (strState == ST_NONE)
    2af8:	80 91 13 08 	lds	r24, 0x0813
    2afc:	90 91 14 08 	lds	r25, 0x0814
    2b00:	84 30       	cpi	r24, 0x04	; 4
    2b02:	91 05       	cpc	r25, r1
    2b04:	60 f5       	brcc	.+88     	; 0x2b5e <str_startPTesting+0x6a>
		|| (strState == ST_WARMUP)
		|| (strState == ST_CHECKING)
		|| (strState == ST_READY) )
	{
		configMode = MODE_PTESTING;
    2b06:	84 e0       	ldi	r24, 0x04	; 4
    2b08:	90 e0       	ldi	r25, 0x00	; 0
    2b0a:	90 93 51 07 	sts	0x0751, r25
    2b0e:	80 93 50 07 	sts	0x0750, r24
		configCycle = 1;
    2b12:	c1 e0       	ldi	r28, 0x01	; 1
    2b14:	d0 e0       	ldi	r29, 0x00	; 0
    2b16:	d0 93 4d 07 	sts	0x074D, r29
    2b1a:	c0 93 4c 07 	sts	0x074C, r28

		str_ControlDev(pTestControl);
    2b1e:	40 91 40 07 	lds	r20, 0x0740
    2b22:	50 91 41 07 	lds	r21, 0x0741
    2b26:	60 91 42 07 	lds	r22, 0x0742
    2b2a:	70 91 43 07 	lds	r23, 0x0743
    2b2e:	80 91 44 07 	lds	r24, 0x0744
    2b32:	90 91 45 07 	lds	r25, 0x0745
    2b36:	0e 94 45 13 	call	0x268a	; 0x268a <str_ControlDev>

		pTestFlag = 1;
    2b3a:	d0 93 3e 08 	sts	0x083E, r29
    2b3e:	c0 93 3d 08 	sts	0x083D, r28
		totalRunSeconds = 0;
    2b42:	10 92 24 08 	sts	0x0824, r1
    2b46:	10 92 23 08 	sts	0x0823, r1

		strState = ST_PTESTING;
    2b4a:	86 e0       	ldi	r24, 0x06	; 6
    2b4c:	90 e0       	ldi	r25, 0x00	; 0
    2b4e:	90 93 14 08 	sts	0x0814, r25
    2b52:	80 93 13 08 	sts	0x0813, r24

		DLOCK_OFF();
    2b56:	db 98       	cbi	0x1b, 3	; 27
	}
	else
	{
		return -2;
	}
	return 0;
    2b58:	20 e0       	ldi	r18, 0x00	; 0
    2b5a:	30 e0       	ldi	r19, 0x00	; 0
    2b5c:	02 c0       	rjmp	.+4      	; 0x2b62 <str_startPTesting+0x6e>

		DLOCK_OFF();
	}
	else
	{
		return -2;
    2b5e:	2e ef       	ldi	r18, 0xFE	; 254
    2b60:	3f ef       	ldi	r19, 0xFF	; 255
	}
	return 0;
}
    2b62:	c9 01       	movw	r24, r18
    2b64:	df 91       	pop	r29
    2b66:	cf 91       	pop	r28
    2b68:	08 95       	ret

00002b6a <str_stopPTesting>:
	Stop run
	note) v1.1, 10/17. only for PTESTING.
*/
int str_stopPTesting()
{
	if (strState == ST_PTESTING)
    2b6a:	80 91 13 08 	lds	r24, 0x0813
    2b6e:	90 91 14 08 	lds	r25, 0x0814
    2b72:	86 30       	cpi	r24, 0x06	; 6
    2b74:	91 05       	cpc	r25, r1
    2b76:	d1 f4       	brne	.+52     	; 0x2bac <str_stopPTesting+0x42>
	{
		// clear device state...
		errorCode = ERR_STOP;			//		; stop by user.
    2b78:	80 e1       	ldi	r24, 0x10	; 16
    2b7a:	90 e0       	ldi	r25, 0x00	; 0
    2b7c:	90 93 20 08 	sts	0x0820, r25
    2b80:	80 93 1f 08 	sts	0x081F, r24
		runInfo.errorCode = errorCode;
    2b84:	80 e1       	ldi	r24, 0x10	; 16
    2b86:	80 93 a5 0c 	sts	0x0CA5, r24

		strState = ST_STOPPING;
    2b8a:	8a e0       	ldi	r24, 0x0A	; 10
    2b8c:	90 e0       	ldi	r25, 0x00	; 0
    2b8e:	90 93 14 08 	sts	0x0814, r25
    2b92:	80 93 13 08 	sts	0x0813, r24
		str_event(strState, 0);
    2b96:	60 e0       	ldi	r22, 0x00	; 0
    2b98:	70 e0       	ldi	r23, 0x00	; 0
    2b9a:	0e 94 8d 02 	call	0x51a	; 0x51a <str_event>

		pTestFlag = 0;
    2b9e:	10 92 3e 08 	sts	0x083E, r1
    2ba2:	10 92 3d 08 	sts	0x083D, r1
		return 0;
    2ba6:	20 e0       	ldi	r18, 0x00	; 0
    2ba8:	30 e0       	ldi	r19, 0x00	; 0
    2baa:	02 c0       	rjmp	.+4      	; 0x2bb0 <str_stopPTesting+0x46>
	}
	return -1;
    2bac:	2f ef       	ldi	r18, 0xFF	; 255
    2bae:	3f ef       	ldi	r19, 0xFF	; 255
}
    2bb0:	c9 01       	movw	r24, r18
    2bb2:	08 95       	ret

00002bb4 <str_getState>:
	Get current running state
*/
int str_getState()
{
	return strState;
}
    2bb4:	80 91 13 08 	lds	r24, 0x0813
    2bb8:	90 91 14 08 	lds	r25, 0x0814
    2bbc:	08 95       	ret

00002bbe <str_getConfigMode>:
	Current/Last run mode
*/
int str_getConfigMode()
{
	return configMode;
}
    2bbe:	80 91 50 07 	lds	r24, 0x0750
    2bc2:	90 91 51 07 	lds	r25, 0x0751
    2bc6:	08 95       	ret

00002bc8 <str_getConfigCycle>:
	note) valid after start., default is 2.
*/
int str_getConfigCycle()
{
	return configCycle;
}
    2bc8:	80 91 4c 07 	lds	r24, 0x074C
    2bcc:	90 91 4d 07 	lds	r25, 0x074D
    2bd0:	08 95       	ret

00002bd2 <str_getRunningCycle>:
	1..n
*/
int str_getRunningCycle()
{
	return runCycle;
}
    2bd2:	80 91 27 08 	lds	r24, 0x0827
    2bd6:	90 91 28 08 	lds	r25, 0x0828
    2bda:	08 95       	ret

00002bdc <str_getRunSeconds>:
	60000.
*/
unsigned int str_getRunSeconds()
{
	return totalRunSeconds;
}
    2bdc:	80 91 23 08 	lds	r24, 0x0823
    2be0:	90 91 24 08 	lds	r25, 0x0824
    2be4:	08 95       	ret

00002be6 <str_getErrorCode>:
	note) Error code caused to error-finishing or stop
*/
int str_getErrorCode()
{
	return errorCode;
}
    2be6:	80 91 1f 08 	lds	r24, 0x081F
    2bea:	90 91 20 08 	lds	r25, 0x0820
    2bee:	08 95       	ret

00002bf0 <str_getErrorString>:


	note) max 10 char.
*/
const char *str_getErrorString(int errCode)
{
    2bf0:	fc 01       	movw	r30, r24
    2bf2:	31 97       	sbiw	r30, 0x01	; 1
    2bf4:	e0 31       	cpi	r30, 0x10	; 16
    2bf6:	f1 05       	cpc	r31, r1
    2bf8:	38 f4       	brcc	.+14     	; 0x2c08 <str_getErrorString+0x18>
    2bfa:	ee 0f       	add	r30, r30
    2bfc:	ff 1f       	adc	r31, r31
    2bfe:	ee 55       	subi	r30, 0x5E	; 94
    2c00:	f8 4f       	sbci	r31, 0xF8	; 248
    2c02:	20 81       	ld	r18, Z
    2c04:	31 81       	ldd	r19, Z+1	; 0x01
    2c06:	02 c0       	rjmp	.+4      	; 0x2c0c <str_getErrorString+0x1c>
    2c08:	28 e3       	ldi	r18, 0x38	; 56
    2c0a:	36 e0       	ldi	r19, 0x06	; 6
	case	0x09 : return "PLASMA";		// plasma error
	case	0x10 : return "USER STOP";	// stop by user
	default:
		return "N/A";	// not available
	}
}
    2c0c:	c9 01       	movw	r24, r18
    2c0e:	08 95       	ret

00002c10 <str_getRunInfo>:

RunInfo *str_getRunInfo()
{
	return &runInfo;
}
    2c10:	82 e9       	ldi	r24, 0x92	; 146
    2c12:	9c e0       	ldi	r25, 0x0C	; 12
    2c14:	08 95       	ret

00002c16 <str_makeReady>:
/**
	Test only.
*/
void str_makeReady()
{
	if (strState == ST_NONE)
    2c16:	80 91 13 08 	lds	r24, 0x0813
    2c1a:	90 91 14 08 	lds	r25, 0x0814
    2c1e:	00 97       	sbiw	r24, 0x00	; 0
    2c20:	31 f4       	brne	.+12     	; 0x2c2e <str_makeReady+0x18>
	{
		strState = ST_READY;
    2c22:	83 e0       	ldi	r24, 0x03	; 3
    2c24:	90 e0       	ldi	r25, 0x00	; 0
    2c26:	90 93 14 08 	sts	0x0814, r25
    2c2a:	80 93 13 08 	sts	0x0813, r24
    2c2e:	08 95       	ret

00002c30 <str_start>:
		1 Level : 2-cycle mode, 40 min
		2 Level : 4-cycle mode, 70 min
		3 Level : 6-cycle mode, 100 min
*/
int str_start(int cycle)
{
    2c30:	0f 93       	push	r16
    2c32:	1f 93       	push	r17
    2c34:	df 93       	push	r29
    2c36:	cf 93       	push	r28
    2c38:	cd b7       	in	r28, 0x3d	; 61
    2c3a:	de b7       	in	r29, 0x3e	; 62
    2c3c:	27 97       	sbiw	r28, 0x07	; 7
    2c3e:	0f b6       	in	r0, 0x3f	; 63
    2c40:	f8 94       	cli
    2c42:	de bf       	out	0x3e, r29	; 62
    2c44:	0f be       	out	0x3f, r0	; 63
    2c46:	cd bf       	out	0x3d, r28	; 61
    2c48:	8c 01       	movw	r16, r24
	if ((cycle < 1) || (cycle > 12))
    2c4a:	01 97       	sbiw	r24, 0x01	; 1
    2c4c:	8c 30       	cpi	r24, 0x0C	; 12
    2c4e:	91 05       	cpc	r25, r1
    2c50:	08 f0       	brcs	.+2      	; 0x2c54 <str_start+0x24>
    2c52:	6b c0       	rjmp	.+214    	; 0x2d2a <str_start+0xfa>
	{
	//	DPRINTF("invalid cycle : %d\n", cycle);
		return -1;
	}

	if (strState != ST_READY)
    2c54:	80 91 13 08 	lds	r24, 0x0813
    2c58:	90 91 14 08 	lds	r25, 0x0814
    2c5c:	83 30       	cpi	r24, 0x03	; 3
    2c5e:	91 05       	cpc	r25, r1
    2c60:	09 f0       	breq	.+2      	; 0x2c64 <str_start+0x34>
    2c62:	63 c0       	rjmp	.+198    	; 0x2d2a <str_start+0xfa>
	{
		return -1;
	}

	configMode = MODE_RUN;
    2c64:	82 e0       	ldi	r24, 0x02	; 2
    2c66:	90 e0       	ldi	r25, 0x00	; 0
    2c68:	90 93 51 07 	sts	0x0751, r25
    2c6c:	80 93 50 07 	sts	0x0750, r24
	configCycle = cycle;
    2c70:	10 93 4d 07 	sts	0x074D, r17
    2c74:	00 93 4c 07 	sts	0x074C, r16

	// 2016.08 update
	if (configCycle <= 8)	configDryingCycle = 1;
    2c78:	09 30       	cpi	r16, 0x09	; 9
    2c7a:	11 05       	cpc	r17, r1
    2c7c:	14 f4       	brge	.+4      	; 0x2c82 <str_start+0x52>
    2c7e:	81 e0       	ldi	r24, 0x01	; 1
    2c80:	90 e0       	ldi	r25, 0x00	; 0
	else					configDryingCycle = 2;
    2c82:	90 93 4f 07 	sts	0x074F, r25
    2c86:	80 93 4e 07 	sts	0x074E, r24

	if (ste_start(&runProc) == 0)
    2c8a:	8a e4       	ldi	r24, 0x4A	; 74
    2c8c:	96 e0       	ldi	r25, 0x06	; 6
    2c8e:	0e 94 1a 12 	call	0x2434	; 0x2434 <ste_start>
    2c92:	00 97       	sbiw	r24, 0x00	; 0
    2c94:	09 f0       	breq	.+2      	; 0x2c98 <str_start+0x68>
    2c96:	49 c0       	rjmp	.+146    	; 0x2d2a <str_start+0xfa>
	{
		//DPRINTF("engine start ok\n");
		strState = ST_RUN;
    2c98:	87 e0       	ldi	r24, 0x07	; 7
    2c9a:	90 e0       	ldi	r25, 0x00	; 0
    2c9c:	90 93 14 08 	sts	0x0814, r25
    2ca0:	80 93 13 08 	sts	0x0813, r24

		runCycle = 1;
    2ca4:	81 e0       	ldi	r24, 0x01	; 1
    2ca6:	90 e0       	ldi	r25, 0x00	; 0
    2ca8:	90 93 28 08 	sts	0x0828, r25
    2cac:	80 93 27 08 	sts	0x0827, r24
		totalRunSeconds = 0;		// reset run seconds.
    2cb0:	10 92 24 08 	sts	0x0824, r1
    2cb4:	10 92 23 08 	sts	0x0823, r1
		prevTotalSeonds = 0;
    2cb8:	10 92 26 08 	sts	0x0826, r1
    2cbc:	10 92 25 08 	sts	0x0825, r1

		// save run info.
		runInfo.mode = MODE_RUN;
    2cc0:	82 e0       	ldi	r24, 0x02	; 2
    2cc2:	80 93 92 0c 	sts	0x0C92, r24
		runInfo.runCycles = configCycle;
    2cc6:	00 93 93 0c 	sts	0x0C93, r16

		runInfo.firstStepSecs = 0;
    2cca:	10 92 9b 0c 	sts	0x0C9B, r1
    2cce:	10 92 9a 0c 	sts	0x0C9A, r1
		runInfo.secondStepSecs = 0;
    2cd2:	10 92 9d 0c 	sts	0x0C9D, r1
    2cd6:	10 92 9c 0c 	sts	0x0C9C, r1
		runInfo.finishStepSecs = 0;
    2cda:	10 92 9f 0c 	sts	0x0C9F, r1
    2cde:	10 92 9e 0c 	sts	0x0C9E, r1
		runInfo.totalSeconds = 0;
    2ce2:	10 92 a1 0c 	sts	0x0CA1, r1
    2ce6:	10 92 a0 0c 	sts	0x0CA0, r1

		DS1307_date ddate;
		ds1307_read_date(&ddate);
    2cea:	ce 01       	movw	r24, r28
    2cec:	04 96       	adiw	r24, 0x04	; 4
    2cee:	0e 94 27 0c 	call	0x184e	; 0x184e <ds1307_read_date>
		runInfo.runDate.year	 = ddate.year;
    2cf2:	8c 81       	ldd	r24, Y+4	; 0x04
    2cf4:	80 93 94 0c 	sts	0x0C94, r24
		runInfo.runDate.month 	 = ddate.month;
    2cf8:	8d 81       	ldd	r24, Y+5	; 0x05
    2cfa:	80 93 95 0c 	sts	0x0C95, r24
		runInfo.runDate.date	 = ddate.day;
    2cfe:	8e 81       	ldd	r24, Y+6	; 0x06
    2d00:	80 93 96 0c 	sts	0x0C96, r24

		DS1307_time dtime;
		ds1307_read_time(&dtime);
    2d04:	ce 01       	movw	r24, r28
    2d06:	01 96       	adiw	r24, 0x01	; 1
    2d08:	0e 94 0d 0c 	call	0x181a	; 0x181a <ds1307_read_time>

		runInfo.startTime.hour	 = dtime.hour;
    2d0c:	89 81       	ldd	r24, Y+1	; 0x01
    2d0e:	80 93 97 0c 	sts	0x0C97, r24
		runInfo.startTime.minute = dtime.minute;
    2d12:	8a 81       	ldd	r24, Y+2	; 0x02
    2d14:	80 93 98 0c 	sts	0x0C98, r24
		runInfo.startTime.second = dtime.second;
    2d18:	8b 81       	ldd	r24, Y+3	; 0x03
    2d1a:	80 93 99 0c 	sts	0x0C99, r24

		runInfo.errorCode = 0;
    2d1e:	10 92 a5 0c 	sts	0x0CA5, r1

		DLOCK_ON();
    2d22:	db 9a       	sbi	0x1b, 3	; 27
	{
		DPRINTF("ste_start error\n");
		return -1;
	}

	return 0;
    2d24:	20 e0       	ldi	r18, 0x00	; 0
    2d26:	30 e0       	ldi	r19, 0x00	; 0
    2d28:	02 c0       	rjmp	.+4      	; 0x2d2e <str_start+0xfe>
		DLOCK_ON();
	}
	else
	{
		DPRINTF("ste_start error\n");
		return -1;
    2d2a:	2f ef       	ldi	r18, 0xFF	; 255
    2d2c:	3f ef       	ldi	r19, 0xFF	; 255
	}

	return 0;
}
    2d2e:	c9 01       	movw	r24, r18
    2d30:	27 96       	adiw	r28, 0x07	; 7
    2d32:	0f b6       	in	r0, 0x3f	; 63
    2d34:	f8 94       	cli
    2d36:	de bf       	out	0x3e, r29	; 62
    2d38:	0f be       	out	0x3f, r0	; 63
    2d3a:	cd bf       	out	0x3d, r28	; 61
    2d3c:	cf 91       	pop	r28
    2d3e:	df 91       	pop	r29
    2d40:	1f 91       	pop	r17
    2d42:	0f 91       	pop	r16
    2d44:	08 95       	ret

00002d46 <str_userStop>:

	Note) only when ST_RUN state
*/
int str_userStop()
{
	if (strState == ST_RUN)
    2d46:	80 91 13 08 	lds	r24, 0x0813
    2d4a:	90 91 14 08 	lds	r25, 0x0814
    2d4e:	87 30       	cpi	r24, 0x07	; 7
    2d50:	91 05       	cpc	r25, r1
    2d52:	99 f5       	brne	.+102    	; 0x2dba <str_userStop+0x74>
	{
		// go efinish by user-stop
		errorCode = ERR_STOP;
    2d54:	80 e1       	ldi	r24, 0x10	; 16
    2d56:	90 e0       	ldi	r25, 0x00	; 0
    2d58:	90 93 20 08 	sts	0x0820, r25
    2d5c:	80 93 1f 08 	sts	0x081F, r24
		runInfo.errorCode = errorCode;
    2d60:	80 e1       	ldi	r24, 0x10	; 16
    2d62:	80 93 a5 0c 	sts	0x0CA5, r24

		currErrorCode = 0;				// clear error code.
    2d66:	10 92 1e 08 	sts	0x081E, r1
    2d6a:	10 92 1d 08 	sts	0x081D, r1

		ste_stop();
    2d6e:	0e 94 36 12 	call	0x246c	; 0x246c <ste_stop>
		ste_reset();					// clear error checking var.
    2d72:	0e 94 0b 12 	call	0x2416	; 0x2416 <ste_reset>

		runInfo.firstStepSecs = totalRunSeconds;
    2d76:	80 91 23 08 	lds	r24, 0x0823
    2d7a:	90 91 24 08 	lds	r25, 0x0824
    2d7e:	90 93 9b 0c 	sts	0x0C9B, r25
    2d82:	80 93 9a 0c 	sts	0x0C9A, r24
		prevTotalSeonds = totalRunSeconds;
    2d86:	90 93 26 08 	sts	0x0826, r25
    2d8a:	80 93 25 08 	sts	0x0825, r24

		// start error finishing process
		if (ste_start(&errFinishProc) == 0)
    2d8e:	8e e0       	ldi	r24, 0x0E	; 14
    2d90:	97 e0       	ldi	r25, 0x07	; 7
    2d92:	0e 94 1a 12 	call	0x2434	; 0x2434 <ste_start>
    2d96:	00 97       	sbiw	r24, 0x00	; 0
    2d98:	59 f4       	brne	.+22     	; 0x2db0 <str_userStop+0x6a>
		{
			DPRINTF("go finish by error(%04u)\n", errorCode);
			strState = ST_EFINISH;
    2d9a:	89 e0       	ldi	r24, 0x09	; 9
    2d9c:	90 e0       	ldi	r25, 0x00	; 0
    2d9e:	90 93 14 08 	sts	0x0814, r25
    2da2:	80 93 13 08 	sts	0x0813, r24

			str_event(strState, 0);
    2da6:	60 e0       	ldi	r22, 0x00	; 0
    2da8:	70 e0       	ldi	r23, 0x00	; 0
    2daa:	0e 94 8d 02 	call	0x51a	; 0x51a <str_event>
    2dae:	05 c0       	rjmp	.+10     	; 0x2dba <str_userStop+0x74>
		}
		else
		{
			dummyErrorStop();
    2db0:	0e 94 49 12 	call	0x2492	; 0x2492 <dummyErrorStop>

			return -1;
    2db4:	2f ef       	ldi	r18, 0xFF	; 255
    2db6:	3f ef       	ldi	r19, 0xFF	; 255
    2db8:	02 c0       	rjmp	.+4      	; 0x2dbe <str_userStop+0x78>
		}
	}

	return 0;
    2dba:	20 e0       	ldi	r18, 0x00	; 0
    2dbc:	30 e0       	ldi	r19, 0x00	; 0
}
    2dbe:	c9 01       	movw	r24, r18
    2dc0:	08 95       	ret

00002dc2 <str_process>:
	// end case.
}


int str_process()
{
    2dc2:	ef 92       	push	r14
    2dc4:	ff 92       	push	r15
    2dc6:	0f 93       	push	r16
    2dc8:	1f 93       	push	r17
    2dca:	df 93       	push	r29
    2dcc:	cf 93       	push	r28
    2dce:	00 d0       	rcall	.+0      	; 0x2dd0 <str_process+0xe>
    2dd0:	0f 92       	push	r0
    2dd2:	cd b7       	in	r28, 0x3d	; 61
    2dd4:	de b7       	in	r29, 0x3e	; 62
	nextRunStep = 0;	// dummy.
}

static int ste_process()
{
	switch (engState)
    2dd6:	00 91 2b 08 	lds	r16, 0x082B
    2dda:	10 91 2c 08 	lds	r17, 0x082C
    2dde:	02 30       	cpi	r16, 0x02	; 2
    2de0:	11 05       	cpc	r17, r1
    2de2:	09 f4       	brne	.+2      	; 0x2de6 <str_process+0x24>
    2de4:	50 c0       	rjmp	.+160    	; 0x2e86 <str_process+0xc4>
    2de6:	03 30       	cpi	r16, 0x03	; 3
    2de8:	11 05       	cpc	r17, r1
    2dea:	09 f4       	brne	.+2      	; 0x2dee <str_process+0x2c>
    2dec:	b7 c0       	rjmp	.+366    	; 0x2f5c <str_process+0x19a>
    2dee:	01 30       	cpi	r16, 0x01	; 1
    2df0:	11 05       	cpc	r17, r1
    2df2:	09 f0       	breq	.+2      	; 0x2df6 <str_process+0x34>
    2df4:	cf c0       	rjmp	.+414    	; 0x2f94 <str_process+0x1d2>
		break;

	case 1 : // running : start fetch and run
		{
			// event.
			ste_event(engState, nextRunStep, currentProc->numStep);
    2df6:	e0 91 37 08 	lds	r30, 0x0837
    2dfa:	f0 91 38 08 	lds	r31, 0x0838
    2dfe:	60 81       	ld	r22, Z
    2e00:	71 81       	ldd	r23, Z+1	; 0x01
    2e02:	80 91 35 08 	lds	r24, 0x0835
    2e06:	90 91 36 08 	lds	r25, 0x0836
    2e0a:	0e 94 f2 12 	call	0x25e4	; 0x25e4 <ste_event.clone.0>

			str_ControlDev(currentProc->pDC[nextRunStep]);
    2e0e:	00 91 37 08 	lds	r16, 0x0837
    2e12:	10 91 38 08 	lds	r17, 0x0838
    2e16:	20 91 35 08 	lds	r18, 0x0835
    2e1a:	30 91 36 08 	lds	r19, 0x0836
    2e1e:	c9 01       	movw	r24, r18
    2e20:	88 0f       	add	r24, r24
    2e22:	99 1f       	adc	r25, r25
    2e24:	82 0f       	add	r24, r18
    2e26:	93 1f       	adc	r25, r19
    2e28:	88 0f       	add	r24, r24
    2e2a:	99 1f       	adc	r25, r25
    2e2c:	08 0f       	add	r16, r24
    2e2e:	19 1f       	adc	r17, r25
    2e30:	f8 01       	movw	r30, r16
    2e32:	32 96       	adiw	r30, 0x02	; 2
    2e34:	d8 01       	movw	r26, r16
    2e36:	12 96       	adiw	r26, 0x02	; 2
    2e38:	4c 91       	ld	r20, X
    2e3a:	51 81       	ldd	r21, Z+1	; 0x01
    2e3c:	62 81       	ldd	r22, Z+2	; 0x02
    2e3e:	73 81       	ldd	r23, Z+3	; 0x03
    2e40:	84 81       	ldd	r24, Z+4	; 0x04
    2e42:	95 81       	ldd	r25, Z+5	; 0x05
    2e44:	0e 94 45 13 	call	0x268a	; 0x268a <str_ControlDev>
			timer_set(tid_ct, currentProc->pDC[nextRunStep].runTimeHms * 100L);
    2e48:	f8 01       	movw	r30, r16
    2e4a:	62 81       	ldd	r22, Z+2	; 0x02
    2e4c:	73 81       	ldd	r23, Z+3	; 0x03
    2e4e:	80 e0       	ldi	r24, 0x00	; 0
    2e50:	90 e0       	ldi	r25, 0x00	; 0
    2e52:	24 e6       	ldi	r18, 0x64	; 100
    2e54:	30 e0       	ldi	r19, 0x00	; 0
    2e56:	40 e0       	ldi	r20, 0x00	; 0
    2e58:	50 e0       	ldi	r21, 0x00	; 0
    2e5a:	0e 94 eb 28 	call	0x51d6	; 0x51d6 <__mulsi3>
    2e5e:	ab 01       	movw	r20, r22
    2e60:	bc 01       	movw	r22, r24
    2e62:	80 91 2f 08 	lds	r24, 0x082F
    2e66:	90 91 30 08 	lds	r25, 0x0830
    2e6a:	0e 94 3e 08 	call	0x107c	; 0x107c <timer_set>

			nextRunStep++;
    2e6e:	80 91 35 08 	lds	r24, 0x0835
    2e72:	90 91 36 08 	lds	r25, 0x0836
    2e76:	01 96       	adiw	r24, 0x01	; 1
    2e78:	90 93 36 08 	sts	0x0836, r25
    2e7c:	80 93 35 08 	sts	0x0835, r24
			engState = 2;
    2e80:	82 e0       	ldi	r24, 0x02	; 2
    2e82:	90 e0       	ldi	r25, 0x00	; 0
    2e84:	7a c0       	rjmp	.+244    	; 0x2f7a <str_process+0x1b8>
		{
			//-- SolValve #2 : toggling process ()
			static int s1tFlag = 0;
			//--

			if (timer_isfired(tid_ct))
    2e86:	80 91 2f 08 	lds	r24, 0x082F
    2e8a:	90 91 30 08 	lds	r25, 0x0830
    2e8e:	0e 94 5c 08 	call	0x10b8	; 0x10b8 <timer_get>
    2e92:	00 97       	sbiw	r24, 0x00	; 0
    2e94:	b1 f4       	brne	.+44     	; 0x2ec2 <str_process+0x100>
			{
				timer_clear(tid_ct);
    2e96:	80 91 2f 08 	lds	r24, 0x082F
    2e9a:	90 91 30 08 	lds	r25, 0x0830
    2e9e:	0e 94 7f 08 	call	0x10fe	; 0x10fe <timer_clear>
				engState = 3;
    2ea2:	83 e0       	ldi	r24, 0x03	; 3
    2ea4:	90 e0       	ldi	r25, 0x00	; 0
    2ea6:	90 93 2c 08 	sts	0x082C, r25
    2eaa:	80 93 2b 08 	sts	0x082B, r24

				s1tFlag = 0;		// for next.
    2eae:	10 92 40 08 	sts	0x0840, r1
    2eb2:	10 92 3f 08 	sts	0x083F, r1

				if (currentCtrl.sv1t == 1)
    2eb6:	80 91 1a 08 	lds	r24, 0x081A
    2eba:	80 ff       	sbrs	r24, 0
    2ebc:	6b c0       	rjmp	.+214    	; 0x2f94 <str_process+0x1d2>
				{
					SVALVE1_OFF();	// make sure sv1 off when exit.
    2ebe:	dc 98       	cbi	0x1b, 4	; 27
    2ec0:	69 c0       	rjmp	.+210    	; 0x2f94 <str_process+0x1d2>
			else
			{
				//------------------------
				// SolValve #2 : toggling process
				//
				if (currentCtrl.sv1t == 1)
    2ec2:	80 91 1a 08 	lds	r24, 0x081A
    2ec6:	80 ff       	sbrs	r24, 0
    2ec8:	44 c0       	rjmp	.+136    	; 0x2f52 <str_process+0x190>
				{
					if (s1tFlag == 0)		// non-ctrl state
    2eca:	20 91 3f 08 	lds	r18, 0x083F
    2ece:	30 91 40 08 	lds	r19, 0x0840
    2ed2:	21 15       	cp	r18, r1
    2ed4:	31 05       	cpc	r19, r1
    2ed6:	69 f4       	brne	.+26     	; 0x2ef2 <str_process+0x130>
					{
						// start toggling after 500 ms.
						s1tFlag = 2;
    2ed8:	10 93 40 08 	sts	0x0840, r17
    2edc:	00 93 3f 08 	sts	0x083F, r16
						timer_set(tid_s1ct, 500);
    2ee0:	80 91 39 08 	lds	r24, 0x0839
    2ee4:	90 91 3a 08 	lds	r25, 0x083A
    2ee8:	44 ef       	ldi	r20, 0xF4	; 244
    2eea:	51 e0       	ldi	r21, 0x01	; 1
    2eec:	60 e0       	ldi	r22, 0x00	; 0
    2eee:	70 e0       	ldi	r23, 0x00	; 0
    2ef0:	19 c0       	rjmp	.+50     	; 0x2f24 <str_process+0x162>
    2ef2:	80 91 39 08 	lds	r24, 0x0839
    2ef6:	90 91 3a 08 	lds	r25, 0x083A
					}
					else if (s1tFlag == 1)		// off state
    2efa:	21 30       	cpi	r18, 0x01	; 1
    2efc:	31 05       	cpc	r19, r1
    2efe:	a9 f4       	brne	.+42     	; 0x2f2a <str_process+0x168>
					{
						if (timer_isfired(tid_s1ct))
    2f00:	0e 94 5c 08 	call	0x10b8	; 0x10b8 <timer_get>
    2f04:	00 97       	sbiw	r24, 0x00	; 0
    2f06:	09 f0       	breq	.+2      	; 0x2f0a <str_process+0x148>
    2f08:	45 c0       	rjmp	.+138    	; 0x2f94 <str_process+0x1d2>
						{
							SVALVE1_ON();
    2f0a:	dc 9a       	sbi	0x1b, 4	; 27
							// on
							s1tFlag = 2;
    2f0c:	10 93 40 08 	sts	0x0840, r17
    2f10:	00 93 3f 08 	sts	0x083F, r16

							timer_set(tid_s1ct, 1000);		// 200 ms on.
    2f14:	80 91 39 08 	lds	r24, 0x0839
    2f18:	90 91 3a 08 	lds	r25, 0x083A
    2f1c:	48 ee       	ldi	r20, 0xE8	; 232
    2f1e:	53 e0       	ldi	r21, 0x03	; 3
    2f20:	60 e0       	ldi	r22, 0x00	; 0
    2f22:	70 e0       	ldi	r23, 0x00	; 0
    2f24:	0e 94 3e 08 	call	0x107c	; 0x107c <timer_set>
    2f28:	35 c0       	rjmp	.+106    	; 0x2f94 <str_process+0x1d2>
							DPRINTF("S1 ON");
						}
					}
					else	// s1tFlag == 2.
					{
						if (timer_isfired(tid_s1ct))
    2f2a:	0e 94 5c 08 	call	0x10b8	; 0x10b8 <timer_get>
    2f2e:	00 97       	sbiw	r24, 0x00	; 0
    2f30:	89 f5       	brne	.+98     	; 0x2f94 <str_process+0x1d2>
						{
							SVALVE1_OFF();
    2f32:	dc 98       	cbi	0x1b, 4	; 27
							s1tFlag = 1;	// off.
    2f34:	81 e0       	ldi	r24, 0x01	; 1
    2f36:	90 e0       	ldi	r25, 0x00	; 0
    2f38:	90 93 40 08 	sts	0x0840, r25
    2f3c:	80 93 3f 08 	sts	0x083F, r24

							timer_set(tid_s1ct, 5000);		// wait 1800 ms to on.
    2f40:	80 91 39 08 	lds	r24, 0x0839
    2f44:	90 91 3a 08 	lds	r25, 0x083A
    2f48:	48 e8       	ldi	r20, 0x88	; 136
    2f4a:	53 e1       	ldi	r21, 0x13	; 19
    2f4c:	60 e0       	ldi	r22, 0x00	; 0
    2f4e:	70 e0       	ldi	r23, 0x00	; 0
    2f50:	e9 cf       	rjmp	.-46     	; 0x2f24 <str_process+0x162>
						}
					}
				}
				else
				{
					s1tFlag = 0;		// for next.
    2f52:	10 92 40 08 	sts	0x0840, r1
    2f56:	10 92 3f 08 	sts	0x083F, r1
    2f5a:	1c c0       	rjmp	.+56     	; 0x2f94 <str_process+0x1d2>
		}
		break;

	case 3 : // go next or end
		{
			if (nextRunStep < currentProc->numStep)
    2f5c:	80 91 35 08 	lds	r24, 0x0835
    2f60:	90 91 36 08 	lds	r25, 0x0836
    2f64:	e0 91 37 08 	lds	r30, 0x0837
    2f68:	f0 91 38 08 	lds	r31, 0x0838
    2f6c:	60 81       	ld	r22, Z
    2f6e:	71 81       	ldd	r23, Z+1	; 0x01
    2f70:	86 17       	cp	r24, r22
    2f72:	97 07       	cpc	r25, r23
    2f74:	3c f4       	brge	.+14     	; 0x2f84 <str_process+0x1c2>
			{
				engState = 1;
    2f76:	81 e0       	ldi	r24, 0x01	; 1
    2f78:	90 e0       	ldi	r25, 0x00	; 0
    2f7a:	90 93 2c 08 	sts	0x082C, r25
    2f7e:	80 93 2b 08 	sts	0x082B, r24
    2f82:	08 c0       	rjmp	.+16     	; 0x2f94 <str_process+0x1d2>
			}
			else
			{
				engState = 4;
    2f84:	24 e0       	ldi	r18, 0x04	; 4
    2f86:	30 e0       	ldi	r19, 0x00	; 0
    2f88:	30 93 2c 08 	sts	0x082C, r19
    2f8c:	20 93 2b 08 	sts	0x082B, r18
				ste_event(engState, nextRunStep, currentProc->numStep);
    2f90:	0e 94 f2 12 	call	0x25e4	; 0x25e4 <ste_event.clone.0>
		}
		break;
	}
	//end switch.

	if (timer_isfired(tid_op))
    2f94:	80 91 3b 08 	lds	r24, 0x083B
    2f98:	90 91 3c 08 	lds	r25, 0x083C
    2f9c:	0e 94 5c 08 	call	0x10b8	; 0x10b8 <timer_get>
    2fa0:	00 97       	sbiw	r24, 0x00	; 0
    2fa2:	11 f5       	brne	.+68     	; 0x2fe8 <str_process+0x226>
	{
		timer_set(tid_op, 1000);
    2fa4:	80 91 3b 08 	lds	r24, 0x083B
    2fa8:	90 91 3c 08 	lds	r25, 0x083C
    2fac:	48 ee       	ldi	r20, 0xE8	; 232
    2fae:	53 e0       	ldi	r21, 0x03	; 3
    2fb0:	60 e0       	ldi	r22, 0x00	; 0
    2fb2:	70 e0       	ldi	r23, 0x00	; 0
    2fb4:	0e 94 3e 08 	call	0x107c	; 0x107c <timer_set>

		// run timer.
		//if ((engState > 1) && (engState < 4))
		if ((engState == 2) || (engState == 3) || (pTestFlag == 1))
    2fb8:	80 91 2b 08 	lds	r24, 0x082B
    2fbc:	90 91 2c 08 	lds	r25, 0x082C
    2fc0:	02 97       	sbiw	r24, 0x02	; 2
    2fc2:	82 30       	cpi	r24, 0x02	; 2
    2fc4:	91 05       	cpc	r25, r1
    2fc6:	38 f0       	brcs	.+14     	; 0x2fd6 <str_process+0x214>
    2fc8:	80 91 3d 08 	lds	r24, 0x083D
    2fcc:	90 91 3e 08 	lds	r25, 0x083E
    2fd0:	81 30       	cpi	r24, 0x01	; 1
    2fd2:	91 05       	cpc	r25, r1
    2fd4:	49 f4       	brne	.+18     	; 0x2fe8 <str_process+0x226>
		{
			totalRunSeconds++;
    2fd6:	80 91 23 08 	lds	r24, 0x0823
    2fda:	90 91 24 08 	lds	r25, 0x0824
    2fde:	01 96       	adiw	r24, 0x01	; 1
    2fe0:	90 93 24 08 	sts	0x0824, r25
    2fe4:	80 93 23 08 	sts	0x0823, r24
static void ste_checkError()
{
	static int tcnt = 0;

	// always : check water level
	currErrorCode = 0;
    2fe8:	10 92 1e 08 	sts	0x081E, r1
    2fec:	10 92 1d 08 	sts	0x081D, r1

#ifdef FT_NOERROR
	return;
#endif

	if (timer_isfired(tid_chk))
    2ff0:	80 91 41 08 	lds	r24, 0x0841
    2ff4:	90 91 42 08 	lds	r25, 0x0842
    2ff8:	0e 94 5c 08 	call	0x10b8	; 0x10b8 <timer_get>
    2ffc:	00 97       	sbiw	r24, 0x00	; 0
    2ffe:	09 f0       	breq	.+2      	; 0x3002 <str_process+0x240>
    3000:	db c0       	rjmp	.+438    	; 0x31b8 <str_process+0x3f6>
	{
		timer_set(tid_chk, 100);
    3002:	80 91 41 08 	lds	r24, 0x0841
    3006:	90 91 42 08 	lds	r25, 0x0842
    300a:	44 e6       	ldi	r20, 0x64	; 100
    300c:	50 e0       	ldi	r21, 0x00	; 0
    300e:	60 e0       	ldi	r22, 0x00	; 0
    3010:	70 e0       	ldi	r23, 0x00	; 0
    3012:	0e 94 3e 08 	call	0x107c	; 0x107c <timer_set>

		tcnt++;		// 0..9
    3016:	80 91 4b 08 	lds	r24, 0x084B
    301a:	90 91 4c 08 	lds	r25, 0x084C
    301e:	01 96       	adiw	r24, 0x01	; 1
    3020:	90 93 4c 08 	sts	0x084C, r25
    3024:	80 93 4b 08 	sts	0x084B, r24
		if (tcnt > 9) tcnt = 0;
    3028:	8a 30       	cpi	r24, 0x0A	; 10
    302a:	91 05       	cpc	r25, r1
    302c:	24 f0       	brlt	.+8      	; 0x3036 <str_process+0x274>
    302e:	10 92 4c 08 	sts	0x084C, r1
    3032:	10 92 4b 08 	sts	0x084B, r1
		return;
	}

	// below runs per 1 sec

	if (currentCtrl.wls)
    3036:	20 91 1a 08 	lds	r18, 0x081A
    303a:	26 ff       	sbrs	r18, 6
    303c:	14 c0       	rjmp	.+40     	; 0x3066 <str_process+0x2a4>
	{
		if (IS_WL_ON())		// is error.
    303e:	80 91 63 00 	lds	r24, 0x0063
    3042:	81 fd       	sbrc	r24, 1
    3044:	0e c0       	rjmp	.+28     	; 0x3062 <str_process+0x2a0>
		{
			if (edCountWL < 7)
    3046:	80 91 43 08 	lds	r24, 0x0843
    304a:	87 30       	cpi	r24, 0x07	; 7
    304c:	20 f4       	brcc	.+8      	; 0x3056 <str_process+0x294>
			{
				edCountWL++;
    304e:	8f 5f       	subi	r24, 0xFF	; 255
    3050:	80 93 43 08 	sts	0x0843, r24
    3054:	08 c0       	rjmp	.+16     	; 0x3066 <str_process+0x2a4>
			}
			else	// if (edCountWL >= 7)
			{
				currErrorCode |= ERR_WL;
    3056:	80 91 1d 08 	lds	r24, 0x081D
    305a:	90 91 1e 08 	lds	r25, 0x081E
    305e:	87 60       	ori	r24, 0x07	; 7
    3060:	90 c0       	rjmp	.+288    	; 0x3182 <str_process+0x3c0>
			}
		}
		else
		{
		//	currErrorCode &=~ERR_WL;
			edCountWL = 0;
    3062:	10 92 43 08 	sts	0x0843, r1
	}

	// sensor check : 1 sec interval - block.
	// : ps1,ps2,fs.

	if (tcnt == 0)
    3066:	80 91 4b 08 	lds	r24, 0x084B
    306a:	90 91 4c 08 	lds	r25, 0x084C
    306e:	00 97       	sbiw	r24, 0x00	; 0
    3070:	09 f0       	breq	.+2      	; 0x3074 <str_process+0x2b2>
    3072:	5e c0       	rjmp	.+188    	; 0x3130 <str_process+0x36e>
	{
		if (currentCtrl.ps1)	// low pressure sensor
    3074:	23 ff       	sbrs	r18, 3
    3076:	14 c0       	rjmp	.+40     	; 0x30a0 <str_process+0x2de>
		{
			// 7 sec. margin to check vaccum..
			if (IS_P1_ON())		// low pressure (ok)
    3078:	b6 9b       	sbis	0x16, 6	; 22
    307a:	12 c0       	rjmp	.+36     	; 0x30a0 <str_process+0x2de>
				ps1ErrorTime = 0;
			}
			else
			{
				// pressure not low for 7 seconds then error.
				if (ps1ErrorTime < 7)
    307c:	80 91 44 08 	lds	r24, 0x0844
    3080:	87 30       	cpi	r24, 0x07	; 7
    3082:	20 f4       	brcc	.+8      	; 0x308c <str_process+0x2ca>
				{
					ps1ErrorTime++;
    3084:	8f 5f       	subi	r24, 0xFF	; 255
    3086:	80 93 44 08 	sts	0x0844, r24
    308a:	0c c0       	rjmp	.+24     	; 0x30a4 <str_process+0x2e2>
				}
				else	// if (ps1ErrorTime >= 7)
				{
					currErrorCode |= ERR_P1;
    308c:	80 91 1d 08 	lds	r24, 0x081D
    3090:	90 91 1e 08 	lds	r25, 0x081E
    3094:	81 60       	ori	r24, 0x01	; 1
    3096:	90 93 1e 08 	sts	0x081E, r25
    309a:	80 93 1d 08 	sts	0x081D, r24
    309e:	02 c0       	rjmp	.+4      	; 0x30a4 <str_process+0x2e2>
				}
			}
		}
		else
		{
			ps1ErrorTime = 0;
    30a0:	10 92 44 08 	sts	0x0844, r1
		}

		if (currentCtrl.ps2)	// high pressure sensor
    30a4:	82 2f       	mov	r24, r18
    30a6:	80 73       	andi	r24, 0x30	; 48
    30a8:	b9 f0       	breq	.+46     	; 0x30d8 <str_process+0x316>
		{
			if (currentCtrl.ps2 == 1)
    30aa:	80 31       	cpi	r24, 0x10	; 16
    30ac:	19 f4       	brne	.+6      	; 0x30b4 <str_process+0x2f2>
			{
				// 7 sec. margin to check pressure
				if (IS_P2_ON())		// high pressure (ok)
    30ae:	b5 99       	sbic	0x16, 5	; 22
    30b0:	05 c0       	rjmp	.+10     	; 0x30bc <str_process+0x2fa>
    30b2:	12 c0       	rjmp	.+36     	; 0x30d8 <str_process+0x316>
						currErrorCode |= ERR_P2;
						return;
					}
				}
			}
			else if (currentCtrl.ps2 == 2)	// error if high pressure sensor off.
    30b4:	80 32       	cpi	r24, 0x20	; 32
    30b6:	91 f4       	brne	.+36     	; 0x30dc <str_process+0x31a>
			{
				// 7 sec. margin to check pressure
				if (!IS_P2_ON())		// high pressure (ok)
    30b8:	b5 99       	sbic	0x16, 5	; 22
    30ba:	0e c0       	rjmp	.+28     	; 0x30d8 <str_process+0x316>
					ps2ErrorTime = 0;
				}
				else
				{
					// pressure not high for 7 seconds then error.
					if (ps2ErrorTime < 7)
    30bc:	80 91 45 08 	lds	r24, 0x0845
    30c0:	87 30       	cpi	r24, 0x07	; 7
    30c2:	20 f4       	brcc	.+8      	; 0x30cc <str_process+0x30a>
					{
						ps2ErrorTime++;
    30c4:	8f 5f       	subi	r24, 0xFF	; 255
    30c6:	80 93 45 08 	sts	0x0845, r24
    30ca:	08 c0       	rjmp	.+16     	; 0x30dc <str_process+0x31a>
					}
					else	// if (ps2ErrorTime >= 7)
					{
						currErrorCode |= ERR_P2;
    30cc:	80 91 1d 08 	lds	r24, 0x081D
    30d0:	90 91 1e 08 	lds	r25, 0x081E
    30d4:	82 60       	ori	r24, 0x02	; 2
    30d6:	55 c0       	rjmp	.+170    	; 0x3182 <str_process+0x3c0>
				}
			}
		}
		else
		{
			ps2ErrorTime = 0;
    30d8:	10 92 45 08 	sts	0x0845, r1
		}


		if (currentCtrl.fs)
    30dc:	22 ff       	sbrs	r18, 2
    30de:	10 c0       	rjmp	.+32     	; 0x3100 <str_process+0x33e>
		{
			// 7 sec. margin to check flow..
			if (IS_FL_ON())						// flow is ok.
    30e0:	81 9b       	sbis	0x10, 1	; 16
    30e2:	0e c0       	rjmp	.+28     	; 0x3100 <str_process+0x33e>
				flowErrorTime = 0;
				//currErrorCode &=~ERR_P2;
			}
			else
			{
				if (flowErrorTime < 5)
    30e4:	80 91 46 08 	lds	r24, 0x0846
    30e8:	85 30       	cpi	r24, 0x05	; 5
    30ea:	20 f4       	brcc	.+8      	; 0x30f4 <str_process+0x332>
				{
					flowErrorTime++;
    30ec:	8f 5f       	subi	r24, 0xFF	; 255
    30ee:	80 93 46 08 	sts	0x0846, r24
    30f2:	08 c0       	rjmp	.+16     	; 0x3104 <str_process+0x342>
				}
				else	// if (flowErrorTime >= 7)
				{
					currErrorCode |= ERR_FLOW;
    30f4:	80 91 1d 08 	lds	r24, 0x081D
    30f8:	90 91 1e 08 	lds	r25, 0x081E
    30fc:	83 60       	ori	r24, 0x03	; 3
    30fe:	41 c0       	rjmp	.+130    	; 0x3182 <str_process+0x3c0>
				}
			}
		}
		else
		{
			flowErrorTime = 0;
    3100:	10 92 46 08 	sts	0x0846, r1
		}


		if (currentCtrl.pls)
    3104:	80 91 1b 08 	lds	r24, 0x081B
    3108:	82 ff       	sbrs	r24, 2
    310a:	10 c0       	rjmp	.+32     	; 0x312c <str_process+0x36a>
		{
			// 7 sec. margin to check flow..
			if (IS_PLASMA_OK())
    310c:	9e 9b       	sbis	0x13, 6	; 19
    310e:	0e c0       	rjmp	.+28     	; 0x312c <str_process+0x36a>
			{
				plsErrorTime = 0;
			}
			else
			{
				if (plsErrorTime < 5)
    3110:	80 91 47 08 	lds	r24, 0x0847
    3114:	85 30       	cpi	r24, 0x05	; 5
    3116:	20 f4       	brcc	.+8      	; 0x3120 <str_process+0x35e>
				{
					plsErrorTime++;
    3118:	8f 5f       	subi	r24, 0xFF	; 255
    311a:	80 93 47 08 	sts	0x0847, r24
    311e:	08 c0       	rjmp	.+16     	; 0x3130 <str_process+0x36e>
				}
				else
				{
					currErrorCode |= ERR_PLASMA;
    3120:	80 91 1d 08 	lds	r24, 0x081D
    3124:	90 91 1e 08 	lds	r25, 0x081E
    3128:	89 60       	ori	r24, 0x09	; 9
    312a:	2b c0       	rjmp	.+86     	; 0x3182 <str_process+0x3c0>
				}
			}
		}
		else
		{
			plsErrorTime = 0;
    312c:	10 92 47 08 	sts	0x0847, r1
		}
	}
	// end of 1 sec block.

	if (currentCtrl.ts)
    3130:	80 91 1a 08 	lds	r24, 0x081A
    3134:	87 ff       	sbrs	r24, 7
    3136:	3a c0       	rjmp	.+116    	; 0x31ac <str_process+0x3ea>
	{
		if ((PINF & 0x01) == 1)				// ok.
    3138:	00 9b       	sbis	0x00, 0	; 0
    313a:	03 c0       	rjmp	.+6      	; 0x3142 <str_process+0x380>
		{
			edCountTemp1 = 0;
    313c:	10 92 48 08 	sts	0x0848, r1
    3140:	0e c0       	rjmp	.+28     	; 0x315e <str_process+0x39c>
		}
		else
		{
			if (edCountTemp1 < 5)
    3142:	80 91 48 08 	lds	r24, 0x0848
    3146:	85 30       	cpi	r24, 0x05	; 5
    3148:	20 f4       	brcc	.+8      	; 0x3152 <str_process+0x390>
			{
				edCountTemp1++;
    314a:	8f 5f       	subi	r24, 0xFF	; 255
    314c:	80 93 48 08 	sts	0x0848, r24
    3150:	06 c0       	rjmp	.+12     	; 0x315e <str_process+0x39c>
			}
			else
			{
				currErrorCode |= ERR_T1;
    3152:	80 91 1d 08 	lds	r24, 0x081D
    3156:	90 91 1e 08 	lds	r25, 0x081E
    315a:	84 60       	ori	r24, 0x04	; 4
    315c:	12 c0       	rjmp	.+36     	; 0x3182 <str_process+0x3c0>
				return;
			}
		}

		if ((PINF & 0x02) == 2)				// ok.
    315e:	01 9b       	sbis	0x00, 1	; 0
    3160:	03 c0       	rjmp	.+6      	; 0x3168 <str_process+0x3a6>
		{
			edCountTemp2 = 0;
    3162:	10 92 49 08 	sts	0x0849, r1
    3166:	12 c0       	rjmp	.+36     	; 0x318c <str_process+0x3ca>
		}
		else
		{
			if (edCountTemp2 < 5)
    3168:	80 91 49 08 	lds	r24, 0x0849
    316c:	85 30       	cpi	r24, 0x05	; 5
    316e:	20 f4       	brcc	.+8      	; 0x3178 <str_process+0x3b6>
			{
				edCountTemp2++;
    3170:	8f 5f       	subi	r24, 0xFF	; 255
    3172:	80 93 49 08 	sts	0x0849, r24
    3176:	0a c0       	rjmp	.+20     	; 0x318c <str_process+0x3ca>
			}
			else
			{
				currErrorCode |= ERR_T2;
    3178:	80 91 1d 08 	lds	r24, 0x081D
    317c:	90 91 1e 08 	lds	r25, 0x081E
    3180:	85 60       	ori	r24, 0x05	; 5
    3182:	90 93 1e 08 	sts	0x081E, r25
    3186:	80 93 1d 08 	sts	0x081D, r24
    318a:	16 c0       	rjmp	.+44     	; 0x31b8 <str_process+0x3f6>
				return;
			}
		}

		if ((PINF & 0x04) == 4)				// ok.
    318c:	02 99       	sbic	0x00, 2	; 0
    318e:	12 c0       	rjmp	.+36     	; 0x31b4 <str_process+0x3f2>
		{
			edCountTemp3 = 0;
		}
		else
		{
			if (edCountTemp3 < 5)
    3190:	80 91 4a 08 	lds	r24, 0x084A
    3194:	85 30       	cpi	r24, 0x05	; 5
    3196:	20 f4       	brcc	.+8      	; 0x31a0 <str_process+0x3de>
			{
				edCountTemp3++;
    3198:	8f 5f       	subi	r24, 0xFF	; 255
    319a:	80 93 4a 08 	sts	0x084A, r24
    319e:	0c c0       	rjmp	.+24     	; 0x31b8 <str_process+0x3f6>
			}
			else
			{
				currErrorCode |= ERR_T3;
    31a0:	80 91 1d 08 	lds	r24, 0x081D
    31a4:	90 91 1e 08 	lds	r25, 0x081E
    31a8:	86 60       	ori	r24, 0x06	; 6
    31aa:	eb cf       	rjmp	.-42     	; 0x3182 <str_process+0x3c0>
			}
		}
	}
	else
	{
		edCountTemp1 = 0;
    31ac:	10 92 48 08 	sts	0x0848, r1
		edCountTemp2 = 0;
    31b0:	10 92 49 08 	sts	0x0849, r1
		edCountTemp3 = 0;
    31b4:	10 92 4a 08 	sts	0x084A, r1
int str_process()
{
	// engine process
	ste_process();

	switch (strState)
    31b8:	00 91 13 08 	lds	r16, 0x0813
    31bc:	10 91 14 08 	lds	r17, 0x0814
    31c0:	07 30       	cpi	r16, 0x07	; 7
    31c2:	11 05       	cpc	r17, r1
    31c4:	09 f4       	brne	.+2      	; 0x31c8 <str_process+0x406>
    31c6:	05 c1       	rjmp	.+522    	; 0x33d2 <str_process+0x610>
    31c8:	08 30       	cpi	r16, 0x08	; 8
    31ca:	11 05       	cpc	r17, r1
    31cc:	e4 f4       	brge	.+56     	; 0x3206 <str_process+0x444>
    31ce:	02 30       	cpi	r16, 0x02	; 2
    31d0:	11 05       	cpc	r17, r1
    31d2:	09 f4       	brne	.+2      	; 0x31d6 <str_process+0x414>
    31d4:	6e c0       	rjmp	.+220    	; 0x32b2 <str_process+0x4f0>
    31d6:	03 30       	cpi	r16, 0x03	; 3
    31d8:	11 05       	cpc	r17, r1
    31da:	44 f4       	brge	.+16     	; 0x31ec <str_process+0x42a>
    31dc:	01 15       	cp	r16, r1
    31de:	11 05       	cpc	r17, r1
    31e0:	79 f1       	breq	.+94     	; 0x3240 <str_process+0x47e>
    31e2:	01 30       	cpi	r16, 0x01	; 1
    31e4:	11 05       	cpc	r17, r1
    31e6:	09 f0       	breq	.+2      	; 0x31ea <str_process+0x428>
    31e8:	86 c3       	rjmp	.+1804   	; 0x38f6 <str_process+0xb34>
    31ea:	46 c0       	rjmp	.+140    	; 0x3278 <str_process+0x4b6>
    31ec:	04 30       	cpi	r16, 0x04	; 4
    31ee:	11 05       	cpc	r17, r1
    31f0:	09 f4       	brne	.+2      	; 0x31f4 <str_process+0x432>
    31f2:	a3 c0       	rjmp	.+326    	; 0x333a <str_process+0x578>
    31f4:	04 30       	cpi	r16, 0x04	; 4
    31f6:	11 05       	cpc	r17, r1
    31f8:	0c f4       	brge	.+2      	; 0x31fc <str_process+0x43a>
    31fa:	84 c0       	rjmp	.+264    	; 0x3304 <str_process+0x542>
    31fc:	05 30       	cpi	r16, 0x05	; 5
    31fe:	11 05       	cpc	r17, r1
    3200:	09 f0       	breq	.+2      	; 0x3204 <str_process+0x442>
    3202:	79 c3       	rjmp	.+1778   	; 0x38f6 <str_process+0xb34>
    3204:	a2 c1       	rjmp	.+836    	; 0x354a <str_process+0x788>
    3206:	0a 30       	cpi	r16, 0x0A	; 10
    3208:	11 05       	cpc	r17, r1
    320a:	09 f4       	brne	.+2      	; 0x320e <str_process+0x44c>
    320c:	05 c2       	rjmp	.+1034   	; 0x3618 <str_process+0x856>
    320e:	0b 30       	cpi	r16, 0x0B	; 11
    3210:	11 05       	cpc	r17, r1
    3212:	4c f4       	brge	.+18     	; 0x3226 <str_process+0x464>
    3214:	08 30       	cpi	r16, 0x08	; 8
    3216:	11 05       	cpc	r17, r1
    3218:	09 f4       	brne	.+2      	; 0x321c <str_process+0x45a>
    321a:	28 c1       	rjmp	.+592    	; 0x346c <str_process+0x6aa>
    321c:	09 30       	cpi	r16, 0x09	; 9
    321e:	11 05       	cpc	r17, r1
    3220:	09 f0       	breq	.+2      	; 0x3224 <str_process+0x462>
    3222:	69 c3       	rjmp	.+1746   	; 0x38f6 <str_process+0xb34>
    3224:	cf c1       	rjmp	.+926    	; 0x35c4 <str_process+0x802>
    3226:	0c 30       	cpi	r16, 0x0C	; 12
    3228:	11 05       	cpc	r17, r1
    322a:	09 f4       	brne	.+2      	; 0x322e <str_process+0x46c>
    322c:	0d c3       	rjmp	.+1562   	; 0x3848 <str_process+0xa86>
    322e:	0c 30       	cpi	r16, 0x0C	; 12
    3230:	11 05       	cpc	r17, r1
    3232:	0c f4       	brge	.+2      	; 0x3236 <str_process+0x474>
    3234:	f3 c2       	rjmp	.+1510   	; 0x381c <str_process+0xa5a>
    3236:	0d 30       	cpi	r16, 0x0D	; 13
    3238:	11 05       	cpc	r17, r1
    323a:	09 f0       	breq	.+2      	; 0x323e <str_process+0x47c>
    323c:	5c c3       	rjmp	.+1720   	; 0x38f6 <str_process+0xb34>
    323e:	1e c3       	rjmp	.+1596   	; 0x387c <str_process+0xaba>
	{
	case ST_NONE:	// check if ready. (TEMP1,2,3 is ready ?)
		{
			if (timer_isfired(tid_t1))
    3240:	80 91 15 08 	lds	r24, 0x0815
    3244:	90 91 16 08 	lds	r25, 0x0816
    3248:	0e 94 5c 08 	call	0x10b8	; 0x10b8 <timer_get>
    324c:	00 97       	sbiw	r24, 0x00	; 0
    324e:	09 f0       	breq	.+2      	; 0x3252 <str_process+0x490>
    3250:	52 c3       	rjmp	.+1700   	; 0x38f6 <str_process+0xb34>
			{
				timer_clear(tid_t1);
    3252:	80 91 15 08 	lds	r24, 0x0815
    3256:	90 91 16 08 	lds	r25, 0x0816
    325a:	0e 94 7f 08 	call	0x10fe	; 0x10fe <timer_clear>

				if (isDoorOpen())
    325e:	80 91 4d 08 	lds	r24, 0x084D
    3262:	88 23       	and	r24, r24
    3264:	09 f0       	breq	.+2      	; 0x3268 <str_process+0x4a6>
    3266:	f5 c2       	rjmp	.+1514   	; 0x3852 <str_process+0xa90>
					buzzProfile = BUZZ_DOPEN;
					buzzIndex = 0;
				}
				else
				{
					strState = ST_WARMUP;
    3268:	81 e0       	ldi	r24, 0x01	; 1
    326a:	90 e0       	ldi	r25, 0x00	; 0
    326c:	90 93 14 08 	sts	0x0814, r25
    3270:	80 93 13 08 	sts	0x0813, r24

					DLOCK_ON();
    3274:	db 9a       	sbi	0x1b, 3	; 27
    3276:	14 c0       	rjmp	.+40     	; 0x32a0 <str_process+0x4de>
		}
		break;

	case ST_WARMUP:	// initial warming-up, no error while warming-up.
		{
			if (timer_isfired(tid_t1))					// after WARMING_UP_DELAY
    3278:	80 91 15 08 	lds	r24, 0x0815
    327c:	90 91 16 08 	lds	r25, 0x0816
    3280:	0e 94 5c 08 	call	0x10b8	; 0x10b8 <timer_get>
    3284:	00 97       	sbiw	r24, 0x00	; 0
    3286:	09 f0       	breq	.+2      	; 0x328a <str_process+0x4c8>
    3288:	36 c3       	rjmp	.+1644   	; 0x38f6 <str_process+0xb34>
			{
				// check temperature before auto self-test.
				currentCtrl.wls = 1;
    328a:	80 91 1a 08 	lds	r24, 0x081A
				currentCtrl.ts = 1;
    328e:	80 6c       	ori	r24, 0xC0	; 192
    3290:	80 93 1a 08 	sts	0x081A, r24

				strState = ST_CHECKING;
    3294:	82 e0       	ldi	r24, 0x02	; 2
    3296:	90 e0       	ldi	r25, 0x00	; 0
    3298:	90 93 14 08 	sts	0x0814, r25
    329c:	80 93 13 08 	sts	0x0813, r24
				timer_set(tid_t1, CHECKING_DELAY);		// 30 seconds.
    32a0:	80 91 15 08 	lds	r24, 0x0815
    32a4:	90 91 16 08 	lds	r25, 0x0816
    32a8:	44 ef       	ldi	r20, 0xF4	; 244
    32aa:	51 e0       	ldi	r21, 0x01	; 1
    32ac:	60 e0       	ldi	r22, 0x00	; 0
    32ae:	70 e0       	ldi	r23, 0x00	; 0
    32b0:	cc c1       	rjmp	.+920    	; 0x364a <str_process+0x888>
		}
		break;

	case ST_CHECKING:	// initial checking
		{
			if (timer_isfired(tid_t1))					// after CHECKING_DELAY
    32b2:	80 91 15 08 	lds	r24, 0x0815
    32b6:	90 91 16 08 	lds	r25, 0x0816
    32ba:	0e 94 5c 08 	call	0x10b8	; 0x10b8 <timer_get>
    32be:	00 97       	sbiw	r24, 0x00	; 0
    32c0:	79 f4       	brne	.+30     	; 0x32e0 <str_process+0x51e>
			{
				timer_clear(tid_t1);
    32c2:	80 91 15 08 	lds	r24, 0x0815
    32c6:	90 91 16 08 	lds	r25, 0x0816
    32ca:	0e 94 7f 08 	call	0x10fe	; 0x10fe <timer_clear>

				strState = ST_READY;	// go STRUN directly.
    32ce:	83 e0       	ldi	r24, 0x03	; 3
    32d0:	90 e0       	ldi	r25, 0x00	; 0
    32d2:	90 93 14 08 	sts	0x0814, r25
    32d6:	80 93 13 08 	sts	0x0813, r24

				// go start self-test automatically.
				str_startSelfTest();
    32da:	0e 94 7f 14 	call	0x28fe	; 0x28fe <str_startSelfTest>
    32de:	0b c3       	rjmp	.+1558   	; 0x38f6 <str_process+0xb34>

				// after self test : DLOCK is off.
			}
			else if (currErrorCode != 0)	// check error.
    32e0:	80 91 1d 08 	lds	r24, 0x081D
    32e4:	90 91 1e 08 	lds	r25, 0x081E
    32e8:	00 97       	sbiw	r24, 0x00	; 0
    32ea:	09 f4       	brne	.+2      	; 0x32ee <str_process+0x52c>
    32ec:	04 c3       	rjmp	.+1544   	; 0x38f6 <str_process+0xb34>
			{
				timer_clear(tid_t1);
    32ee:	80 91 15 08 	lds	r24, 0x0815
    32f2:	90 91 16 08 	lds	r25, 0x0816
    32f6:	0e 94 7f 08 	call	0x10fe	; 0x10fe <timer_clear>

				errorCode = currErrorCode;	// check water level sensor (by init)
    32fa:	80 91 1d 08 	lds	r24, 0x081D
    32fe:	90 91 1e 08 	lds	r25, 0x081E
    3302:	0c c0       	rjmp	.+24     	; 0x331c <str_process+0x55a>
		}
		break;

	case ST_READY:
		{
			if (isDoorOpen())
    3304:	80 91 4d 08 	lds	r24, 0x084D
    3308:	88 23       	and	r24, r24
    330a:	09 f0       	breq	.+2      	; 0x330e <str_process+0x54c>
    330c:	a2 c2       	rjmp	.+1348   	; 0x3852 <str_process+0xa90>
				strState = ST_DOPEN;

				buzzProfile = BUZZ_DOPEN;
				buzzIndex = 0;
			}
			else if (currErrorCode != 0)	// check error.
    330e:	80 91 1d 08 	lds	r24, 0x081D
    3312:	90 91 1e 08 	lds	r25, 0x081E
    3316:	00 97       	sbiw	r24, 0x00	; 0
    3318:	09 f4       	brne	.+2      	; 0x331c <str_process+0x55a>
    331a:	ed c2       	rjmp	.+1498   	; 0x38f6 <str_process+0xb34>
			{
				// unexpected error.
				errorCode = currErrorCode;
    331c:	90 93 20 08 	sts	0x0820, r25
    3320:	80 93 1f 08 	sts	0x081F, r24

				strState = ST_ERROR;
    3324:	8c e0       	ldi	r24, 0x0C	; 12
    3326:	90 e0       	ldi	r25, 0x00	; 0
    3328:	90 93 14 08 	sts	0x0814, r25
    332c:	80 93 13 08 	sts	0x0813, r24

				buzzProfile = BUZZ_ERROR;
    3330:	80 e0       	ldi	r24, 0x00	; 0
    3332:	90 e0       	ldi	r25, 0x00	; 0
    3334:	a0 e0       	ldi	r26, 0x00	; 0
    3336:	b0 e9       	ldi	r27, 0x90	; 144
    3338:	96 c2       	rjmp	.+1324   	; 0x3866 <str_process+0xaa4>
		break;
	
	case ST_STRUN:	// self test running
		{
			//
			if (ste_isComplete())		// check engine complete the proc.
    333a:	80 91 2b 08 	lds	r24, 0x082B
    333e:	90 91 2c 08 	lds	r25, 0x082C
    3342:	84 30       	cpi	r24, 0x04	; 4
    3344:	91 05       	cpc	r25, r1
    3346:	a1 f4       	brne	.+40     	; 0x3370 <str_process+0x5ae>
			{
				DPRINTF(" self test done -> ready\n");

				ste_reset();
    3348:	0e 94 0b 12 	call	0x2416	; 0x2416 <ste_reset>

				currentCtrl.wls = 1;
    334c:	80 91 1a 08 	lds	r24, 0x081A
				currentCtrl.ts = 1;
    3350:	80 6c       	ori	r24, 0xC0	; 192
    3352:	80 93 1a 08 	sts	0x081A, r24

				strState = ST_READY;
    3356:	83 e0       	ldi	r24, 0x03	; 3
    3358:	90 e0       	ldi	r25, 0x00	; 0
    335a:	90 93 14 08 	sts	0x0814, r25
    335e:	80 93 13 08 	sts	0x0813, r24
				isTestCompleted = 1;
    3362:	81 e0       	ldi	r24, 0x01	; 1
    3364:	90 e0       	ldi	r25, 0x00	; 0
    3366:	90 93 22 08 	sts	0x0822, r25
    336a:	80 93 21 08 	sts	0x0821, r24
    336e:	cc c0       	rjmp	.+408    	; 0x3508 <str_process+0x746>
				// self test completed.
				str_event(strState, 1);

				DLOCK_OFF();
			}
			else if (isDoorOpen())
    3370:	80 91 4d 08 	lds	r24, 0x084D
    3374:	88 23       	and	r24, r24
    3376:	09 f0       	breq	.+2      	; 0x337a <str_process+0x5b8>
    3378:	18 c1       	rjmp	.+560    	; 0x35aa <str_process+0x7e8>
			{
				goErrorStopping(1, ERR_D1);
			}
			else if (currErrorCode != 0)	// check error.
    337a:	80 91 1d 08 	lds	r24, 0x081D
    337e:	90 91 1e 08 	lds	r25, 0x081E
    3382:	00 97       	sbiw	r24, 0x00	; 0
    3384:	09 f4       	brne	.+2      	; 0x3388 <str_process+0x5c6>
    3386:	b7 c2       	rjmp	.+1390   	; 0x38f6 <str_process+0xb34>
			{
				// 06/28. do not self-test again..
				isTestCompleted = 1;		// do not self-test again.
    3388:	81 e0       	ldi	r24, 0x01	; 1
    338a:	90 e0       	ldi	r25, 0x00	; 0
    338c:	90 93 22 08 	sts	0x0822, r25
    3390:	80 93 21 08 	sts	0x0821, r24

				ste_stop();
    3394:	0e 94 36 12 	call	0x246c	; 0x246c <ste_stop>

				// clear device state...
				errorCode = currErrorCode;
    3398:	80 91 1d 08 	lds	r24, 0x081D
    339c:	90 91 1e 08 	lds	r25, 0x081E
    33a0:	80 93 1f 08 	sts	0x081F, r24
    33a4:	90 93 20 08 	sts	0x0820, r25
				runInfo.errorCode = errorCode;
    33a8:	80 93 a5 0c 	sts	0x0CA5, r24

				// 1st step go error finishing
				runInfo.firstStepSecs = totalRunSeconds;
    33ac:	80 91 23 08 	lds	r24, 0x0823
    33b0:	90 91 24 08 	lds	r25, 0x0824
    33b4:	90 93 9b 0c 	sts	0x0C9B, r25
    33b8:	80 93 9a 0c 	sts	0x0C9A, r24
				prevTotalSeonds = totalRunSeconds;
    33bc:	90 93 26 08 	sts	0x0826, r25
    33c0:	80 93 25 08 	sts	0x0825, r24

				strState = ST_STOPPING;
    33c4:	8a e0       	ldi	r24, 0x0A	; 10
    33c6:	90 e0       	ldi	r25, 0x00	; 0
    33c8:	90 93 14 08 	sts	0x0814, r25
    33cc:	80 93 13 08 	sts	0x0813, r24
    33d0:	48 c0       	rjmp	.+144    	; 0x3462 <str_process+0x6a0>
		}
		break;

	case ST_RUN:	// running
		{
			if (ste_isComplete())		// check engine complete the proc.
    33d2:	80 91 2b 08 	lds	r24, 0x082B
    33d6:	90 91 2c 08 	lds	r25, 0x082C
    33da:	84 30       	cpi	r24, 0x04	; 4
    33dc:	91 05       	cpc	r25, r1
    33de:	09 f0       	breq	.+2      	; 0x33e2 <str_process+0x620>
    33e0:	e0 c0       	rjmp	.+448    	; 0x35a2 <str_process+0x7e0>
			{
				ste_reset();		// clear engine state.
    33e2:	0e 94 0b 12 	call	0x2416	; 0x2416 <ste_reset>

				if (runCycle < configCycle)
    33e6:	e0 90 27 08 	lds	r14, 0x0827
    33ea:	f0 90 28 08 	lds	r15, 0x0828
    33ee:	80 91 4c 07 	lds	r24, 0x074C
    33f2:	90 91 4d 07 	lds	r25, 0x074D
    33f6:	e8 16       	cp	r14, r24
    33f8:	f9 06       	cpc	r15, r25
    33fa:	9c f4       	brge	.+38     	; 0x3422 <str_process+0x660>
				{
					// restart runProc to 2nd... cycle
					if (ste_start(&runProc) == 0)
    33fc:	8a e4       	ldi	r24, 0x4A	; 74
    33fe:	96 e0       	ldi	r25, 0x06	; 6
    3400:	0e 94 1a 12 	call	0x2434	; 0x2434 <ste_start>
    3404:	00 97       	sbiw	r24, 0x00	; 0
    3406:	09 f0       	breq	.+2      	; 0x340a <str_process+0x648>
    3408:	58 c0       	rjmp	.+176    	; 0x34ba <str_process+0x6f8>
					{
						//DPRINTF("engine %d cycle start ok\n", runCycle);
						strState = ST_RUN;
    340a:	10 93 14 08 	sts	0x0814, r17
    340e:	00 93 13 08 	sts	0x0813, r16

						runCycle++;
    3412:	08 94       	sec
    3414:	e1 1c       	adc	r14, r1
    3416:	f1 1c       	adc	r15, r1
    3418:	f0 92 28 08 	sts	0x0828, r15
    341c:	e0 92 27 08 	sts	0x0827, r14
    3420:	6a c2       	rjmp	.+1236   	; 0x38f6 <str_process+0xb34>
					}
				}
				else
				{
					// end of running cycles.
					runInfo.firstStepSecs = totalRunSeconds;
    3422:	80 91 23 08 	lds	r24, 0x0823
    3426:	90 91 24 08 	lds	r25, 0x0824
    342a:	90 93 9b 0c 	sts	0x0C9B, r25
    342e:	80 93 9a 0c 	sts	0x0C9A, r24
					prevTotalSeonds = totalRunSeconds;
    3432:	90 93 26 08 	sts	0x0826, r25
    3436:	80 93 25 08 	sts	0x0825, r24

					DPRINTF(" run done -> go drying\n");

					if (ste_start(&dryingProc) == 0)
    343a:	80 ed       	ldi	r24, 0xD0	; 208
    343c:	96 e0       	ldi	r25, 0x06	; 6
    343e:	0e 94 1a 12 	call	0x2434	; 0x2434 <ste_start>
    3442:	00 97       	sbiw	r24, 0x00	; 0
    3444:	d1 f5       	brne	.+116    	; 0x34ba <str_process+0x6f8>
					{
						//DPRINTF("engine drying proc start ok\n");
						strState = ST_DRYING;
    3446:	88 e0       	ldi	r24, 0x08	; 8
    3448:	90 e0       	ldi	r25, 0x00	; 0
    344a:	90 93 14 08 	sts	0x0814, r25
    344e:	80 93 13 08 	sts	0x0813, r24

						runDryingCycle = 1;
    3452:	81 e0       	ldi	r24, 0x01	; 1
    3454:	90 e0       	ldi	r25, 0x00	; 0
    3456:	90 93 2a 08 	sts	0x082A, r25
    345a:	80 93 29 08 	sts	0x0829, r24

						str_event(strState, 0);
    345e:	88 e0       	ldi	r24, 0x08	; 8
    3460:	90 e0       	ldi	r25, 0x00	; 0
    3462:	60 e0       	ldi	r22, 0x00	; 0
    3464:	70 e0       	ldi	r23, 0x00	; 0
    3466:	0e 94 8d 02 	call	0x51a	; 0x51a <str_event>
    346a:	45 c2       	rjmp	.+1162   	; 0x38f6 <str_process+0xb34>
		}
		break;

	case ST_DRYING:	// old finishing after run cycles..
		{
			if (ste_isComplete())
    346c:	80 91 2b 08 	lds	r24, 0x082B
    3470:	90 91 2c 08 	lds	r25, 0x082C
    3474:	84 30       	cpi	r24, 0x04	; 4
    3476:	91 05       	cpc	r25, r1
    3478:	09 f0       	breq	.+2      	; 0x347c <str_process+0x6ba>
    347a:	52 c0       	rjmp	.+164    	; 0x3520 <str_process+0x75e>
			{
				ste_reset();		// clear engine state.
    347c:	0e 94 0b 12 	call	0x2416	; 0x2416 <ste_reset>

				if (runDryingCycle < configDryingCycle)
    3480:	e0 90 29 08 	lds	r14, 0x0829
    3484:	f0 90 2a 08 	lds	r15, 0x082A
    3488:	80 91 4e 07 	lds	r24, 0x074E
    348c:	90 91 4f 07 	lds	r25, 0x074F
    3490:	e8 16       	cp	r14, r24
    3492:	f9 06       	cpc	r15, r25
    3494:	ac f4       	brge	.+42     	; 0x34c0 <str_process+0x6fe>
				{
					// restart runProc to 2nd... cycle
					if (ste_start(&dryingProc) == 0)
    3496:	80 ed       	ldi	r24, 0xD0	; 208
    3498:	96 e0       	ldi	r25, 0x06	; 6
    349a:	0e 94 1a 12 	call	0x2434	; 0x2434 <ste_start>
    349e:	00 97       	sbiw	r24, 0x00	; 0
    34a0:	61 f4       	brne	.+24     	; 0x34ba <str_process+0x6f8>
					{
						//DPRINTF("engine %d cycle start ok\n", runCycle);
						strState = ST_DRYING;
    34a2:	10 93 14 08 	sts	0x0814, r17
    34a6:	00 93 13 08 	sts	0x0813, r16

						runDryingCycle++;
    34aa:	08 94       	sec
    34ac:	e1 1c       	adc	r14, r1
    34ae:	f1 1c       	adc	r15, r1
    34b0:	f0 92 2a 08 	sts	0x082A, r15
    34b4:	e0 92 29 08 	sts	0x0829, r14
    34b8:	1e c2       	rjmp	.+1084   	; 0x38f6 <str_process+0xb34>
					}
					else
					{
						dummyErrorStop();
    34ba:	0e 94 49 12 	call	0x2492	; 0x2492 <dummyErrorStop>
    34be:	1b c2       	rjmp	.+1078   	; 0x38f6 <str_process+0xb34>
					}
				}
				else
				{
					engState = 0;	// make ready.
    34c0:	10 92 2c 08 	sts	0x082C, r1
    34c4:	10 92 2b 08 	sts	0x082B, r1

					strState = ST_COMPLETE;
    34c8:	8b e0       	ldi	r24, 0x0B	; 11
    34ca:	90 e0       	ldi	r25, 0x00	; 0
    34cc:	90 93 14 08 	sts	0x0814, r25
    34d0:	80 93 13 08 	sts	0x0813, r24

					buzzProfile = BUZZ_COMPLETE;
    34d4:	80 e0       	ldi	r24, 0x00	; 0
    34d6:	90 e0       	ldi	r25, 0x00	; 0
    34d8:	a0 e0       	ldi	r26, 0x00	; 0
    34da:	b0 e8       	ldi	r27, 0x80	; 128
    34dc:	80 93 0e 08 	sts	0x080E, r24
    34e0:	90 93 0f 08 	sts	0x080F, r25
    34e4:	a0 93 10 08 	sts	0x0810, r26
    34e8:	b0 93 11 08 	sts	0x0811, r27
					buzzIndex = 0;
    34ec:	10 92 12 08 	sts	0x0812, r1

					timer_set(tid_bto, 60000UL);		// buzz timeout 1 min.
    34f0:	80 91 2d 08 	lds	r24, 0x082D
    34f4:	90 91 2e 08 	lds	r25, 0x082E
    34f8:	40 e6       	ldi	r20, 0x60	; 96
    34fa:	5a ee       	ldi	r21, 0xEA	; 234
    34fc:	60 e0       	ldi	r22, 0x00	; 0
    34fe:	70 e0       	ldi	r23, 0x00	; 0
    3500:	0e 94 3e 08 	call	0x107c	; 0x107c <timer_set>

					updateRunInfoEndTime(2);	// 2 step end
    3504:	82 e0       	ldi	r24, 0x02	; 2
    3506:	90 e0       	ldi	r25, 0x00	; 0
    3508:	0e 94 a3 12 	call	0x2546	; 0x2546 <updateRunInfoEndTime>

					// completed or stopped.
					str_event(strState, 1);
    350c:	80 91 13 08 	lds	r24, 0x0813
    3510:	90 91 14 08 	lds	r25, 0x0814
    3514:	61 e0       	ldi	r22, 0x01	; 1
    3516:	70 e0       	ldi	r23, 0x00	; 0
    3518:	0e 94 8d 02 	call	0x51a	; 0x51a <str_event>

					DLOCK_OFF();
    351c:	db 98       	cbi	0x1b, 3	; 27
    351e:	eb c1       	rjmp	.+982    	; 0x38f6 <str_process+0xb34>
				}
			}
			else if (isDoorOpen())
    3520:	80 91 4d 08 	lds	r24, 0x084D
    3524:	88 23       	and	r24, r24
    3526:	29 f0       	breq	.+10     	; 0x3532 <str_process+0x770>
			{
				goErrorStopping(2, ERR_D1);		// door error at 2nd step
    3528:	82 e0       	ldi	r24, 0x02	; 2
    352a:	90 e0       	ldi	r25, 0x00	; 0
    352c:	0e 94 ff 12 	call	0x25fe	; 0x25fe <goErrorStopping.clone.1>
    3530:	e2 c1       	rjmp	.+964    	; 0x38f6 <str_process+0xb34>
			}
			else if (currErrorCode != 0)	// check error.
    3532:	80 91 1d 08 	lds	r24, 0x081D
    3536:	90 91 1e 08 	lds	r25, 0x081E
    353a:	00 97       	sbiw	r24, 0x00	; 0
    353c:	09 f4       	brne	.+2      	; 0x3540 <str_process+0x77e>
    353e:	db c1       	rjmp	.+950    	; 0x38f6 <str_process+0xb34>
			{
				goErrorFinishing(2);		// 2nd step error, go finishing
    3540:	82 e0       	ldi	r24, 0x02	; 2
    3542:	90 e0       	ldi	r25, 0x00	; 0
    3544:	0e 94 5d 12 	call	0x24ba	; 0x24ba <goErrorFinishing>
    3548:	d6 c1       	rjmp	.+940    	; 0x38f6 <str_process+0xb34>
		}
		break;

	case ST_SDRYING:	// individual drying mode running..
		{
			if (ste_isComplete())
    354a:	80 91 2b 08 	lds	r24, 0x082B
    354e:	90 91 2c 08 	lds	r25, 0x082C
    3552:	84 30       	cpi	r24, 0x04	; 4
    3554:	91 05       	cpc	r25, r1
    3556:	29 f5       	brne	.+74     	; 0x35a2 <str_process+0x7e0>
			{
				engState = 0;	// make ready.
    3558:	10 92 2c 08 	sts	0x082C, r1
    355c:	10 92 2b 08 	sts	0x082B, r1

				strState = ST_COMPLETE;
    3560:	8b e0       	ldi	r24, 0x0B	; 11
    3562:	90 e0       	ldi	r25, 0x00	; 0
    3564:	90 93 14 08 	sts	0x0814, r25
    3568:	80 93 13 08 	sts	0x0813, r24

				buzzProfile = BUZZ_COMPLETE;
    356c:	80 e0       	ldi	r24, 0x00	; 0
    356e:	90 e0       	ldi	r25, 0x00	; 0
    3570:	a0 e0       	ldi	r26, 0x00	; 0
    3572:	b0 e8       	ldi	r27, 0x80	; 128
    3574:	80 93 0e 08 	sts	0x080E, r24
    3578:	90 93 0f 08 	sts	0x080F, r25
    357c:	a0 93 10 08 	sts	0x0810, r26
    3580:	b0 93 11 08 	sts	0x0811, r27
				buzzIndex = 0;
    3584:	10 92 12 08 	sts	0x0812, r1

				timer_set(tid_bto, 60000UL);		// buzz timeout 1 min.
    3588:	80 91 2d 08 	lds	r24, 0x082D
    358c:	90 91 2e 08 	lds	r25, 0x082E
    3590:	40 e6       	ldi	r20, 0x60	; 96
    3592:	5a ee       	ldi	r21, 0xEA	; 234
    3594:	60 e0       	ldi	r22, 0x00	; 0
    3596:	70 e0       	ldi	r23, 0x00	; 0
    3598:	0e 94 3e 08 	call	0x107c	; 0x107c <timer_set>

				updateRunInfoEndTime(1);	// 1 step end
    359c:	81 e0       	ldi	r24, 0x01	; 1
    359e:	90 e0       	ldi	r25, 0x00	; 0
    35a0:	b3 cf       	rjmp	.-154    	; 0x3508 <str_process+0x746>
				// completed or stopped.
				str_event(strState, 1);

				DLOCK_OFF();
			}
			else if (isDoorOpen())
    35a2:	80 91 4d 08 	lds	r24, 0x084D
    35a6:	88 23       	and	r24, r24
    35a8:	19 f0       	breq	.+6      	; 0x35b0 <str_process+0x7ee>
			{
				goErrorStopping(1, ERR_D1);		// door error at first step
    35aa:	81 e0       	ldi	r24, 0x01	; 1
    35ac:	90 e0       	ldi	r25, 0x00	; 0
    35ae:	be cf       	rjmp	.-132    	; 0x352c <str_process+0x76a>
			}
			else if (currErrorCode != 0)	// check error.
    35b0:	80 91 1d 08 	lds	r24, 0x081D
    35b4:	90 91 1e 08 	lds	r25, 0x081E
    35b8:	00 97       	sbiw	r24, 0x00	; 0
    35ba:	09 f4       	brne	.+2      	; 0x35be <str_process+0x7fc>
    35bc:	9c c1       	rjmp	.+824    	; 0x38f6 <str_process+0xb34>
			{
				goErrorFinishing(1);		// 1st step error, go finishing
    35be:	81 e0       	ldi	r24, 0x01	; 1
    35c0:	90 e0       	ldi	r25, 0x00	; 0
    35c2:	c0 cf       	rjmp	.-128    	; 0x3544 <str_process+0x782>
		}
		break;

	case ST_EFINISH:	// error finishing (since v.b1)
		{
			if (ste_isComplete())
    35c4:	80 91 2b 08 	lds	r24, 0x082B
    35c8:	90 91 2c 08 	lds	r25, 0x082C
    35cc:	84 30       	cpi	r24, 0x04	; 4
    35ce:	91 05       	cpc	r25, r1
    35d0:	d9 f4       	brne	.+54     	; 0x3608 <str_process+0x846>
			{
				engState = 0;	// make ready.
    35d2:	10 92 2c 08 	sts	0x082C, r1
    35d6:	10 92 2b 08 	sts	0x082B, r1

				// note) always error code exist.
				strState = ST_ERROR;		// by error.
    35da:	8c e0       	ldi	r24, 0x0C	; 12
    35dc:	90 e0       	ldi	r25, 0x00	; 0
    35de:	90 93 14 08 	sts	0x0814, r25
    35e2:	80 93 13 08 	sts	0x0813, r24

				buzzProfile = BUZZ_ERROR;
    35e6:	80 e0       	ldi	r24, 0x00	; 0
    35e8:	90 e0       	ldi	r25, 0x00	; 0
    35ea:	a0 e0       	ldi	r26, 0x00	; 0
    35ec:	b0 e9       	ldi	r27, 0x90	; 144
    35ee:	80 93 0e 08 	sts	0x080E, r24
    35f2:	90 93 0f 08 	sts	0x080F, r25
    35f6:	a0 93 10 08 	sts	0x0810, r26
    35fa:	b0 93 11 08 	sts	0x0811, r27
				buzzIndex = 0;
    35fe:	10 92 12 08 	sts	0x0812, r1

				//timer_set(tid_t1, 60000UL);		// buzz timeout 1 min.

				updateRunInfoEndTime(3);	// finish step end
    3602:	83 e0       	ldi	r24, 0x03	; 3
    3604:	90 e0       	ldi	r25, 0x00	; 0
    3606:	80 cf       	rjmp	.-256    	; 0x3508 <str_process+0x746>
				// completed or stopped.
				str_event(strState, 1);

				DLOCK_OFF();
			}
			else if (isDoorOpen())
    3608:	80 91 4d 08 	lds	r24, 0x084D
    360c:	88 23       	and	r24, r24
    360e:	09 f4       	brne	.+2      	; 0x3612 <str_process+0x850>
    3610:	72 c1       	rjmp	.+740    	; 0x38f6 <str_process+0xb34>
			{
				goErrorStopping(3, ERR_D1);		// door error at finish step
    3612:	83 e0       	ldi	r24, 0x03	; 3
    3614:	90 e0       	ldi	r25, 0x00	; 0
    3616:	8a cf       	rjmp	.-236    	; 0x352c <str_process+0x76a>
	case ST_STOPPING:
		{
			// to control stopping step.
			static int stoppingMode = 0;
	
			if (stoppingMode == 0)	// start stopping
    3618:	80 91 33 08 	lds	r24, 0x0833
    361c:	90 91 34 08 	lds	r25, 0x0834
    3620:	00 97       	sbiw	r24, 0x00	; 0
    3622:	b1 f4       	brne	.+44     	; 0x3650 <str_process+0x88e>
			{
				// at first, clear sensor.
				currentCtrl.fs = 0;
    3624:	80 91 1a 08 	lds	r24, 0x081A
				currentCtrl.ps1 = 0;
				currentCtrl.ps2 = 0;
    3628:	83 7c       	andi	r24, 0xC3	; 195
    362a:	80 93 1a 08 	sts	0x081A, r24

				stoppingMode = 1;
    362e:	81 e0       	ldi	r24, 0x01	; 1
    3630:	90 e0       	ldi	r25, 0x00	; 0
    3632:	90 93 34 08 	sts	0x0834, r25
    3636:	80 93 33 08 	sts	0x0833, r24
				timer_set(tid_ct, 1000);
    363a:	80 91 2f 08 	lds	r24, 0x082F
    363e:	90 91 30 08 	lds	r25, 0x0830
    3642:	48 ee       	ldi	r20, 0xE8	; 232
    3644:	53 e0       	ldi	r21, 0x03	; 3
    3646:	60 e0       	ldi	r22, 0x00	; 0
    3648:	70 e0       	ldi	r23, 0x00	; 0
    364a:	0e 94 3e 08 	call	0x107c	; 0x107c <timer_set>
    364e:	53 c1       	rjmp	.+678    	; 0x38f6 <str_process+0xb34>
			}
			else if (stoppingMode == 1)
    3650:	81 30       	cpi	r24, 0x01	; 1
    3652:	91 05       	cpc	r25, r1
    3654:	09 f0       	breq	.+2      	; 0x3658 <str_process+0x896>
    3656:	74 c0       	rjmp	.+232    	; 0x3740 <str_process+0x97e>
			{
				if (timer_isfired(tid_ct))
    3658:	80 91 2f 08 	lds	r24, 0x082F
    365c:	90 91 30 08 	lds	r25, 0x0830
    3660:	0e 94 5c 08 	call	0x10b8	; 0x10b8 <timer_get>
    3664:	00 97       	sbiw	r24, 0x00	; 0
    3666:	09 f0       	breq	.+2      	; 0x366a <str_process+0x8a8>
    3668:	46 c1       	rjmp	.+652    	; 0x38f6 <str_process+0xb34>
				{
					// check and stop : one by one.

					timer_set(tid_ct, 1000);
    366a:	80 91 2f 08 	lds	r24, 0x082F
    366e:	90 91 30 08 	lds	r25, 0x0830
    3672:	48 ee       	ldi	r20, 0xE8	; 232
    3674:	53 e0       	ldi	r21, 0x03	; 3
    3676:	60 e0       	ldi	r22, 0x00	; 0
    3678:	70 e0       	ldi	r23, 0x00	; 0
    367a:	0e 94 3e 08 	call	0x107c	; 0x107c <timer_set>

					if (currentCtrl.sv1 == 1)		{ currentCtrl.sv1 = 0;	SVALVE1_OFF();	}
    367e:	80 91 19 08 	lds	r24, 0x0819
    3682:	86 ff       	sbrs	r24, 6
    3684:	04 c0       	rjmp	.+8      	; 0x368e <str_process+0x8cc>
    3686:	8f 7b       	andi	r24, 0xBF	; 191
    3688:	80 93 19 08 	sts	0x0819, r24
    368c:	16 c0       	rjmp	.+44     	; 0x36ba <str_process+0x8f8>
					else if (currentCtrl.sv2 == 1)	{ currentCtrl.sv2 = 0;	SVALVE2_OFF();	}
    368e:	80 ff       	sbrs	r24, 0
    3690:	05 c0       	rjmp	.+10     	; 0x369c <str_process+0x8da>
    3692:	8e 7f       	andi	r24, 0xFE	; 254
    3694:	80 93 19 08 	sts	0x0819, r24
    3698:	96 98       	cbi	0x12, 6	; 18
    369a:	2d c1       	rjmp	.+602    	; 0x38f6 <str_process+0xb34>
					else if (currentCtrl.sv3 == 1)	{ currentCtrl.sv3 = 0;	SVALVE3_OFF();	}
    369c:	81 ff       	sbrs	r24, 1
    369e:	05 c0       	rjmp	.+10     	; 0x36aa <str_process+0x8e8>
    36a0:	8d 7f       	andi	r24, 0xFD	; 253
    36a2:	80 93 19 08 	sts	0x0819, r24
    36a6:	97 98       	cbi	0x12, 7	; 18
    36a8:	26 c1       	rjmp	.+588    	; 0x38f6 <str_process+0xb34>
					else if (currentCtrl.sv1t == 1)	{ currentCtrl.sv1t = 0;	SVALVE1_OFF();	}
    36aa:	90 91 1a 08 	lds	r25, 0x081A
    36ae:	90 ff       	sbrs	r25, 0
    36b0:	06 c0       	rjmp	.+12     	; 0x36be <str_process+0x8fc>
    36b2:	89 2f       	mov	r24, r25
    36b4:	8e 7f       	andi	r24, 0xFE	; 254
    36b6:	80 93 1a 08 	sts	0x081A, r24
    36ba:	dc 98       	cbi	0x1b, 4	; 27
    36bc:	1c c1       	rjmp	.+568    	; 0x38f6 <str_process+0xb34>
					else if (currentCtrl.hv == 1)	{ currentCtrl.hv = 0;	HV_OFF();		}
    36be:	82 ff       	sbrs	r24, 2
    36c0:	0b c0       	rjmp	.+22     	; 0x36d8 <str_process+0x916>
    36c2:	80 91 19 08 	lds	r24, 0x0819
    36c6:	8b 7f       	andi	r24, 0xFB	; 251
    36c8:	80 93 19 08 	sts	0x0819, r24
    36cc:	80 91 62 00 	lds	r24, 0x0062
    36d0:	8f 77       	andi	r24, 0x7F	; 127
    36d2:	80 93 62 00 	sts	0x0062, r24
    36d6:	0f c1       	rjmp	.+542    	; 0x38f6 <str_process+0xb34>
					else if (currentCtrl.pump == 1)	{ currentCtrl.pump = 0;	PUMP_OFF();		}
    36d8:	87 ff       	sbrs	r24, 7
    36da:	07 c0       	rjmp	.+14     	; 0x36ea <str_process+0x928>
    36dc:	80 91 19 08 	lds	r24, 0x0819
    36e0:	8f 77       	andi	r24, 0x7F	; 127
    36e2:	80 93 19 08 	sts	0x0819, r24
    36e6:	1d 98       	cbi	0x03, 5	; 3
    36e8:	06 c1       	rjmp	.+524    	; 0x38f6 <str_process+0xb34>
					else if (currentCtrl.fan == 1)	{ currentCtrl.fan = 0;	FAN_OFF();		}
    36ea:	91 ff       	sbrs	r25, 1
    36ec:	07 c0       	rjmp	.+14     	; 0x36fc <str_process+0x93a>
    36ee:	80 91 1a 08 	lds	r24, 0x081A
    36f2:	8d 7f       	andi	r24, 0xFD	; 253
    36f4:	80 93 1a 08 	sts	0x081A, r24
    36f8:	1e 98       	cbi	0x03, 6	; 3
    36fa:	fd c0       	rjmp	.+506    	; 0x38f6 <str_process+0xb34>
					else if (currentCtrl.tv1 == 1)	{ currentCtrl.tv1 = 0;	TWVALVE1_OFF();	}
    36fc:	83 ff       	sbrs	r24, 3
    36fe:	07 c0       	rjmp	.+14     	; 0x370e <str_process+0x94c>
    3700:	80 91 19 08 	lds	r24, 0x0819
    3704:	87 7f       	andi	r24, 0xF7	; 247
    3706:	80 93 19 08 	sts	0x0819, r24
    370a:	df 98       	cbi	0x1b, 7	; 27
    370c:	f4 c0       	rjmp	.+488    	; 0x38f6 <str_process+0xb34>
					else if (currentCtrl.tv2 == 1)	{ currentCtrl.tv2 = 0;	TWVALVE2_OFF();	}
    370e:	84 ff       	sbrs	r24, 4
    3710:	07 c0       	rjmp	.+14     	; 0x3720 <str_process+0x95e>
    3712:	80 91 19 08 	lds	r24, 0x0819
    3716:	8f 7e       	andi	r24, 0xEF	; 239
    3718:	80 93 19 08 	sts	0x0819, r24
    371c:	de 98       	cbi	0x1b, 6	; 27
    371e:	eb c0       	rjmp	.+470    	; 0x38f6 <str_process+0xb34>
					else if (currentCtrl.tv3 == 1)	{ currentCtrl.tv3 = 0;	TWVALVE3_OFF();	}
    3720:	85 ff       	sbrs	r24, 5
    3722:	07 c0       	rjmp	.+14     	; 0x3732 <str_process+0x970>
    3724:	80 91 19 08 	lds	r24, 0x0819
    3728:	8f 7d       	andi	r24, 0xDF	; 223
    372a:	80 93 19 08 	sts	0x0819, r24
    372e:	dd 98       	cbi	0x1b, 5	; 27
    3730:	e2 c0       	rjmp	.+452    	; 0x38f6 <str_process+0xb34>
					else
					{
						// done, all off state.
						stoppingMode = 2;	
    3732:	82 e0       	ldi	r24, 0x02	; 2
    3734:	90 e0       	ldi	r25, 0x00	; 0
    3736:	90 93 34 08 	sts	0x0834, r25
    373a:	80 93 33 08 	sts	0x0833, r24
    373e:	db c0       	rjmp	.+438    	; 0x38f6 <str_process+0xb34>
					}
				}
			}
			else if (stoppingMode == 2)
    3740:	82 30       	cpi	r24, 0x02	; 2
    3742:	91 05       	cpc	r25, r1
    3744:	09 f0       	breq	.+2      	; 0x3748 <str_process+0x986>
    3746:	d7 c0       	rjmp	.+430    	; 0x38f6 <str_process+0xb34>
			{
				if (timer_isfired(tid_ct))
    3748:	80 91 2f 08 	lds	r24, 0x082F
    374c:	90 91 30 08 	lds	r25, 0x0830
    3750:	0e 94 5c 08 	call	0x10b8	; 0x10b8 <timer_get>
    3754:	00 97       	sbiw	r24, 0x00	; 0
    3756:	09 f0       	breq	.+2      	; 0x375a <str_process+0x998>
    3758:	ce c0       	rjmp	.+412    	; 0x38f6 <str_process+0xb34>
				{

					if (configMode == MODE_PTESTING)
    375a:	20 91 50 07 	lds	r18, 0x0750
    375e:	30 91 51 07 	lds	r19, 0x0751
    3762:	80 91 2f 08 	lds	r24, 0x082F
    3766:	90 91 30 08 	lds	r25, 0x0830
    376a:	24 30       	cpi	r18, 0x04	; 4
    376c:	31 05       	cpc	r19, r1
    376e:	21 f5       	brne	.+72     	; 0x37b8 <str_process+0x9f6>
					{
						timer_clear(tid_ct);
    3770:	0e 94 7f 08 	call	0x10fe	; 0x10fe <timer_clear>
						stoppingMode = 0;
    3774:	10 92 34 08 	sts	0x0834, r1
    3778:	10 92 33 08 	sts	0x0833, r1

						if (errorCode == ERR_STOP)		// stop by user.
    377c:	80 91 1f 08 	lds	r24, 0x081F
    3780:	90 91 20 08 	lds	r25, 0x0820
    3784:	80 31       	cpi	r24, 0x10	; 16
    3786:	91 05       	cpc	r25, r1
    3788:	a9 f4       	brne	.+42     	; 0x37b4 <str_process+0x9f2>
						{
							// go ready.
							str_event(strState, 0);
    378a:	80 91 13 08 	lds	r24, 0x0813
    378e:	90 91 14 08 	lds	r25, 0x0814
    3792:	60 e0       	ldi	r22, 0x00	; 0
    3794:	70 e0       	ldi	r23, 0x00	; 0
    3796:	0e 94 8d 02 	call	0x51a	; 0x51a <str_event>
							DLOCK_OFF();
    379a:	db 98       	cbi	0x1b, 3	; 27

							currentCtrl.wls = 1;
    379c:	80 91 1a 08 	lds	r24, 0x081A
							currentCtrl.ts = 1;
    37a0:	80 6c       	ori	r24, 0xC0	; 192
    37a2:	80 93 1a 08 	sts	0x081A, r24
							strState = ST_READY;
    37a6:	83 e0       	ldi	r24, 0x03	; 3
    37a8:	90 e0       	ldi	r25, 0x00	; 0
    37aa:	90 93 14 08 	sts	0x0814, r25
    37ae:	80 93 13 08 	sts	0x0813, r24
    37b2:	a1 c0       	rjmp	.+322    	; 0x38f6 <str_process+0xb34>
						}
						else							// only case : errorCode == DOOR_OPEN
						{
							DLOCK_OFF();
    37b4:	db 98       	cbi	0x1b, 3	; 27
    37b6:	4d c0       	rjmp	.+154    	; 0x3852 <str_process+0xa90>
							buzzIndex = 0;
						}
					}
					else
					{
						timer_clear(tid_ct);
    37b8:	0e 94 7f 08 	call	0x10fe	; 0x10fe <timer_clear>
						stoppingMode = 0;
    37bc:	10 92 34 08 	sts	0x0834, r1
    37c0:	10 92 33 08 	sts	0x0833, r1

						DS1307_time dtime;
						ds1307_read_time(&dtime);
    37c4:	ce 01       	movw	r24, r28
    37c6:	01 96       	adiw	r24, 0x01	; 1
    37c8:	0e 94 0d 0c 	call	0x181a	; 0x181a <ds1307_read_time>

						runInfo.endTime.hour   = dtime.hour;
    37cc:	89 81       	ldd	r24, Y+1	; 0x01
    37ce:	80 93 a2 0c 	sts	0x0CA2, r24
						runInfo.endTime.minute = dtime.minute;
    37d2:	8a 81       	ldd	r24, Y+2	; 0x02
    37d4:	80 93 a3 0c 	sts	0x0CA3, r24
						runInfo.endTime.second = dtime.second;
    37d8:	8b 81       	ldd	r24, Y+3	; 0x03
    37da:	80 93 a4 0c 	sts	0x0CA4, r24

						// stopping procedure done.
						strState = ST_ERROR;
    37de:	8c e0       	ldi	r24, 0x0C	; 12
    37e0:	90 e0       	ldi	r25, 0x00	; 0
    37e2:	90 93 14 08 	sts	0x0814, r25
    37e6:	80 93 13 08 	sts	0x0813, r24

						buzzProfile = BUZZ_ERROR;
    37ea:	80 e0       	ldi	r24, 0x00	; 0
    37ec:	90 e0       	ldi	r25, 0x00	; 0
    37ee:	a0 e0       	ldi	r26, 0x00	; 0
    37f0:	b0 e9       	ldi	r27, 0x90	; 144
    37f2:	80 93 0e 08 	sts	0x080E, r24
    37f6:	90 93 0f 08 	sts	0x080F, r25
    37fa:	a0 93 10 08 	sts	0x0810, r26
    37fe:	b0 93 11 08 	sts	0x0811, r27
						buzzIndex = 0;
    3802:	10 92 12 08 	sts	0x0812, r1

						runInfo.totalSeconds = totalRunSeconds;
    3806:	80 91 23 08 	lds	r24, 0x0823
    380a:	90 91 24 08 	lds	r25, 0x0824
    380e:	90 93 a1 0c 	sts	0x0CA1, r25
    3812:	80 93 a0 0c 	sts	0x0CA0, r24
						// check.. : needs to print ?
						str_event(strState, 1);
    3816:	8c e0       	ldi	r24, 0x0C	; 12
    3818:	90 e0       	ldi	r25, 0x00	; 0
    381a:	7c ce       	rjmp	.-776    	; 0x3514 <str_process+0x752>

	case ST_COMPLETE:
		{
			// note) printing, logging is done at str_event(*, 1)
			//----------------------------------------
			if (timer_isfired(tid_bto))
    381c:	80 91 2d 08 	lds	r24, 0x082D
    3820:	90 91 2e 08 	lds	r25, 0x082E
    3824:	0e 94 5c 08 	call	0x10b8	; 0x10b8 <timer_get>
    3828:	00 97       	sbiw	r24, 0x00	; 0
    382a:	71 f4       	brne	.+28     	; 0x3848 <str_process+0xa86>
			{
				timer_clear(tid_bto);
    382c:	80 91 2d 08 	lds	r24, 0x082D
    3830:	90 91 2e 08 	lds	r25, 0x082E
    3834:	0e 94 7f 08 	call	0x10fe	; 0x10fe <timer_clear>

				// stopping buzz.
				buzzProfile = 0;
    3838:	10 92 0e 08 	sts	0x080E, r1
    383c:	10 92 0f 08 	sts	0x080F, r1
    3840:	10 92 10 08 	sts	0x0810, r1
    3844:	10 92 11 08 	sts	0x0811, r1
		{
			// TODO: error clearing procedure needed.
			//----------------------------------------

			// if door is open/close => then reset state.
			if (isDoorOpen())
    3848:	80 91 4d 08 	lds	r24, 0x084D
    384c:	88 23       	and	r24, r24
    384e:	09 f4       	brne	.+2      	; 0x3852 <str_process+0xa90>
    3850:	52 c0       	rjmp	.+164    	; 0x38f6 <str_process+0xb34>
			{
				strState = ST_DOPEN;
    3852:	8d e0       	ldi	r24, 0x0D	; 13
    3854:	90 e0       	ldi	r25, 0x00	; 0
    3856:	90 93 14 08 	sts	0x0814, r25
    385a:	80 93 13 08 	sts	0x0813, r24

				buzzProfile = BUZZ_DOPEN;
    385e:	80 e0       	ldi	r24, 0x00	; 0
    3860:	90 e0       	ldi	r25, 0x00	; 0
    3862:	a0 e0       	ldi	r26, 0x00	; 0
    3864:	b8 ea       	ldi	r27, 0xA8	; 168
    3866:	80 93 0e 08 	sts	0x080E, r24
    386a:	90 93 0f 08 	sts	0x080F, r25
    386e:	a0 93 10 08 	sts	0x0810, r26
    3872:	b0 93 11 08 	sts	0x0811, r27
				buzzIndex = 0;
    3876:	10 92 12 08 	sts	0x0812, r1
    387a:	3d c0       	rjmp	.+122    	; 0x38f6 <str_process+0xb34>
		}
		break;

	case ST_DOPEN:
		{
			if (isDoorOpen())
    387c:	80 91 4d 08 	lds	r24, 0x084D
    3880:	88 23       	and	r24, r24
    3882:	c9 f5       	brne	.+114    	; 0x38f6 <str_process+0xb34>
			{
				// wait..
			}
			else
			{
				if (! isTestCompleted)
    3884:	80 91 21 08 	lds	r24, 0x0821
    3888:	90 91 22 08 	lds	r25, 0x0822
    388c:	00 97       	sbiw	r24, 0x00	; 0
    388e:	a1 f4       	brne	.+40     	; 0x38b8 <str_process+0xaf6>
				{
					// if not warm-up.. then go warmup.
					strState = ST_NONE;
    3890:	10 92 14 08 	sts	0x0814, r1
    3894:	10 92 13 08 	sts	0x0813, r1
					timer_set(tid_t1, INIT_DELAY);	// 3 sec delay
    3898:	80 91 15 08 	lds	r24, 0x0815
    389c:	90 91 16 08 	lds	r25, 0x0816
    38a0:	44 ef       	ldi	r20, 0xF4	; 244
    38a2:	51 e0       	ldi	r21, 0x01	; 1
    38a4:	60 e0       	ldi	r22, 0x00	; 0
    38a6:	70 e0       	ldi	r23, 0x00	; 0
    38a8:	0e 94 3e 08 	call	0x107c	; 0x107c <timer_set>
					currentCtrl.wls = 0;
    38ac:	80 91 1a 08 	lds	r24, 0x081A
					currentCtrl.ts = 0;
    38b0:	8f 73       	andi	r24, 0x3F	; 63
    38b2:	80 93 1a 08 	sts	0x081A, r24
    38b6:	0b c0       	rjmp	.+22     	; 0x38ce <str_process+0xb0c>
					ste_reset();		// dummy, engine must be stopped already.
				}
				else
				{
					// enable wls and ts at ready state
					currentCtrl.wls = 1;
    38b8:	80 91 1a 08 	lds	r24, 0x081A
					currentCtrl.ts = 1;
    38bc:	80 6c       	ori	r24, 0xC0	; 192
    38be:	80 93 1a 08 	sts	0x081A, r24

					strState = ST_READY;
    38c2:	83 e0       	ldi	r24, 0x03	; 3
    38c4:	90 e0       	ldi	r25, 0x00	; 0
    38c6:	90 93 14 08 	sts	0x0814, r25
    38ca:	80 93 13 08 	sts	0x0813, r24

					// stopping buzz.
					buzzProfile = 0x00000000;
    38ce:	10 92 0e 08 	sts	0x080E, r1
    38d2:	10 92 0f 08 	sts	0x080F, r1
    38d6:	10 92 10 08 	sts	0x0810, r1
    38da:	10 92 11 08 	sts	0x0811, r1
					buzzIndex = 0;
    38de:	10 92 12 08 	sts	0x0812, r1

					// clear error code
					errorCode = 0;
    38e2:	10 92 20 08 	sts	0x0820, r1
    38e6:	10 92 1f 08 	sts	0x081F, r1
					totalRunSeconds = 0;
    38ea:	10 92 24 08 	sts	0x0824, r1
    38ee:	10 92 23 08 	sts	0x0823, r1

					ste_reset();		// dummy, engine must be stopped already.
    38f2:	0e 94 0b 12 	call	0x2416	; 0x2416 <ste_reset>
	}
	//end switch.


	// buzzer. run
	if (timer_isfired(tid_buzz))
    38f6:	80 91 31 08 	lds	r24, 0x0831
    38fa:	90 91 32 08 	lds	r25, 0x0832
    38fe:	0e 94 5c 08 	call	0x10b8	; 0x10b8 <timer_get>
    3902:	00 97       	sbiw	r24, 0x00	; 0
    3904:	09 f0       	breq	.+2      	; 0x3908 <str_process+0xb46>
    3906:	93 c0       	rjmp	.+294    	; 0x3a2e <str_process+0xc6c>
	{
		timer_set(tid_buzz, 100);
    3908:	80 91 31 08 	lds	r24, 0x0831
    390c:	90 91 32 08 	lds	r25, 0x0832
    3910:	44 e6       	ldi	r20, 0x64	; 100
    3912:	50 e0       	ldi	r21, 0x00	; 0
    3914:	60 e0       	ldi	r22, 0x00	; 0
    3916:	70 e0       	ldi	r23, 0x00	; 0
    3918:	0e 94 3e 08 	call	0x107c	; 0x107c <timer_set>
#ifdef FT_NOERROR
#else
		if ((buzzProfile >> buzzIndex) & 0x01)	BUZZ_ON();
    391c:	80 91 0e 08 	lds	r24, 0x080E
    3920:	90 91 0f 08 	lds	r25, 0x080F
    3924:	a0 91 10 08 	lds	r26, 0x0810
    3928:	b0 91 11 08 	lds	r27, 0x0811
    392c:	00 90 12 08 	lds	r0, 0x0812
    3930:	04 c0       	rjmp	.+8      	; 0x393a <str_process+0xb78>
    3932:	b6 95       	lsr	r27
    3934:	a7 95       	ror	r26
    3936:	97 95       	ror	r25
    3938:	87 95       	ror	r24
    393a:	0a 94       	dec	r0
    393c:	d2 f7       	brpl	.-12     	; 0x3932 <str_process+0xb70>
    393e:	81 70       	andi	r24, 0x01	; 1
    3940:	90 70       	andi	r25, 0x00	; 0
    3942:	00 97       	sbiw	r24, 0x00	; 0
    3944:	21 f0       	breq	.+8      	; 0x394e <str_process+0xb8c>
    3946:	80 91 65 00 	lds	r24, 0x0065
    394a:	8e 7f       	andi	r24, 0xFE	; 254
    394c:	03 c0       	rjmp	.+6      	; 0x3954 <str_process+0xb92>
		else									BUZZ_OFF();
    394e:	80 91 65 00 	lds	r24, 0x0065
    3952:	81 60       	ori	r24, 0x01	; 1
    3954:	80 93 65 00 	sts	0x0065, r24
#endif
		buzzIndex++;
    3958:	80 91 12 08 	lds	r24, 0x0812
    395c:	8f 5f       	subi	r24, 0xFF	; 255
    395e:	80 93 12 08 	sts	0x0812, r24
		if (buzzIndex > 31) buzzIndex = 0;
    3962:	80 32       	cpi	r24, 0x20	; 32
    3964:	10 f0       	brcs	.+4      	; 0x396a <str_process+0xba8>
    3966:	10 92 12 08 	sts	0x0812, r1

static void checkDoorSensor()
{
	static uint8 count = 0;

	if (doorState == 0)		// closed..
    396a:	80 91 4d 08 	lds	r24, 0x084D
    396e:	88 23       	and	r24, r24
    3970:	81 f4       	brne	.+32     	; 0x3992 <str_process+0xbd0>
	{
		if (IS_DOOR_OPEN())
    3972:	80 91 63 00 	lds	r24, 0x0063
    3976:	83 ff       	sbrs	r24, 3
    3978:	1a c0       	rjmp	.+52     	; 0x39ae <str_process+0xbec>
		{
			if (count++ > 5)
    397a:	80 91 4e 08 	lds	r24, 0x084E
    397e:	98 2f       	mov	r25, r24
    3980:	9f 5f       	subi	r25, 0xFF	; 255
    3982:	90 93 4e 08 	sts	0x084E, r25
    3986:	86 30       	cpi	r24, 0x06	; 6
    3988:	a0 f0       	brcs	.+40     	; 0x39b2 <str_process+0xbf0>
			{
				doorState = 1;	// open.
    398a:	81 e0       	ldi	r24, 0x01	; 1
    398c:	80 93 4d 08 	sts	0x084D, r24
    3990:	0e c0       	rjmp	.+28     	; 0x39ae <str_process+0xbec>
			count = 0;
		}
	}
	else	// open.
	{
		if (IS_DOOR_OPEN())
    3992:	80 91 63 00 	lds	r24, 0x0063
    3996:	83 fd       	sbrc	r24, 3
    3998:	0a c0       	rjmp	.+20     	; 0x39ae <str_process+0xbec>
		{
			count = 0;
		}
		else
		{
			if (count++ > 5)
    399a:	80 91 4e 08 	lds	r24, 0x084E
    399e:	98 2f       	mov	r25, r24
    39a0:	9f 5f       	subi	r25, 0xFF	; 255
    39a2:	90 93 4e 08 	sts	0x084E, r25
    39a6:	86 30       	cpi	r24, 0x06	; 6
    39a8:	20 f0       	brcs	.+8      	; 0x39b2 <str_process+0xbf0>
			{
				doorState = 0;	// open.
    39aa:	10 92 4d 08 	sts	0x084D, r1
				count = 0;
    39ae:	10 92 4e 08 	sts	0x084E, r1
//
static void updateStateLed()
{
	static int cnt = 0;

	if (cnt < 9)	cnt++;
    39b2:	80 91 4f 08 	lds	r24, 0x084F
    39b6:	90 91 50 08 	lds	r25, 0x0850
    39ba:	89 30       	cpi	r24, 0x09	; 9
    39bc:	91 05       	cpc	r25, r1
    39be:	34 f4       	brge	.+12     	; 0x39cc <str_process+0xc0a>
    39c0:	01 96       	adiw	r24, 0x01	; 1
    39c2:	90 93 50 08 	sts	0x0850, r25
    39c6:	80 93 4f 08 	sts	0x084F, r24
    39ca:	04 c0       	rjmp	.+8      	; 0x39d4 <str_process+0xc12>
	else			cnt = 0;
    39cc:	10 92 50 08 	sts	0x0850, r1
    39d0:	10 92 4f 08 	sts	0x084F, r1

	switch (strState)
    39d4:	80 91 13 08 	lds	r24, 0x0813
    39d8:	90 91 14 08 	lds	r25, 0x0814
    39dc:	89 30       	cpi	r24, 0x09	; 9
    39de:	91 05       	cpc	r25, r1
    39e0:	34 f4       	brge	.+12     	; 0x39ee <str_process+0xc2c>
    39e2:	84 30       	cpi	r24, 0x04	; 4
    39e4:	91 05       	cpc	r25, r1
    39e6:	04 f5       	brge	.+64     	; 0x3a28 <str_process+0xc66>
    39e8:	97 ff       	sbrs	r25, 7
    39ea:	0f c0       	rjmp	.+30     	; 0x3a0a <str_process+0xc48>
    39ec:	1d c0       	rjmp	.+58     	; 0x3a28 <str_process+0xc66>
    39ee:	8b 30       	cpi	r24, 0x0B	; 11
    39f0:	91 05       	cpc	r25, r1
    39f2:	59 f0       	breq	.+22     	; 0x3a0a <str_process+0xc48>
    39f4:	8c 30       	cpi	r24, 0x0C	; 12
    39f6:	91 05       	cpc	r25, r1
    39f8:	24 f4       	brge	.+8      	; 0x3a02 <str_process+0xc40>
    39fa:	89 30       	cpi	r24, 0x09	; 9
    39fc:	91 05       	cpc	r25, r1
    39fe:	a1 f4       	brne	.+40     	; 0x3a28 <str_process+0xc66>
    3a00:	06 c0       	rjmp	.+12     	; 0x3a0e <str_process+0xc4c>
    3a02:	8e 30       	cpi	r24, 0x0E	; 14
    3a04:	91 05       	cpc	r25, r1
    3a06:	84 f4       	brge	.+32     	; 0x3a28 <str_process+0xc66>
    3a08:	04 c0       	rjmp	.+8      	; 0x3a12 <str_process+0xc50>
	case ST_WARMUP:
	case ST_CHECKING:
	case ST_READY:
	case ST_COMPLETE:
		{
			RUN_LED_OFF();
    3a0a:	1f 9a       	sbi	0x03, 7	; 3
    3a0c:	0e c0       	rjmp	.+28     	; 0x3a2a <str_process+0xc68>
			ERROR_LED_OFF();
		}
		break;
	case ST_EFINISH:
		{
			STOP_LED_ON();
    3a0e:	90 98       	cbi	0x12, 0	; 18
    3a10:	0e c0       	rjmp	.+28     	; 0x3a2e <str_process+0xc6c>
		break;

	case ST_ERROR:
	case ST_DOPEN:
		{
			RUN_LED_OFF();
    3a12:	1f 9a       	sbi	0x03, 7	; 3
			STOP_LED_OFF();
    3a14:	90 9a       	sbi	0x12, 0	; 18
			if (cnt < 5)	ERROR_LED_ON();
    3a16:	80 91 4f 08 	lds	r24, 0x084F
    3a1a:	90 91 50 08 	lds	r25, 0x0850
    3a1e:	85 30       	cpi	r24, 0x05	; 5
    3a20:	91 05       	cpc	r25, r1
    3a22:	24 f4       	brge	.+8      	; 0x3a2c <str_process+0xc6a>
    3a24:	94 98       	cbi	0x12, 4	; 18
    3a26:	03 c0       	rjmp	.+6      	; 0x3a2e <str_process+0xc6c>
			else			ERROR_LED_OFF();
		}
		break;
	default:
		{
			RUN_LED_ON();
    3a28:	1f 98       	cbi	0x03, 7	; 3
			STOP_LED_OFF();
    3a2a:	90 9a       	sbi	0x12, 0	; 18
			ERROR_LED_OFF();
    3a2c:	94 9a       	sbi	0x12, 4	; 18

		updateStateLed();
	}

	return 0;
}
    3a2e:	80 e0       	ldi	r24, 0x00	; 0
    3a30:	90 e0       	ldi	r25, 0x00	; 0
    3a32:	0f 90       	pop	r0
    3a34:	0f 90       	pop	r0
    3a36:	0f 90       	pop	r0
    3a38:	cf 91       	pop	r28
    3a3a:	df 91       	pop	r29
    3a3c:	1f 91       	pop	r17
    3a3e:	0f 91       	pop	r16
    3a40:	ff 90       	pop	r15
    3a42:	ef 90       	pop	r14
    3a44:	08 95       	ret

00003a46 <str_printState>:
	//DPRINTF("FLOW = %d\n", currFlowCount);

	// press in 1, 2
	DPRINTF("PL:%d, PH:%d\n", (PINB&0x20)?1:0, (PINB&0x40)?1:0);
#endif
}
    3a46:	08 95       	ret

00003a48 <ntc_getTemperature>:

/**
	  .
*/
int ntc_getTemperature()
{
    3a48:	8f 92       	push	r8
    3a4a:	9f 92       	push	r9
    3a4c:	af 92       	push	r10
    3a4e:	bf 92       	push	r11
    3a50:	cf 92       	push	r12
    3a52:	df 92       	push	r13
    3a54:	ef 92       	push	r14
    3a56:	ff 92       	push	r15
    3a58:	0f 93       	push	r16
    3a5a:	1f 93       	push	r17

static int ntc_getAdcValue()
{
	//int current_sensor_value;

	ADMUX= 0b00000011;	//ADC3 CHANNEL
    3a5c:	83 e0       	ldi	r24, 0x03	; 3
    3a5e:	87 b9       	out	0x07, r24	; 7
	SREG =0x80;
    3a60:	80 e8       	ldi	r24, 0x80	; 128
    3a62:	8f bf       	out	0x3f, r24	; 63
    ADCSRA=0b11010111;                 // ADEN=1, ADSC = 1   ,ADPS = 1/1/1  128
    3a64:	87 ed       	ldi	r24, 0xD7	; 215
    3a66:	86 b9       	out	0x06, r24	; 6
    while((ADCSRA & 0b00010000) == 0); // ADIF=1   
    3a68:	34 9b       	sbis	0x06, 4	; 6
    3a6a:	fe cf       	rjmp	.-4      	; 0x3a68 <ntc_getTemperature+0x20>
	//current_sensor_value = ADCL;	//10 5V/1024
	//current_sensor_value += ADCH<<8;

	return ADCW;
    3a6c:	64 b1       	in	r22, 0x04	; 4
    3a6e:	75 b1       	in	r23, 0x05	; 5
*/
int ntc_getTemperature()
{
	int adc = ntc_getAdcValue();

	return (int)ntc_toTemperature(adc);
    3a70:	88 27       	eor	r24, r24
    3a72:	77 fd       	sbrc	r23, 7
    3a74:	80 95       	com	r24
    3a76:	98 2f       	mov	r25, r24
    3a78:	0e 94 6f 26 	call	0x4cde	; 0x4cde <__floatsisf>
    3a7c:	d6 2e       	mov	r13, r22
    3a7e:	e7 2e       	mov	r14, r23
    3a80:	8c 01       	movw	r16, r24
float C1 = 2.69726E-03;


static float ntc_toTemperature(float adc)
{
	if (adc < 0.1) adc = 0.1;
    3a82:	91 2f       	mov	r25, r17
    3a84:	2d ec       	ldi	r18, 0xCD	; 205
    3a86:	3c ec       	ldi	r19, 0xCC	; 204
    3a88:	4c ec       	ldi	r20, 0xCC	; 204
    3a8a:	5d e3       	ldi	r21, 0x3D	; 61
    3a8c:	0e 94 d0 25 	call	0x4ba0	; 0x4ba0 <__cmpsf2>
    3a90:	87 ff       	sbrs	r24, 7
    3a92:	06 c0       	rjmp	.+12     	; 0x3aa0 <ntc_getTemperature+0x58>
    3a94:	3d ec       	ldi	r19, 0xCD	; 205
    3a96:	d3 2e       	mov	r13, r19
    3a98:	2c ec       	ldi	r18, 0xCC	; 204
    3a9a:	e2 2e       	mov	r14, r18
    3a9c:	0c ec       	ldi	r16, 0xCC	; 204
    3a9e:	1d e3       	ldi	r17, 0x3D	; 61

//	float r = 5000 * (1023 / adc - 1);

	// sensor at base.
	float adcV = (adc / 1023.) * 5;
    3aa0:	6d 2d       	mov	r22, r13
    3aa2:	7e 2d       	mov	r23, r14
    3aa4:	80 2f       	mov	r24, r16
    3aa6:	91 2f       	mov	r25, r17
    3aa8:	20 e0       	ldi	r18, 0x00	; 0
    3aaa:	30 ec       	ldi	r19, 0xC0	; 192
    3aac:	4f e7       	ldi	r20, 0x7F	; 127
    3aae:	54 e4       	ldi	r21, 0x44	; 68
    3ab0:	0e 94 d4 25 	call	0x4ba8	; 0x4ba8 <__divsf3>
    3ab4:	20 e0       	ldi	r18, 0x00	; 0
    3ab6:	30 e0       	ldi	r19, 0x00	; 0
    3ab8:	40 ea       	ldi	r20, 0xA0	; 160
    3aba:	50 e4       	ldi	r21, 0x40	; 64
    3abc:	0e 94 68 27 	call	0x4ed0	; 0x4ed0 <__mulsf3>
    3ac0:	d6 2e       	mov	r13, r22
    3ac2:	e7 2e       	mov	r14, r23
    3ac4:	8c 01       	movw	r16, r24
	if (adcV > 4.9) adcV = 4.9;
    3ac6:	91 2f       	mov	r25, r17
    3ac8:	2d ec       	ldi	r18, 0xCD	; 205
    3aca:	3c ec       	ldi	r19, 0xCC	; 204
    3acc:	4c e9       	ldi	r20, 0x9C	; 156
    3ace:	50 e4       	ldi	r21, 0x40	; 64
    3ad0:	0e 94 1f 27 	call	0x4e3e	; 0x4e3e <__gesf2>
    3ad4:	18 16       	cp	r1, r24
    3ad6:	34 f4       	brge	.+12     	; 0x3ae4 <ntc_getTemperature+0x9c>
    3ad8:	9d ec       	ldi	r25, 0xCD	; 205
    3ada:	d9 2e       	mov	r13, r25
    3adc:	8c ec       	ldi	r24, 0xCC	; 204
    3ade:	e8 2e       	mov	r14, r24
    3ae0:	0c e9       	ldi	r16, 0x9C	; 156
    3ae2:	10 e4       	ldi	r17, 0x40	; 64
	float r = (5000 * adcV) / (5 - adcV);
    3ae4:	6d 2d       	mov	r22, r13
    3ae6:	7e 2d       	mov	r23, r14
    3ae8:	80 2f       	mov	r24, r16
    3aea:	91 2f       	mov	r25, r17
    3aec:	20 e0       	ldi	r18, 0x00	; 0
    3aee:	30 e4       	ldi	r19, 0x40	; 64
    3af0:	4c e9       	ldi	r20, 0x9C	; 156
    3af2:	55 e4       	ldi	r21, 0x45	; 69
    3af4:	0e 94 68 27 	call	0x4ed0	; 0x4ed0 <__mulsf3>
    3af8:	4b 01       	movw	r8, r22
    3afa:	5c 01       	movw	r10, r24
    3afc:	60 e0       	ldi	r22, 0x00	; 0
    3afe:	70 e0       	ldi	r23, 0x00	; 0
    3b00:	80 ea       	ldi	r24, 0xA0	; 160
    3b02:	90 e4       	ldi	r25, 0x40	; 64
    3b04:	2d 2d       	mov	r18, r13
    3b06:	3e 2d       	mov	r19, r14
    3b08:	40 2f       	mov	r20, r16
    3b0a:	51 2f       	mov	r21, r17
    3b0c:	0e 94 6b 25 	call	0x4ad6	; 0x4ad6 <__subsf3>
    3b10:	9b 01       	movw	r18, r22
    3b12:	ac 01       	movw	r20, r24
    3b14:	c5 01       	movw	r24, r10
    3b16:	b4 01       	movw	r22, r8
    3b18:	0e 94 d4 25 	call	0x4ba8	; 0x4ba8 <__divsf3>


	// get temperature :
	float tR = r / 1000.;
    3b1c:	20 e0       	ldi	r18, 0x00	; 0
    3b1e:	30 e0       	ldi	r19, 0x00	; 0
    3b20:	4a e7       	ldi	r20, 0x7A	; 122
    3b22:	54 e4       	ldi	r21, 0x44	; 68
    3b24:	0e 94 d4 25 	call	0x4ba8	; 0x4ba8 <__divsf3>

	float t = 1 / (C1 + C2 * log(tR) + C3 * pow(log(tR), 3));
    3b28:	0e 94 28 27 	call	0x4e50	; 0x4e50 <log>
    3b2c:	7b 01       	movw	r14, r22
    3b2e:	8c 01       	movw	r16, r24
    3b30:	20 e0       	ldi	r18, 0x00	; 0
    3b32:	30 e0       	ldi	r19, 0x00	; 0
    3b34:	40 e4       	ldi	r20, 0x40	; 64
    3b36:	50 e4       	ldi	r21, 0x40	; 64
    3b38:	0e 94 cb 27 	call	0x4f96	; 0x4f96 <pow>
    3b3c:	d6 2e       	mov	r13, r22
    3b3e:	c7 2e       	mov	r12, r23
    3b40:	b8 2e       	mov	r11, r24
    3b42:	a9 2e       	mov	r10, r25
    3b44:	c8 01       	movw	r24, r16
    3b46:	b7 01       	movw	r22, r14
    3b48:	20 91 c6 07 	lds	r18, 0x07C6
    3b4c:	30 91 c7 07 	lds	r19, 0x07C7
    3b50:	40 91 c8 07 	lds	r20, 0x07C8
    3b54:	50 91 c9 07 	lds	r21, 0x07C9
    3b58:	0e 94 68 27 	call	0x4ed0	; 0x4ed0 <__mulsf3>
    3b5c:	20 91 ca 07 	lds	r18, 0x07CA
    3b60:	30 91 cb 07 	lds	r19, 0x07CB
    3b64:	40 91 cc 07 	lds	r20, 0x07CC
    3b68:	50 91 cd 07 	lds	r21, 0x07CD
    3b6c:	0e 94 6c 25 	call	0x4ad8	; 0x4ad8 <__addsf3>
    3b70:	7b 01       	movw	r14, r22
    3b72:	8c 01       	movw	r16, r24
    3b74:	a6 01       	movw	r20, r12
    3b76:	95 01       	movw	r18, r10
    3b78:	65 2f       	mov	r22, r21
    3b7a:	74 2f       	mov	r23, r20
    3b7c:	83 2f       	mov	r24, r19
    3b7e:	92 2f       	mov	r25, r18
    3b80:	20 91 c2 07 	lds	r18, 0x07C2
    3b84:	30 91 c3 07 	lds	r19, 0x07C3
    3b88:	40 91 c4 07 	lds	r20, 0x07C4
    3b8c:	50 91 c5 07 	lds	r21, 0x07C5
    3b90:	0e 94 68 27 	call	0x4ed0	; 0x4ed0 <__mulsf3>
    3b94:	9b 01       	movw	r18, r22
    3b96:	ac 01       	movw	r20, r24
    3b98:	c8 01       	movw	r24, r16
    3b9a:	b7 01       	movw	r22, r14
    3b9c:	0e 94 6c 25 	call	0x4ad8	; 0x4ad8 <__addsf3>
    3ba0:	9b 01       	movw	r18, r22
    3ba2:	ac 01       	movw	r20, r24
    3ba4:	60 e0       	ldi	r22, 0x00	; 0
    3ba6:	70 e0       	ldi	r23, 0x00	; 0
    3ba8:	80 e8       	ldi	r24, 0x80	; 128
    3baa:	9f e3       	ldi	r25, 0x3F	; 63
    3bac:	0e 94 d4 25 	call	0x4ba8	; 0x4ba8 <__divsf3>

	return t - 273.15;
    3bb0:	23 e3       	ldi	r18, 0x33	; 51
    3bb2:	33 e9       	ldi	r19, 0x93	; 147
    3bb4:	48 e8       	ldi	r20, 0x88	; 136
    3bb6:	53 e4       	ldi	r21, 0x43	; 67
    3bb8:	0e 94 6b 25 	call	0x4ad6	; 0x4ad6 <__subsf3>
*/
int ntc_getTemperature()
{
	int adc = ntc_getAdcValue();

	return (int)ntc_toTemperature(adc);
    3bbc:	0e 94 3c 26 	call	0x4c78	; 0x4c78 <__fixsfsi>
}
    3bc0:	cb 01       	movw	r24, r22
    3bc2:	1f 91       	pop	r17
    3bc4:	0f 91       	pop	r16
    3bc6:	ff 90       	pop	r15
    3bc8:	ef 90       	pop	r14
    3bca:	df 90       	pop	r13
    3bcc:	cf 90       	pop	r12
    3bce:	bf 90       	pop	r11
    3bd0:	af 90       	pop	r10
    3bd2:	9f 90       	pop	r9
    3bd4:	8f 90       	pop	r8
    3bd6:	08 95       	ret

00003bd8 <main>:
    3bd8:	cf 93       	push	r28
    3bda:	df 93       	push	r29
    3bdc:	cd b7       	in	r28, 0x3d	; 61
    3bde:	de b7       	in	r29, 0x3e	; 62
    3be0:	65 97       	sbiw	r28, 0x15	; 21
    3be2:	0f b6       	in	r0, 0x3f	; 63
    3be4:	f8 94       	cli
    3be6:	de bf       	out	0x3e, r29	; 62
    3be8:	0f be       	out	0x3f, r0	; 63
    3bea:	cd bf       	out	0x3d, r28	; 61
    3bec:	10 92 cf 07 	sts	0x07CF, r1
    3bf0:	10 92 ce 07 	sts	0x07CE, r1
    3bf4:	10 92 d1 07 	sts	0x07D1, r1
    3bf8:	10 92 d0 07 	sts	0x07D0, r1
    3bfc:	81 e0       	ldi	r24, 0x01	; 1
    3bfe:	90 e0       	ldi	r25, 0x00	; 0
    3c00:	90 93 d3 07 	sts	0x07D3, r25
    3c04:	80 93 d2 07 	sts	0x07D2, r24
    3c08:	10 92 d5 07 	sts	0x07D5, r1
    3c0c:	10 92 d4 07 	sts	0x07D4, r1
    3c10:	90 93 d7 07 	sts	0x07D7, r25
    3c14:	80 93 d6 07 	sts	0x07D6, r24
    3c18:	13 9a       	sbi	0x02, 3	; 2
    3c1a:	0e 94 f9 10 	call	0x21f2	; 0x21f2 <sdl_init>
    3c1e:	0e 94 d9 0a 	call	0x15b2	; 0x15b2 <ds1307_init>
    3c22:	0e 94 96 08 	call	0x112c	; 0x112c <timer_init>
    3c26:	0e 94 9b 13 	call	0x2736	; 0x2736 <str_init>
    3c2a:	0e 94 26 10 	call	0x204c	; 0x204c <ada_init>
    3c2e:	0e 94 12 0e 	call	0x1c24	; 0x1c24 <td_init>
    3c32:	82 e1       	ldi	r24, 0x12	; 18
    3c34:	96 e0       	ldi	r25, 0x06	; 6
    3c36:	0e 94 57 0f 	call	0x1eae	; 0x1eae <td_setEFont>
    3c3a:	0e 94 10 08 	call	0x1020	; 0x1020 <timer_alloc>
    3c3e:	90 93 d9 07 	sts	0x07D9, r25
    3c42:	80 93 d8 07 	sts	0x07D8, r24
    3c46:	44 ef       	ldi	r20, 0xF4	; 244
    3c48:	51 e0       	ldi	r21, 0x01	; 1
    3c4a:	60 e0       	ldi	r22, 0x00	; 0
    3c4c:	70 e0       	ldi	r23, 0x00	; 0
    3c4e:	0e 94 3e 08 	call	0x107c	; 0x107c <timer_set>
    3c52:	0e 94 10 08 	call	0x1020	; 0x1020 <timer_alloc>
    3c56:	90 93 db 07 	sts	0x07DB, r25
    3c5a:	80 93 da 07 	sts	0x07DA, r24
    3c5e:	0e 94 10 08 	call	0x1020	; 0x1020 <timer_alloc>
    3c62:	90 93 dd 07 	sts	0x07DD, r25
    3c66:	80 93 dc 07 	sts	0x07DC, r24
    3c6a:	44 e6       	ldi	r20, 0x64	; 100
    3c6c:	50 e0       	ldi	r21, 0x00	; 0
    3c6e:	60 e0       	ldi	r22, 0x00	; 0
    3c70:	70 e0       	ldi	r23, 0x00	; 0
    3c72:	0e 94 3e 08 	call	0x107c	; 0x107c <timer_set>
    3c76:	78 94       	sei
    3c78:	ce 01       	movw	r24, r28
    3c7a:	0b 96       	adiw	r24, 0x0b	; 11
    3c7c:	0e 94 27 0c 	call	0x184e	; 0x184e <ds1307_read_date>
    3c80:	ce 01       	movw	r24, r28
    3c82:	04 96       	adiw	r24, 0x04	; 4
    3c84:	0e 94 0d 0c 	call	0x181a	; 0x181a <ds1307_read_time>
    3c88:	8b 85       	ldd	r24, Y+11	; 0x0b
    3c8a:	80 93 de 07 	sts	0x07DE, r24
    3c8e:	8c 85       	ldd	r24, Y+12	; 0x0c
    3c90:	80 93 df 07 	sts	0x07DF, r24
    3c94:	8d 85       	ldd	r24, Y+13	; 0x0d
    3c96:	80 93 e0 07 	sts	0x07E0, r24
    3c9a:	8c 81       	ldd	r24, Y+4	; 0x04
    3c9c:	80 93 e1 07 	sts	0x07E1, r24
    3ca0:	8d 81       	ldd	r24, Y+5	; 0x05
    3ca2:	80 93 e2 07 	sts	0x07E2, r24
    3ca6:	8e 81       	ldd	r24, Y+6	; 0x06
    3ca8:	80 93 e3 07 	sts	0x07E3, r24
    3cac:	f8 94       	cli
    3cae:	84 e5       	ldi	r24, 0x54	; 84
    3cb0:	98 e0       	ldi	r25, 0x08	; 8
    3cb2:	60 e0       	ldi	r22, 0x00	; 0
    3cb4:	70 e0       	ldi	r23, 0x00	; 0
    3cb6:	4a e0       	ldi	r20, 0x0A	; 10
    3cb8:	50 e0       	ldi	r21, 0x00	; 0
    3cba:	0e 94 b4 2b 	call	0x5768	; 0x5768 <__eerd_block_m128>
    3cbe:	78 94       	sei
    3cc0:	80 91 54 08 	lds	r24, 0x0854
    3cc4:	81 3a       	cpi	r24, 0xA1	; 161
    3cc6:	99 f0       	breq	.+38     	; 0x3cee <main+0x116>
    3cc8:	85 e5       	ldi	r24, 0x55	; 85
    3cca:	98 e0       	ldi	r25, 0x08	; 8
    3ccc:	61 e2       	ldi	r22, 0x21	; 33
    3cce:	71 e0       	ldi	r23, 0x01	; 1
    3cd0:	0e 94 5f 29 	call	0x52be	; 0x52be <strcpy>
    3cd4:	81 ea       	ldi	r24, 0xA1	; 161
    3cd6:	80 93 54 08 	sts	0x0854, r24
    3cda:	f8 94       	cli
    3cdc:	84 e5       	ldi	r24, 0x54	; 84
    3cde:	98 e0       	ldi	r25, 0x08	; 8
    3ce0:	60 e0       	ldi	r22, 0x00	; 0
    3ce2:	70 e0       	ldi	r23, 0x00	; 0
    3ce4:	4a e0       	ldi	r20, 0x0A	; 10
    3ce6:	50 e0       	ldi	r21, 0x00	; 0
    3ce8:	0e 94 c4 2b 	call	0x5788	; 0x5788 <__eewr_block_m128>
    3cec:	78 94       	sei
    3cee:	87 e2       	ldi	r24, 0x27	; 39
    3cf0:	91 e0       	ldi	r25, 0x01	; 1
    3cf2:	0e 94 9b 11 	call	0x2336	; 0x2336 <sdl_write>
    3cf6:	85 e5       	ldi	r24, 0x55	; 85
    3cf8:	98 e0       	ldi	r25, 0x08	; 8
    3cfa:	0e 94 9b 11 	call	0x2336	; 0x2336 <sdl_write>
    3cfe:	8b e2       	ldi	r24, 0x2B	; 43
    3d00:	91 e0       	ldi	r25, 0x01	; 1
    3d02:	0e 94 9b 11 	call	0x2336	; 0x2336 <sdl_write>
    3d06:	81 e5       	ldi	r24, 0x51	; 81
    3d08:	98 e0       	ldi	r25, 0x08	; 8
    3d0a:	60 e0       	ldi	r22, 0x00	; 0
    3d0c:	70 e0       	ldi	r23, 0x00	; 0
    3d0e:	0e 94 32 02 	call	0x464	; 0x464 <loadStatInfo>
    3d12:	80 91 51 08 	lds	r24, 0x0851
    3d16:	81 3a       	cpi	r24, 0xA1	; 161
    3d18:	09 f4       	brne	.+2      	; 0x3d1c <main+0x144>
    3d1a:	cf c6       	rjmp	.+3486   	; 0x4aba <main+0xee2>
    3d1c:	81 e5       	ldi	r24, 0x51	; 81
    3d1e:	98 e0       	ldi	r25, 0x08	; 8
    3d20:	61 e0       	ldi	r22, 0x01	; 1
    3d22:	70 e0       	ldi	r23, 0x00	; 0
    3d24:	0e 94 32 02 	call	0x464	; 0x464 <loadStatInfo>
    3d28:	80 91 51 08 	lds	r24, 0x0851
    3d2c:	81 3a       	cpi	r24, 0xA1	; 161
    3d2e:	09 f4       	brne	.+2      	; 0x3d32 <main+0x15a>
    3d30:	cf c6       	rjmp	.+3486   	; 0x4ad0 <main+0xef8>
    3d32:	81 ea       	ldi	r24, 0xA1	; 161
    3d34:	80 93 51 08 	sts	0x0851, r24
    3d38:	10 92 53 08 	sts	0x0853, r1
    3d3c:	10 92 52 08 	sts	0x0852, r1
    3d40:	80 e0       	ldi	r24, 0x00	; 0
    3d42:	90 e0       	ldi	r25, 0x00	; 0
    3d44:	0e 94 41 02 	call	0x482	; 0x482 <saveStatInfo.constprop.2>
    3d48:	81 e0       	ldi	r24, 0x01	; 1
    3d4a:	90 e0       	ldi	r25, 0x00	; 0
    3d4c:	0e 94 41 02 	call	0x482	; 0x482 <saveStatInfo.constprop.2>
    3d50:	86 e7       	ldi	r24, 0x76	; 118
    3d52:	68 2e       	mov	r6, r24
    3d54:	88 e0       	ldi	r24, 0x08	; 8
    3d56:	78 2e       	mov	r7, r24
    3d58:	98 e1       	ldi	r25, 0x18	; 24
    3d5a:	29 2e       	mov	r2, r25
    3d5c:	31 2c       	mov	r3, r1
    3d5e:	26 0c       	add	r2, r6
    3d60:	37 1c       	adc	r3, r7
    3d62:	92 2c       	mov	r9, r2
    3d64:	83 2c       	mov	r8, r3
    3d66:	2b e9       	ldi	r18, 0x9B	; 155
    3d68:	42 2e       	mov	r4, r18
    3d6a:	22 e0       	ldi	r18, 0x02	; 2
    3d6c:	52 2e       	mov	r5, r18
    3d6e:	0e 94 e1 16 	call	0x2dc2	; 0x2dc2 <str_process>
    3d72:	0e 94 da 15 	call	0x2bb4	; 0x2bb4 <str_getState>
    3d76:	90 93 d5 07 	sts	0x07D5, r25
    3d7a:	80 93 d4 07 	sts	0x07D4, r24
    3d7e:	80 91 d8 07 	lds	r24, 0x07D8
    3d82:	90 91 d9 07 	lds	r25, 0x07D9
    3d86:	0e 94 5c 08 	call	0x10b8	; 0x10b8 <timer_get>
    3d8a:	00 97       	sbiw	r24, 0x00	; 0
    3d8c:	a1 f4       	brne	.+40     	; 0x3db6 <main+0x1de>
    3d8e:	80 91 d8 07 	lds	r24, 0x07D8
    3d92:	90 91 d9 07 	lds	r25, 0x07D9
    3d96:	44 ef       	ldi	r20, 0xF4	; 244
    3d98:	51 e0       	ldi	r21, 0x01	; 1
    3d9a:	60 e0       	ldi	r22, 0x00	; 0
    3d9c:	70 e0       	ldi	r23, 0x00	; 0
    3d9e:	0e 94 3e 08 	call	0x107c	; 0x107c <timer_set>
    3da2:	83 b1       	in	r24, 0x03	; 3
    3da4:	98 e0       	ldi	r25, 0x08	; 8
    3da6:	89 27       	eor	r24, r25
    3da8:	83 b9       	out	0x03, r24	; 3
    3daa:	81 e0       	ldi	r24, 0x01	; 1
    3dac:	90 e0       	ldi	r25, 0x00	; 0
    3dae:	90 93 d7 07 	sts	0x07D7, r25
    3db2:	80 93 d6 07 	sts	0x07D6, r24
    3db6:	80 91 dc 07 	lds	r24, 0x07DC
    3dba:	90 91 dd 07 	lds	r25, 0x07DD
    3dbe:	0e 94 5c 08 	call	0x10b8	; 0x10b8 <timer_get>
    3dc2:	00 97       	sbiw	r24, 0x00	; 0
    3dc4:	81 f4       	brne	.+32     	; 0x3de6 <main+0x20e>
    3dc6:	80 91 dc 07 	lds	r24, 0x07DC
    3dca:	90 91 dd 07 	lds	r25, 0x07DD
    3dce:	42 e0       	ldi	r20, 0x02	; 2
    3dd0:	50 e0       	ldi	r21, 0x00	; 0
    3dd2:	60 e0       	ldi	r22, 0x00	; 0
    3dd4:	70 e0       	ldi	r23, 0x00	; 0
    3dd6:	0e 94 3e 08 	call	0x107c	; 0x107c <timer_set>
    3dda:	0e 94 39 0d 	call	0x1a72	; 0x1a72 <key_getKey>
    3dde:	8c 01       	movw	r16, r24
    3de0:	0e 94 2f 11 	call	0x225e	; 0x225e <sdl_process>
    3de4:	02 c0       	rjmp	.+4      	; 0x3dea <main+0x212>
    3de6:	00 e0       	ldi	r16, 0x00	; 0
    3de8:	10 e0       	ldi	r17, 0x00	; 0
    3dea:	c8 01       	movw	r24, r16
    3dec:	80 70       	andi	r24, 0x00	; 0
    3dee:	20 91 da 07 	lds	r18, 0x07DA
    3df2:	30 91 db 07 	lds	r19, 0x07DB
    3df6:	00 97       	sbiw	r24, 0x00	; 0
    3df8:	09 f0       	breq	.+2      	; 0x3dfc <main+0x224>
    3dfa:	e6 c1       	rjmp	.+972    	; 0x41c8 <main+0x5f0>
    3dfc:	01 15       	cp	r16, r1
    3dfe:	11 05       	cpc	r17, r1
    3e00:	09 f4       	brne	.+2      	; 0x3e04 <main+0x22c>
    3e02:	e2 c1       	rjmp	.+964    	; 0x41c8 <main+0x5f0>
    3e04:	c9 01       	movw	r24, r18
    3e06:	48 e5       	ldi	r20, 0x58	; 88
    3e08:	5b e1       	ldi	r21, 0x1B	; 27
    3e0a:	60 e0       	ldi	r22, 0x00	; 0
    3e0c:	70 e0       	ldi	r23, 0x00	; 0
    3e0e:	0e 94 3e 08 	call	0x107c	; 0x107c <timer_set>
    3e12:	20 91 d4 07 	lds	r18, 0x07D4
    3e16:	30 91 d5 07 	lds	r19, 0x07D5
    3e1a:	23 30       	cpi	r18, 0x03	; 3
    3e1c:	31 05       	cpc	r19, r1
    3e1e:	09 f0       	breq	.+2      	; 0x3e22 <main+0x24a>
    3e20:	b3 c1       	rjmp	.+870    	; 0x4188 <main+0x5b0>
    3e22:	80 91 ce 07 	lds	r24, 0x07CE
    3e26:	90 91 cf 07 	lds	r25, 0x07CF
    3e2a:	00 97       	sbiw	r24, 0x00	; 0
    3e2c:	81 f5       	brne	.+96     	; 0x3e8e <main+0x2b6>
    3e2e:	01 33       	cpi	r16, 0x31	; 49
    3e30:	39 f4       	brne	.+14     	; 0x3e40 <main+0x268>
    3e32:	80 91 e4 07 	lds	r24, 0x07E4
    3e36:	85 30       	cpi	r24, 0x05	; 5
    3e38:	a1 f5       	brne	.+104    	; 0x3ea2 <main+0x2ca>
    3e3a:	0e 94 7a 15 	call	0x2af4	; 0x2af4 <str_startPTesting>
    3e3e:	24 c0       	rjmp	.+72     	; 0x3e88 <main+0x2b0>
    3e40:	00 33       	cpi	r16, 0x30	; 48
    3e42:	19 f4       	brne	.+6      	; 0x3e4a <main+0x272>
    3e44:	81 e0       	ldi	r24, 0x01	; 1
    3e46:	90 e0       	ldi	r25, 0x00	; 0
    3e48:	7e c1       	rjmp	.+764    	; 0x4146 <main+0x56e>
    3e4a:	02 33       	cpi	r16, 0x32	; 50
    3e4c:	11 f4       	brne	.+4      	; 0x3e52 <main+0x27a>
    3e4e:	81 e0       	ldi	r24, 0x01	; 1
    3e50:	07 c0       	rjmp	.+14     	; 0x3e60 <main+0x288>
    3e52:	03 33       	cpi	r16, 0x33	; 51
    3e54:	61 f4       	brne	.+24     	; 0x3e6e <main+0x296>
    3e56:	80 91 e4 07 	lds	r24, 0x07E4
    3e5a:	81 30       	cpi	r24, 0x01	; 1
    3e5c:	21 f4       	brne	.+8      	; 0x3e66 <main+0x28e>
    3e5e:	82 e0       	ldi	r24, 0x02	; 2
    3e60:	80 93 e4 07 	sts	0x07E4, r24
    3e64:	c4 c1       	rjmp	.+904    	; 0x41ee <main+0x616>
    3e66:	83 30       	cpi	r24, 0x03	; 3
    3e68:	79 f4       	brne	.+30     	; 0x3e88 <main+0x2b0>
    3e6a:	84 e0       	ldi	r24, 0x04	; 4
    3e6c:	f9 cf       	rjmp	.-14     	; 0x3e60 <main+0x288>
    3e6e:	04 33       	cpi	r16, 0x34	; 52
    3e70:	09 f0       	breq	.+2      	; 0x3e74 <main+0x29c>
    3e72:	bd c1       	rjmp	.+890    	; 0x41ee <main+0x616>
    3e74:	80 91 e4 07 	lds	r24, 0x07E4
    3e78:	82 30       	cpi	r24, 0x02	; 2
    3e7a:	11 f4       	brne	.+4      	; 0x3e80 <main+0x2a8>
    3e7c:	83 e0       	ldi	r24, 0x03	; 3
    3e7e:	f0 cf       	rjmp	.-32     	; 0x3e60 <main+0x288>
    3e80:	84 30       	cpi	r24, 0x04	; 4
    3e82:	11 f4       	brne	.+4      	; 0x3e88 <main+0x2b0>
    3e84:	85 e0       	ldi	r24, 0x05	; 5
    3e86:	ec cf       	rjmp	.-40     	; 0x3e60 <main+0x288>
    3e88:	10 92 e4 07 	sts	0x07E4, r1
    3e8c:	b0 c1       	rjmp	.+864    	; 0x41ee <main+0x616>
    3e8e:	81 30       	cpi	r24, 0x01	; 1
    3e90:	91 05       	cpc	r25, r1
    3e92:	09 f0       	breq	.+2      	; 0x3e96 <main+0x2be>
    3e94:	4b c0       	rjmp	.+150    	; 0x3f2c <main+0x354>
    3e96:	01 33       	cpi	r16, 0x31	; 49
    3e98:	e9 f4       	brne	.+58     	; 0x3ed4 <main+0x2fc>
    3e9a:	10 92 cf 07 	sts	0x07CF, r1
    3e9e:	10 92 ce 07 	sts	0x07CE, r1
    3ea2:	80 91 d2 07 	lds	r24, 0x07D2
    3ea6:	90 91 d3 07 	lds	r25, 0x07D3
    3eaa:	81 30       	cpi	r24, 0x01	; 1
    3eac:	91 05       	cpc	r25, r1
    3eae:	19 f4       	brne	.+6      	; 0x3eb6 <main+0x2de>
    3eb0:	81 e0       	ldi	r24, 0x01	; 1
    3eb2:	90 e0       	ldi	r25, 0x00	; 0
    3eb4:	05 c0       	rjmp	.+10     	; 0x3ec0 <main+0x2e8>
    3eb6:	82 30       	cpi	r24, 0x02	; 2
    3eb8:	91 05       	cpc	r25, r1
    3eba:	29 f4       	brne	.+10     	; 0x3ec6 <main+0x2ee>
    3ebc:	82 e0       	ldi	r24, 0x02	; 2
    3ebe:	90 e0       	ldi	r25, 0x00	; 0
    3ec0:	0e 94 18 16 	call	0x2c30	; 0x2c30 <str_start>
    3ec4:	94 c1       	rjmp	.+808    	; 0x41ee <main+0x616>
    3ec6:	83 30       	cpi	r24, 0x03	; 3
    3ec8:	91 05       	cpc	r25, r1
    3eca:	09 f0       	breq	.+2      	; 0x3ece <main+0x2f6>
    3ecc:	90 c1       	rjmp	.+800    	; 0x41ee <main+0x616>
    3ece:	0e 94 7f 14 	call	0x28fe	; 0x28fe <str_startSelfTest>
    3ed2:	8d c1       	rjmp	.+794    	; 0x41ee <main+0x616>
    3ed4:	00 33       	cpi	r16, 0x30	; 48
    3ed6:	09 f4       	brne	.+2      	; 0x3eda <main+0x302>
    3ed8:	5b c0       	rjmp	.+182    	; 0x3f90 <main+0x3b8>
    3eda:	03 33       	cpi	r16, 0x33	; 51
    3edc:	81 f4       	brne	.+32     	; 0x3efe <main+0x326>
    3ede:	80 91 d2 07 	lds	r24, 0x07D2
    3ee2:	90 91 d3 07 	lds	r25, 0x07D3
    3ee6:	83 30       	cpi	r24, 0x03	; 3
    3ee8:	91 05       	cpc	r25, r1
    3eea:	14 f4       	brge	.+4      	; 0x3ef0 <main+0x318>
    3eec:	01 96       	adiw	r24, 0x01	; 1
    3eee:	19 c0       	rjmp	.+50     	; 0x3f22 <main+0x34a>
    3ef0:	83 30       	cpi	r24, 0x03	; 3
    3ef2:	91 05       	cpc	r25, r1
    3ef4:	09 f0       	breq	.+2      	; 0x3ef8 <main+0x320>
    3ef6:	7b c1       	rjmp	.+758    	; 0x41ee <main+0x616>
    3ef8:	81 e0       	ldi	r24, 0x01	; 1
    3efa:	90 e0       	ldi	r25, 0x00	; 0
    3efc:	12 c0       	rjmp	.+36     	; 0x3f22 <main+0x34a>
    3efe:	04 33       	cpi	r16, 0x34	; 52
    3f00:	09 f0       	breq	.+2      	; 0x3f04 <main+0x32c>
    3f02:	75 c1       	rjmp	.+746    	; 0x41ee <main+0x616>
    3f04:	80 91 d2 07 	lds	r24, 0x07D2
    3f08:	90 91 d3 07 	lds	r25, 0x07D3
    3f0c:	82 30       	cpi	r24, 0x02	; 2
    3f0e:	91 05       	cpc	r25, r1
    3f10:	14 f0       	brlt	.+4      	; 0x3f16 <main+0x33e>
    3f12:	01 97       	sbiw	r24, 0x01	; 1
    3f14:	06 c0       	rjmp	.+12     	; 0x3f22 <main+0x34a>
    3f16:	81 30       	cpi	r24, 0x01	; 1
    3f18:	91 05       	cpc	r25, r1
    3f1a:	09 f0       	breq	.+2      	; 0x3f1e <main+0x346>
    3f1c:	68 c1       	rjmp	.+720    	; 0x41ee <main+0x616>
    3f1e:	83 e0       	ldi	r24, 0x03	; 3
    3f20:	90 e0       	ldi	r25, 0x00	; 0
    3f22:	90 93 d3 07 	sts	0x07D3, r25
    3f26:	80 93 d2 07 	sts	0x07D2, r24
    3f2a:	61 c1       	rjmp	.+706    	; 0x41ee <main+0x616>
    3f2c:	82 30       	cpi	r24, 0x02	; 2
    3f2e:	91 05       	cpc	r25, r1
    3f30:	79 f4       	brne	.+30     	; 0x3f50 <main+0x378>
    3f32:	00 33       	cpi	r16, 0x30	; 48
    3f34:	19 f4       	brne	.+6      	; 0x3f3c <main+0x364>
    3f36:	84 e0       	ldi	r24, 0x04	; 4
    3f38:	90 e0       	ldi	r25, 0x00	; 0
    3f3a:	05 c1       	rjmp	.+522    	; 0x4146 <main+0x56e>
    3f3c:	04 33       	cpi	r16, 0x34	; 52
    3f3e:	09 f0       	breq	.+2      	; 0x3f42 <main+0x36a>
    3f40:	56 c1       	rjmp	.+684    	; 0x41ee <main+0x616>
    3f42:	30 93 cf 07 	sts	0x07CF, r19
    3f46:	20 93 ce 07 	sts	0x07CE, r18
    3f4a:	81 e0       	ldi	r24, 0x01	; 1
    3f4c:	90 e0       	ldi	r25, 0x00	; 0
    3f4e:	0e c0       	rjmp	.+28     	; 0x3f6c <main+0x394>
    3f50:	83 30       	cpi	r24, 0x03	; 3
    3f52:	91 05       	cpc	r25, r1
    3f54:	09 f0       	breq	.+2      	; 0x3f58 <main+0x380>
    3f56:	ed c0       	rjmp	.+474    	; 0x4132 <main+0x55a>
    3f58:	00 33       	cpi	r16, 0x30	; 48
    3f5a:	e9 f4       	brne	.+58     	; 0x3f96 <main+0x3be>
    3f5c:	80 91 d0 07 	lds	r24, 0x07D0
    3f60:	90 91 d1 07 	lds	r25, 0x07D1
    3f64:	86 30       	cpi	r24, 0x06	; 6
    3f66:	91 05       	cpc	r25, r1
    3f68:	34 f4       	brge	.+12     	; 0x3f76 <main+0x39e>
    3f6a:	01 96       	adiw	r24, 0x01	; 1
    3f6c:	90 93 d1 07 	sts	0x07D1, r25
    3f70:	80 93 d0 07 	sts	0x07D0, r24
    3f74:	3c c1       	rjmp	.+632    	; 0x41ee <main+0x616>
    3f76:	80 e0       	ldi	r24, 0x00	; 0
    3f78:	60 91 e2 07 	lds	r22, 0x07E2
    3f7c:	40 91 e1 07 	lds	r20, 0x07E1
    3f80:	20 91 e0 07 	lds	r18, 0x07E0
    3f84:	00 91 df 07 	lds	r16, 0x07DF
    3f88:	e0 90 de 07 	lds	r14, 0x07DE
    3f8c:	0e 94 62 0c 	call	0x18c4	; 0x18c4 <ds1307_set_datetime>
    3f90:	82 e0       	ldi	r24, 0x02	; 2
    3f92:	90 e0       	ldi	r25, 0x00	; 0
    3f94:	d8 c0       	rjmp	.+432    	; 0x4146 <main+0x56e>
    3f96:	03 33       	cpi	r16, 0x33	; 51
    3f98:	09 f0       	breq	.+2      	; 0x3f9c <main+0x3c4>
    3f9a:	59 c0       	rjmp	.+178    	; 0x404e <main+0x476>
    3f9c:	80 91 d0 07 	lds	r24, 0x07D0
    3fa0:	90 91 d1 07 	lds	r25, 0x07D1
    3fa4:	83 30       	cpi	r24, 0x03	; 3
    3fa6:	91 05       	cpc	r25, r1
    3fa8:	39 f1       	breq	.+78     	; 0x3ff8 <main+0x420>
    3faa:	84 30       	cpi	r24, 0x04	; 4
    3fac:	91 05       	cpc	r25, r1
    3fae:	44 f4       	brge	.+16     	; 0x3fc0 <main+0x3e8>
    3fb0:	81 30       	cpi	r24, 0x01	; 1
    3fb2:	91 05       	cpc	r25, r1
    3fb4:	81 f0       	breq	.+32     	; 0x3fd6 <main+0x3fe>
    3fb6:	82 30       	cpi	r24, 0x02	; 2
    3fb8:	91 05       	cpc	r25, r1
    3fba:	09 f0       	breq	.+2      	; 0x3fbe <main+0x3e6>
    3fbc:	18 c1       	rjmp	.+560    	; 0x41ee <main+0x616>
    3fbe:	12 c0       	rjmp	.+36     	; 0x3fe4 <main+0x40c>
    3fc0:	85 30       	cpi	r24, 0x05	; 5
    3fc2:	91 05       	cpc	r25, r1
    3fc4:	71 f1       	breq	.+92     	; 0x4022 <main+0x44a>
    3fc6:	85 30       	cpi	r24, 0x05	; 5
    3fc8:	91 05       	cpc	r25, r1
    3fca:	04 f1       	brlt	.+64     	; 0x400c <main+0x434>
    3fcc:	86 30       	cpi	r24, 0x06	; 6
    3fce:	91 05       	cpc	r25, r1
    3fd0:	09 f0       	breq	.+2      	; 0x3fd4 <main+0x3fc>
    3fd2:	0d c1       	rjmp	.+538    	; 0x41ee <main+0x616>
    3fd4:	31 c0       	rjmp	.+98     	; 0x4038 <main+0x460>
    3fd6:	80 91 de 07 	lds	r24, 0x07DE
    3fda:	83 36       	cpi	r24, 0x63	; 99
    3fdc:	08 f0       	brcs	.+2      	; 0x3fe0 <main+0x408>
    3fde:	07 c1       	rjmp	.+526    	; 0x41ee <main+0x616>
    3fe0:	8f 5f       	subi	r24, 0xFF	; 255
    3fe2:	5c c0       	rjmp	.+184    	; 0x409c <main+0x4c4>
    3fe4:	80 91 df 07 	lds	r24, 0x07DF
    3fe8:	8f 5f       	subi	r24, 0xFF	; 255
    3fea:	80 93 df 07 	sts	0x07DF, r24
    3fee:	8d 30       	cpi	r24, 0x0D	; 13
    3ff0:	08 f4       	brcc	.+2      	; 0x3ff4 <main+0x41c>
    3ff2:	fd c0       	rjmp	.+506    	; 0x41ee <main+0x616>
    3ff4:	81 e0       	ldi	r24, 0x01	; 1
    3ff6:	5d c0       	rjmp	.+186    	; 0x40b2 <main+0x4da>
    3ff8:	80 91 e0 07 	lds	r24, 0x07E0
    3ffc:	8f 5f       	subi	r24, 0xFF	; 255
    3ffe:	80 93 e0 07 	sts	0x07E0, r24
    4002:	80 32       	cpi	r24, 0x20	; 32
    4004:	08 f4       	brcc	.+2      	; 0x4008 <main+0x430>
    4006:	f3 c0       	rjmp	.+486    	; 0x41ee <main+0x616>
    4008:	81 e0       	ldi	r24, 0x01	; 1
    400a:	65 c0       	rjmp	.+202    	; 0x40d6 <main+0x4fe>
    400c:	80 91 e1 07 	lds	r24, 0x07E1
    4010:	8f 5f       	subi	r24, 0xFF	; 255
    4012:	80 93 e1 07 	sts	0x07E1, r24
    4016:	88 31       	cpi	r24, 0x18	; 24
    4018:	08 f4       	brcc	.+2      	; 0x401c <main+0x444>
    401a:	e9 c0       	rjmp	.+466    	; 0x41ee <main+0x616>
    401c:	10 92 e1 07 	sts	0x07E1, r1
    4020:	e6 c0       	rjmp	.+460    	; 0x41ee <main+0x616>
    4022:	80 91 e2 07 	lds	r24, 0x07E2
    4026:	8f 5f       	subi	r24, 0xFF	; 255
    4028:	80 93 e2 07 	sts	0x07E2, r24
    402c:	8c 33       	cpi	r24, 0x3C	; 60
    402e:	08 f4       	brcc	.+2      	; 0x4032 <main+0x45a>
    4030:	de c0       	rjmp	.+444    	; 0x41ee <main+0x616>
    4032:	10 92 e2 07 	sts	0x07E2, r1
    4036:	db c0       	rjmp	.+438    	; 0x41ee <main+0x616>
    4038:	80 91 e3 07 	lds	r24, 0x07E3
    403c:	8f 5f       	subi	r24, 0xFF	; 255
    403e:	80 93 e3 07 	sts	0x07E3, r24
    4042:	8c 33       	cpi	r24, 0x3C	; 60
    4044:	08 f4       	brcc	.+2      	; 0x4048 <main+0x470>
    4046:	d3 c0       	rjmp	.+422    	; 0x41ee <main+0x616>
    4048:	10 92 e3 07 	sts	0x07E3, r1
    404c:	d0 c0       	rjmp	.+416    	; 0x41ee <main+0x616>
    404e:	04 33       	cpi	r16, 0x34	; 52
    4050:	09 f0       	breq	.+2      	; 0x4054 <main+0x47c>
    4052:	cd c0       	rjmp	.+410    	; 0x41ee <main+0x616>
    4054:	80 91 d0 07 	lds	r24, 0x07D0
    4058:	90 91 d1 07 	lds	r25, 0x07D1
    405c:	83 30       	cpi	r24, 0x03	; 3
    405e:	91 05       	cpc	r25, r1
    4060:	91 f1       	breq	.+100    	; 0x40c6 <main+0x4ee>
    4062:	84 30       	cpi	r24, 0x04	; 4
    4064:	91 05       	cpc	r25, r1
    4066:	44 f4       	brge	.+16     	; 0x4078 <main+0x4a0>
    4068:	81 30       	cpi	r24, 0x01	; 1
    406a:	91 05       	cpc	r25, r1
    406c:	89 f0       	breq	.+34     	; 0x4090 <main+0x4b8>
    406e:	82 30       	cpi	r24, 0x02	; 2
    4070:	91 05       	cpc	r25, r1
    4072:	09 f0       	breq	.+2      	; 0x4076 <main+0x49e>
    4074:	bc c0       	rjmp	.+376    	; 0x41ee <main+0x616>
    4076:	15 c0       	rjmp	.+42     	; 0x40a2 <main+0x4ca>
    4078:	85 30       	cpi	r24, 0x05	; 5
    407a:	91 05       	cpc	r25, r1
    407c:	09 f4       	brne	.+2      	; 0x4080 <main+0x4a8>
    407e:	41 c0       	rjmp	.+130    	; 0x4102 <main+0x52a>
    4080:	85 30       	cpi	r24, 0x05	; 5
    4082:	91 05       	cpc	r25, r1
    4084:	a4 f1       	brlt	.+104    	; 0x40ee <main+0x516>
    4086:	86 30       	cpi	r24, 0x06	; 6
    4088:	91 05       	cpc	r25, r1
    408a:	09 f0       	breq	.+2      	; 0x408e <main+0x4b6>
    408c:	b0 c0       	rjmp	.+352    	; 0x41ee <main+0x616>
    408e:	45 c0       	rjmp	.+138    	; 0x411a <main+0x542>
    4090:	80 91 de 07 	lds	r24, 0x07DE
    4094:	88 23       	and	r24, r24
    4096:	09 f4       	brne	.+2      	; 0x409a <main+0x4c2>
    4098:	aa c0       	rjmp	.+340    	; 0x41ee <main+0x616>
    409a:	81 50       	subi	r24, 0x01	; 1
    409c:	80 93 de 07 	sts	0x07DE, r24
    40a0:	a6 c0       	rjmp	.+332    	; 0x41ee <main+0x616>
    40a2:	80 91 df 07 	lds	r24, 0x07DF
    40a6:	81 50       	subi	r24, 0x01	; 1
    40a8:	80 93 df 07 	sts	0x07DF, r24
    40ac:	88 23       	and	r24, r24
    40ae:	21 f4       	brne	.+8      	; 0x40b8 <main+0x4e0>
    40b0:	8c e0       	ldi	r24, 0x0C	; 12
    40b2:	80 93 df 07 	sts	0x07DF, r24
    40b6:	9b c0       	rjmp	.+310    	; 0x41ee <main+0x616>
    40b8:	80 91 e1 07 	lds	r24, 0x07E1
    40bc:	8d 30       	cpi	r24, 0x0D	; 13
    40be:	08 f4       	brcc	.+2      	; 0x40c2 <main+0x4ea>
    40c0:	96 c0       	rjmp	.+300    	; 0x41ee <main+0x616>
    40c2:	8c e0       	ldi	r24, 0x0C	; 12
    40c4:	11 c0       	rjmp	.+34     	; 0x40e8 <main+0x510>
    40c6:	80 91 e0 07 	lds	r24, 0x07E0
    40ca:	81 50       	subi	r24, 0x01	; 1
    40cc:	80 93 e0 07 	sts	0x07E0, r24
    40d0:	88 23       	and	r24, r24
    40d2:	21 f4       	brne	.+8      	; 0x40dc <main+0x504>
    40d4:	8f e1       	ldi	r24, 0x1F	; 31
    40d6:	80 93 e0 07 	sts	0x07E0, r24
    40da:	89 c0       	rjmp	.+274    	; 0x41ee <main+0x616>
    40dc:	80 91 e1 07 	lds	r24, 0x07E1
    40e0:	80 32       	cpi	r24, 0x20	; 32
    40e2:	08 f4       	brcc	.+2      	; 0x40e6 <main+0x50e>
    40e4:	84 c0       	rjmp	.+264    	; 0x41ee <main+0x616>
    40e6:	8f e1       	ldi	r24, 0x1F	; 31
    40e8:	80 93 e1 07 	sts	0x07E1, r24
    40ec:	80 c0       	rjmp	.+256    	; 0x41ee <main+0x616>
    40ee:	80 91 e1 07 	lds	r24, 0x07E1
    40f2:	81 50       	subi	r24, 0x01	; 1
    40f4:	80 93 e1 07 	sts	0x07E1, r24
    40f8:	88 31       	cpi	r24, 0x18	; 24
    40fa:	08 f4       	brcc	.+2      	; 0x40fe <main+0x526>
    40fc:	78 c0       	rjmp	.+240    	; 0x41ee <main+0x616>
    40fe:	87 e1       	ldi	r24, 0x17	; 23
    4100:	f3 cf       	rjmp	.-26     	; 0x40e8 <main+0x510>
    4102:	80 91 e2 07 	lds	r24, 0x07E2
    4106:	81 50       	subi	r24, 0x01	; 1
    4108:	80 93 e2 07 	sts	0x07E2, r24
    410c:	8c 33       	cpi	r24, 0x3C	; 60
    410e:	08 f4       	brcc	.+2      	; 0x4112 <main+0x53a>
    4110:	6e c0       	rjmp	.+220    	; 0x41ee <main+0x616>
    4112:	8b e3       	ldi	r24, 0x3B	; 59
    4114:	80 93 e2 07 	sts	0x07E2, r24
    4118:	6a c0       	rjmp	.+212    	; 0x41ee <main+0x616>
    411a:	80 91 e3 07 	lds	r24, 0x07E3
    411e:	8f 5f       	subi	r24, 0xFF	; 255
    4120:	80 93 e3 07 	sts	0x07E3, r24
    4124:	8c 33       	cpi	r24, 0x3C	; 60
    4126:	08 f4       	brcc	.+2      	; 0x412a <main+0x552>
    4128:	62 c0       	rjmp	.+196    	; 0x41ee <main+0x616>
    412a:	8b e3       	ldi	r24, 0x3B	; 59
    412c:	80 93 e3 07 	sts	0x07E3, r24
    4130:	5e c0       	rjmp	.+188    	; 0x41ee <main+0x616>
    4132:	84 30       	cpi	r24, 0x04	; 4
    4134:	91 05       	cpc	r25, r1
    4136:	61 f4       	brne	.+24     	; 0x4150 <main+0x578>
    4138:	00 33       	cpi	r16, 0x30	; 48
    413a:	09 f1       	breq	.+66     	; 0x417e <main+0x5a6>
    413c:	04 33       	cpi	r16, 0x34	; 52
    413e:	09 f0       	breq	.+2      	; 0x4142 <main+0x56a>
    4140:	56 c0       	rjmp	.+172    	; 0x41ee <main+0x616>
    4142:	85 e0       	ldi	r24, 0x05	; 5
    4144:	90 e0       	ldi	r25, 0x00	; 0
    4146:	90 93 cf 07 	sts	0x07CF, r25
    414a:	80 93 ce 07 	sts	0x07CE, r24
    414e:	4f c0       	rjmp	.+158    	; 0x41ee <main+0x616>
    4150:	85 30       	cpi	r24, 0x05	; 5
    4152:	91 05       	cpc	r25, r1
    4154:	09 f0       	breq	.+2      	; 0x4158 <main+0x580>
    4156:	4b c0       	rjmp	.+150    	; 0x41ee <main+0x616>
    4158:	00 33       	cpi	r16, 0x30	; 48
    415a:	89 f0       	breq	.+34     	; 0x417e <main+0x5a6>
    415c:	03 33       	cpi	r16, 0x33	; 51
    415e:	69 f4       	brne	.+26     	; 0x417a <main+0x5a2>
    4160:	10 92 53 08 	sts	0x0853, r1
    4164:	10 92 52 08 	sts	0x0852, r1
    4168:	80 e0       	ldi	r24, 0x00	; 0
    416a:	90 e0       	ldi	r25, 0x00	; 0
    416c:	0e 94 41 02 	call	0x482	; 0x482 <saveStatInfo.constprop.2>
    4170:	81 e0       	ldi	r24, 0x01	; 1
    4172:	90 e0       	ldi	r25, 0x00	; 0
    4174:	0e 94 41 02 	call	0x482	; 0x482 <saveStatInfo.constprop.2>
    4178:	02 c0       	rjmp	.+4      	; 0x417e <main+0x5a6>
    417a:	04 33       	cpi	r16, 0x34	; 52
    417c:	c1 f5       	brne	.+112    	; 0x41ee <main+0x616>
    417e:	10 92 cf 07 	sts	0x07CF, r1
    4182:	10 92 ce 07 	sts	0x07CE, r1
    4186:	33 c0       	rjmp	.+102    	; 0x41ee <main+0x616>
    4188:	21 15       	cp	r18, r1
    418a:	31 05       	cpc	r19, r1
    418c:	29 f4       	brne	.+10     	; 0x4198 <main+0x5c0>
    418e:	00 33       	cpi	r16, 0x30	; 48
    4190:	71 f5       	brne	.+92     	; 0x41ee <main+0x616>
    4192:	0e 94 14 14 	call	0x2828	; 0x2828 <str_goReady>
    4196:	2b c0       	rjmp	.+86     	; 0x41ee <main+0x616>
    4198:	27 30       	cpi	r18, 0x07	; 7
    419a:	31 05       	cpc	r19, r1
    419c:	29 f4       	brne	.+10     	; 0x41a8 <main+0x5d0>
    419e:	02 33       	cpi	r16, 0x32	; 50
    41a0:	31 f5       	brne	.+76     	; 0x41ee <main+0x616>
    41a2:	0e 94 a3 16 	call	0x2d46	; 0x2d46 <str_userStop>
    41a6:	07 c0       	rjmp	.+14     	; 0x41b6 <main+0x5de>
    41a8:	26 30       	cpi	r18, 0x06	; 6
    41aa:	31 05       	cpc	r19, r1
    41ac:	01 f5       	brne	.+64     	; 0x41ee <main+0x616>
    41ae:	02 33       	cpi	r16, 0x32	; 50
    41b0:	f1 f4       	brne	.+60     	; 0x41ee <main+0x616>
    41b2:	0e 94 b5 15 	call	0x2b6a	; 0x2b6a <str_stopPTesting>
    41b6:	00 97       	sbiw	r24, 0x00	; 0
    41b8:	d1 f4       	brne	.+52     	; 0x41ee <main+0x616>
    41ba:	0e 94 da 15 	call	0x2bb4	; 0x2bb4 <str_getState>
    41be:	90 93 d5 07 	sts	0x07D5, r25
    41c2:	80 93 d4 07 	sts	0x07D4, r24
    41c6:	13 c0       	rjmp	.+38     	; 0x41ee <main+0x616>
    41c8:	c9 01       	movw	r24, r18
    41ca:	0e 94 5c 08 	call	0x10b8	; 0x10b8 <timer_get>
    41ce:	00 97       	sbiw	r24, 0x00	; 0
    41d0:	a1 f4       	brne	.+40     	; 0x41fa <main+0x622>
    41d2:	80 91 da 07 	lds	r24, 0x07DA
    41d6:	90 91 db 07 	lds	r25, 0x07DB
    41da:	0e 94 7f 08 	call	0x10fe	; 0x10fe <timer_clear>
    41de:	10 92 cf 07 	sts	0x07CF, r1
    41e2:	10 92 ce 07 	sts	0x07CE, r1
    41e6:	10 92 d1 07 	sts	0x07D1, r1
    41ea:	10 92 d0 07 	sts	0x07D0, r1
    41ee:	81 e0       	ldi	r24, 0x01	; 1
    41f0:	90 e0       	ldi	r25, 0x00	; 0
    41f2:	90 93 d7 07 	sts	0x07D7, r25
    41f6:	80 93 d6 07 	sts	0x07D6, r24
    41fa:	80 91 d6 07 	lds	r24, 0x07D6
    41fe:	90 91 d7 07 	lds	r25, 0x07D7
    4202:	00 97       	sbiw	r24, 0x00	; 0
    4204:	09 f4       	brne	.+2      	; 0x4208 <main+0x630>
    4206:	b3 cd       	rjmp	.-1178   	; 0x3d6e <main+0x196>
    4208:	0e 94 ee 15 	call	0x2bdc	; 0x2bdc <str_getRunSeconds>
    420c:	6c e3       	ldi	r22, 0x3C	; 60
    420e:	70 e0       	ldi	r23, 0x00	; 0
    4210:	0e 94 2a 29 	call	0x5254	; 0x5254 <__divmodhi4>
    4214:	16 2f       	mov	r17, r22
    4216:	07 2f       	mov	r16, r23
    4218:	f8 2e       	mov	r15, r24
    421a:	e9 2e       	mov	r14, r25
    421c:	68 01       	movw	r12, r16
    421e:	57 01       	movw	r10, r14
    4220:	8e e5       	ldi	r24, 0x5E	; 94
    4222:	98 e0       	ldi	r25, 0x08	; 8
    4224:	6d e2       	ldi	r22, 0x2D	; 45
    4226:	71 e0       	ldi	r23, 0x01	; 1
    4228:	0e 94 5f 29 	call	0x52be	; 0x52be <strcpy>
    422c:	86 e7       	ldi	r24, 0x76	; 118
    422e:	98 e0       	ldi	r25, 0x08	; 8
    4230:	6d e2       	ldi	r22, 0x2D	; 45
    4232:	71 e0       	ldi	r23, 0x01	; 1
    4234:	0e 94 5f 29 	call	0x52be	; 0x52be <strcpy>
    4238:	8e e8       	ldi	r24, 0x8E	; 142
    423a:	98 e0       	ldi	r25, 0x08	; 8
    423c:	6d e2       	ldi	r22, 0x2D	; 45
    423e:	71 e0       	ldi	r23, 0x01	; 1
    4240:	0e 94 5f 29 	call	0x52be	; 0x52be <strcpy>
    4244:	86 ea       	ldi	r24, 0xA6	; 166
    4246:	98 e0       	ldi	r25, 0x08	; 8
    4248:	6d e2       	ldi	r22, 0x2D	; 45
    424a:	71 e0       	ldi	r23, 0x01	; 1
    424c:	0e 94 5f 29 	call	0x52be	; 0x52be <strcpy>
    4250:	80 91 d4 07 	lds	r24, 0x07D4
    4254:	90 91 d5 07 	lds	r25, 0x07D5
    4258:	86 30       	cpi	r24, 0x06	; 6
    425a:	91 05       	cpc	r25, r1
    425c:	09 f4       	brne	.+2      	; 0x4260 <main+0x688>
    425e:	43 c3       	rjmp	.+1670   	; 0x48e6 <main+0xd0e>
    4260:	87 30       	cpi	r24, 0x07	; 7
    4262:	91 05       	cpc	r25, r1
    4264:	bc f4       	brge	.+46     	; 0x4294 <main+0x6bc>
    4266:	82 30       	cpi	r24, 0x02	; 2
    4268:	91 05       	cpc	r25, r1
    426a:	09 f4       	brne	.+2      	; 0x426e <main+0x696>
    426c:	66 c0       	rjmp	.+204    	; 0x433a <main+0x762>
    426e:	83 30       	cpi	r24, 0x03	; 3
    4270:	91 05       	cpc	r25, r1
    4272:	3c f4       	brge	.+14     	; 0x4282 <main+0x6aa>
    4274:	00 97       	sbiw	r24, 0x00	; 0
    4276:	59 f1       	breq	.+86     	; 0x42ce <main+0x6f6>
    4278:	81 30       	cpi	r24, 0x01	; 1
    427a:	91 05       	cpc	r25, r1
    427c:	09 f0       	breq	.+2      	; 0x4280 <main+0x6a8>
    427e:	f8 c3       	rjmp	.+2032   	; 0x4a70 <main+0xe98>
    4280:	3d c0       	rjmp	.+122    	; 0x42fc <main+0x724>
    4282:	84 30       	cpi	r24, 0x04	; 4
    4284:	91 05       	cpc	r25, r1
    4286:	09 f4       	brne	.+2      	; 0x428a <main+0x6b2>
    4288:	20 c2       	rjmp	.+1088   	; 0x46ca <main+0xaf2>
    428a:	85 30       	cpi	r24, 0x05	; 5
    428c:	91 05       	cpc	r25, r1
    428e:	0c f0       	brlt	.+2      	; 0x4292 <main+0x6ba>
    4290:	0b c3       	rjmp	.+1558   	; 0x48a8 <main+0xcd0>
    4292:	6a c0       	rjmp	.+212    	; 0x4368 <main+0x790>
    4294:	8a 30       	cpi	r24, 0x0A	; 10
    4296:	91 05       	cpc	r25, r1
    4298:	09 f4       	brne	.+2      	; 0x429c <main+0x6c4>
    429a:	7d c3       	rjmp	.+1786   	; 0x4996 <main+0xdbe>
    429c:	8b 30       	cpi	r24, 0x0B	; 11
    429e:	91 05       	cpc	r25, r1
    42a0:	4c f4       	brge	.+18     	; 0x42b4 <main+0x6dc>
    42a2:	88 30       	cpi	r24, 0x08	; 8
    42a4:	91 05       	cpc	r25, r1
    42a6:	09 f4       	brne	.+2      	; 0x42aa <main+0x6d2>
    42a8:	9a c2       	rjmp	.+1332   	; 0x47de <main+0xc06>
    42aa:	89 30       	cpi	r24, 0x09	; 9
    42ac:	91 05       	cpc	r25, r1
    42ae:	0c f0       	brlt	.+2      	; 0x42b2 <main+0x6da>
    42b0:	9d c2       	rjmp	.+1338   	; 0x47ec <main+0xc14>
    42b2:	4b c2       	rjmp	.+1174   	; 0x474a <main+0xb72>
    42b4:	8c 30       	cpi	r24, 0x0C	; 12
    42b6:	91 05       	cpc	r25, r1
    42b8:	09 f4       	brne	.+2      	; 0x42bc <main+0x6e4>
    42ba:	74 c3       	rjmp	.+1768   	; 0x49a4 <main+0xdcc>
    42bc:	8c 30       	cpi	r24, 0x0C	; 12
    42be:	91 05       	cpc	r25, r1
    42c0:	0c f4       	brge	.+2      	; 0x42c4 <main+0x6ec>
    42c2:	33 c3       	rjmp	.+1638   	; 0x492a <main+0xd52>
    42c4:	8d 30       	cpi	r24, 0x0D	; 13
    42c6:	91 05       	cpc	r25, r1
    42c8:	09 f0       	breq	.+2      	; 0x42cc <main+0x6f4>
    42ca:	d2 c3       	rjmp	.+1956   	; 0x4a70 <main+0xe98>
    42cc:	b0 c3       	rjmp	.+1888   	; 0x4a2e <main+0xe56>
    42ce:	8e e5       	ldi	r24, 0x5E	; 94
    42d0:	98 e0       	ldi	r25, 0x08	; 8
    42d2:	60 e0       	ldi	r22, 0x00	; 0
    42d4:	70 e0       	ldi	r23, 0x00	; 0
    42d6:	42 e4       	ldi	r20, 0x42	; 66
    42d8:	51 e0       	ldi	r21, 0x01	; 1
    42da:	0e 94 28 02 	call	0x450	; 0x450 <bFill>
    42de:	8e e5       	ldi	r24, 0x5E	; 94
    42e0:	98 e0       	ldi	r25, 0x08	; 8
    42e2:	6c e0       	ldi	r22, 0x0C	; 12
    42e4:	70 e0       	ldi	r23, 0x00	; 0
    42e6:	4a e4       	ldi	r20, 0x4A	; 74
    42e8:	51 e0       	ldi	r21, 0x01	; 1
    42ea:	0e 94 28 02 	call	0x450	; 0x450 <bFill>
    42ee:	86 e7       	ldi	r24, 0x76	; 118
    42f0:	98 e0       	ldi	r25, 0x08	; 8
    42f2:	60 e0       	ldi	r22, 0x00	; 0
    42f4:	70 e0       	ldi	r23, 0x00	; 0
    42f6:	43 e5       	ldi	r20, 0x53	; 83
    42f8:	51 e0       	ldi	r21, 0x01	; 1
    42fa:	16 c0       	rjmp	.+44     	; 0x4328 <main+0x750>
    42fc:	8e e5       	ldi	r24, 0x5E	; 94
    42fe:	98 e0       	ldi	r25, 0x08	; 8
    4300:	60 e0       	ldi	r22, 0x00	; 0
    4302:	70 e0       	ldi	r23, 0x00	; 0
    4304:	42 e4       	ldi	r20, 0x42	; 66
    4306:	51 e0       	ldi	r21, 0x01	; 1
    4308:	0e 94 28 02 	call	0x450	; 0x450 <bFill>
    430c:	8e e5       	ldi	r24, 0x5E	; 94
    430e:	98 e0       	ldi	r25, 0x08	; 8
    4310:	6a e0       	ldi	r22, 0x0A	; 10
    4312:	70 e0       	ldi	r23, 0x00	; 0
    4314:	4b e6       	ldi	r20, 0x6B	; 107
    4316:	51 e0       	ldi	r21, 0x01	; 1
    4318:	0e 94 28 02 	call	0x450	; 0x450 <bFill>
    431c:	86 e7       	ldi	r24, 0x76	; 118
    431e:	98 e0       	ldi	r25, 0x08	; 8
    4320:	60 e0       	ldi	r22, 0x00	; 0
    4322:	70 e0       	ldi	r23, 0x00	; 0
    4324:	46 e7       	ldi	r20, 0x76	; 118
    4326:	51 e0       	ldi	r21, 0x01	; 1
    4328:	0e 94 28 02 	call	0x450	; 0x450 <bFill>
    432c:	8e e8       	ldi	r24, 0x8E	; 142
    432e:	98 e0       	ldi	r25, 0x08	; 8
    4330:	60 e0       	ldi	r22, 0x00	; 0
    4332:	70 e0       	ldi	r23, 0x00	; 0
    4334:	40 e6       	ldi	r20, 0x60	; 96
    4336:	51 e0       	ldi	r21, 0x01	; 1
    4338:	99 c3       	rjmp	.+1842   	; 0x4a6c <main+0xe94>
    433a:	8e e5       	ldi	r24, 0x5E	; 94
    433c:	98 e0       	ldi	r25, 0x08	; 8
    433e:	60 e0       	ldi	r22, 0x00	; 0
    4340:	70 e0       	ldi	r23, 0x00	; 0
    4342:	42 e4       	ldi	r20, 0x42	; 66
    4344:	51 e0       	ldi	r21, 0x01	; 1
    4346:	0e 94 28 02 	call	0x450	; 0x450 <bFill>
    434a:	8e e5       	ldi	r24, 0x5E	; 94
    434c:	98 e0       	ldi	r25, 0x08	; 8
    434e:	6a e0       	ldi	r22, 0x0A	; 10
    4350:	70 e0       	ldi	r23, 0x00	; 0
    4352:	4b e6       	ldi	r20, 0x6B	; 107
    4354:	51 e0       	ldi	r21, 0x01	; 1
    4356:	0e 94 28 02 	call	0x450	; 0x450 <bFill>
    435a:	86 e7       	ldi	r24, 0x76	; 118
    435c:	98 e0       	ldi	r25, 0x08	; 8
    435e:	60 e0       	ldi	r22, 0x00	; 0
    4360:	70 e0       	ldi	r23, 0x00	; 0
    4362:	48 e8       	ldi	r20, 0x88	; 136
    4364:	51 e0       	ldi	r21, 0x01	; 1
    4366:	e0 cf       	rjmp	.-64     	; 0x4328 <main+0x750>
    4368:	80 91 ce 07 	lds	r24, 0x07CE
    436c:	90 91 cf 07 	lds	r25, 0x07CF
    4370:	00 97       	sbiw	r24, 0x00	; 0
    4372:	31 f5       	brne	.+76     	; 0x43c0 <main+0x7e8>
    4374:	8e e5       	ldi	r24, 0x5E	; 94
    4376:	98 e0       	ldi	r25, 0x08	; 8
    4378:	60 e0       	ldi	r22, 0x00	; 0
    437a:	70 e0       	ldi	r23, 0x00	; 0
    437c:	43 e9       	ldi	r20, 0x93	; 147
    437e:	51 e0       	ldi	r21, 0x01	; 1
    4380:	0e 94 28 02 	call	0x450	; 0x450 <bFill>
    4384:	0e 94 04 11 	call	0x2208	; 0x2208 <sdl_getState>
    4388:	80 93 65 08 	sts	0x0865, r24
    438c:	8e e5       	ldi	r24, 0x5E	; 94
    438e:	98 e0       	ldi	r25, 0x08	; 8
    4390:	6e e0       	ldi	r22, 0x0E	; 14
    4392:	70 e0       	ldi	r23, 0x00	; 0
    4394:	ae 01       	movw	r20, r28
    4396:	41 5f       	subi	r20, 0xF1	; 241
    4398:	5f 4f       	sbci	r21, 0xFF	; 255
    439a:	0e 94 28 02 	call	0x450	; 0x450 <bFill>
    439e:	86 e7       	ldi	r24, 0x76	; 118
    43a0:	98 e0       	ldi	r25, 0x08	; 8
    43a2:	60 e0       	ldi	r22, 0x00	; 0
    43a4:	70 e0       	ldi	r23, 0x00	; 0
    43a6:	49 e9       	ldi	r20, 0x99	; 153
    43a8:	51 e0       	ldi	r21, 0x01	; 1
    43aa:	23 c0       	rjmp	.+70     	; 0x43f2 <main+0x81a>
    43ac:	82 30       	cpi	r24, 0x02	; 2
    43ae:	91 05       	cpc	r25, r1
    43b0:	71 f5       	brne	.+92     	; 0x440e <main+0x836>
    43b2:	8e e8       	ldi	r24, 0x8E	; 142
    43b4:	98 e0       	ldi	r25, 0x08	; 8
    43b6:	6b eb       	ldi	r22, 0xBB	; 187
    43b8:	71 e0       	ldi	r23, 0x01	; 1
    43ba:	0e 94 5f 29 	call	0x52be	; 0x52be <strcpy>
    43be:	58 c3       	rjmp	.+1712   	; 0x4a70 <main+0xe98>
    43c0:	81 30       	cpi	r24, 0x01	; 1
    43c2:	91 05       	cpc	r25, r1
    43c4:	69 f5       	brne	.+90     	; 0x4420 <main+0x848>
    43c6:	8e e5       	ldi	r24, 0x5E	; 94
    43c8:	98 e0       	ldi	r25, 0x08	; 8
    43ca:	60 e0       	ldi	r22, 0x00	; 0
    43cc:	70 e0       	ldi	r23, 0x00	; 0
    43ce:	42 e4       	ldi	r20, 0x42	; 66
    43d0:	51 e0       	ldi	r21, 0x01	; 1
    43d2:	0e 94 28 02 	call	0x450	; 0x450 <bFill>
    43d6:	8e e5       	ldi	r24, 0x5E	; 94
    43d8:	98 e0       	ldi	r25, 0x08	; 8
    43da:	6f e0       	ldi	r22, 0x0F	; 15
    43dc:	70 e0       	ldi	r23, 0x00	; 0
    43de:	45 ee       	ldi	r20, 0xE5	; 229
    43e0:	51 e0       	ldi	r21, 0x01	; 1
    43e2:	0e 94 28 02 	call	0x450	; 0x450 <bFill>
    43e6:	86 e7       	ldi	r24, 0x76	; 118
    43e8:	98 e0       	ldi	r25, 0x08	; 8
    43ea:	60 e0       	ldi	r22, 0x00	; 0
    43ec:	70 e0       	ldi	r23, 0x00	; 0
    43ee:	4b ee       	ldi	r20, 0xEB	; 235
    43f0:	51 e0       	ldi	r21, 0x01	; 1
    43f2:	0e 94 28 02 	call	0x450	; 0x450 <bFill>
    43f6:	80 91 d2 07 	lds	r24, 0x07D2
    43fa:	90 91 d3 07 	lds	r25, 0x07D3
    43fe:	81 30       	cpi	r24, 0x01	; 1
    4400:	91 05       	cpc	r25, r1
    4402:	a1 f6       	brne	.-88     	; 0x43ac <main+0x7d4>
    4404:	8e e8       	ldi	r24, 0x8E	; 142
    4406:	98 e0       	ldi	r25, 0x08	; 8
    4408:	66 ea       	ldi	r22, 0xA6	; 166
    440a:	71 e0       	ldi	r23, 0x01	; 1
    440c:	d6 cf       	rjmp	.-84     	; 0x43ba <main+0x7e2>
    440e:	83 30       	cpi	r24, 0x03	; 3
    4410:	91 05       	cpc	r25, r1
    4412:	09 f0       	breq	.+2      	; 0x4416 <main+0x83e>
    4414:	2d c3       	rjmp	.+1626   	; 0x4a70 <main+0xe98>
    4416:	8e e8       	ldi	r24, 0x8E	; 142
    4418:	98 e0       	ldi	r25, 0x08	; 8
    441a:	60 ed       	ldi	r22, 0xD0	; 208
    441c:	71 e0       	ldi	r23, 0x01	; 1
    441e:	cd cf       	rjmp	.-102    	; 0x43ba <main+0x7e2>
    4420:	82 30       	cpi	r24, 0x02	; 2
    4422:	91 05       	cpc	r25, r1
    4424:	09 f0       	breq	.+2      	; 0x4428 <main+0x850>
    4426:	5f c0       	rjmp	.+190    	; 0x44e6 <main+0x90e>
    4428:	ce 01       	movw	r24, r28
    442a:	07 96       	adiw	r24, 0x07	; 7
    442c:	0e 94 27 0c 	call	0x184e	; 0x184e <ds1307_read_date>
    4430:	ce 01       	movw	r24, r28
    4432:	01 96       	adiw	r24, 0x01	; 1
    4434:	0e 94 0d 0c 	call	0x181a	; 0x181a <ds1307_read_time>
    4438:	1f 81       	ldd	r17, Y+7	; 0x07
    443a:	10 93 de 07 	sts	0x07DE, r17
    443e:	08 85       	ldd	r16, Y+8	; 0x08
    4440:	00 93 df 07 	sts	0x07DF, r16
    4444:	f9 84       	ldd	r15, Y+9	; 0x09
    4446:	f0 92 e0 07 	sts	0x07E0, r15
    444a:	e9 80       	ldd	r14, Y+1	; 0x01
    444c:	e0 92 e1 07 	sts	0x07E1, r14
    4450:	da 80       	ldd	r13, Y+2	; 0x02
    4452:	d0 92 e2 07 	sts	0x07E2, r13
    4456:	cb 80       	ldd	r12, Y+3	; 0x03
    4458:	c0 92 e3 07 	sts	0x07E3, r12
    445c:	8e e5       	ldi	r24, 0x5E	; 94
    445e:	98 e0       	ldi	r25, 0x08	; 8
    4460:	60 e0       	ldi	r22, 0x00	; 0
    4462:	70 e0       	ldi	r23, 0x00	; 0
    4464:	42 e4       	ldi	r20, 0x42	; 66
    4466:	51 e0       	ldi	r21, 0x01	; 1
    4468:	0e 94 28 02 	call	0x450	; 0x450 <bFill>
    446c:	8e e5       	ldi	r24, 0x5E	; 94
    446e:	98 e0       	ldi	r25, 0x08	; 8
    4470:	60 e1       	ldi	r22, 0x10	; 16
    4472:	70 e0       	ldi	r23, 0x00	; 0
    4474:	4d ef       	ldi	r20, 0xFD	; 253
    4476:	51 e0       	ldi	r21, 0x01	; 1
    4478:	0e 94 28 02 	call	0x450	; 0x450 <bFill>
    447c:	86 e7       	ldi	r24, 0x76	; 118
    447e:	98 e0       	ldi	r25, 0x08	; 8
    4480:	60 e0       	ldi	r22, 0x00	; 0
    4482:	70 e0       	ldi	r23, 0x00	; 0
    4484:	42 e0       	ldi	r20, 0x02	; 2
    4486:	52 e0       	ldi	r21, 0x02	; 2
    4488:	0e 94 28 02 	call	0x450	; 0x450 <bFill>
    448c:	2d b7       	in	r18, 0x3d	; 61
    448e:	3e b7       	in	r19, 0x3e	; 62
    4490:	20 51       	subi	r18, 0x10	; 16
    4492:	30 40       	sbci	r19, 0x00	; 0
    4494:	0f b6       	in	r0, 0x3f	; 63
    4496:	f8 94       	cli
    4498:	3e bf       	out	0x3e, r19	; 62
    449a:	0f be       	out	0x3f, r0	; 63
    449c:	2d bf       	out	0x3d, r18	; 61
    449e:	ed b7       	in	r30, 0x3d	; 61
    44a0:	fe b7       	in	r31, 0x3e	; 62
    44a2:	31 96       	adiw	r30, 0x01	; 1
    44a4:	ad b7       	in	r26, 0x3d	; 61
    44a6:	be b7       	in	r27, 0x3e	; 62
    44a8:	11 96       	adiw	r26, 0x01	; 1
    44aa:	9c 92       	st	X, r9
    44ac:	11 97       	sbiw	r26, 0x01	; 1
    44ae:	12 96       	adiw	r26, 0x02	; 2
    44b0:	8c 92       	st	X, r8
    44b2:	27 e0       	ldi	r18, 0x07	; 7
    44b4:	32 e0       	ldi	r19, 0x02	; 2
    44b6:	33 83       	std	Z+3, r19	; 0x03
    44b8:	22 83       	std	Z+2, r18	; 0x02
    44ba:	81 2f       	mov	r24, r17
    44bc:	90 e0       	ldi	r25, 0x00	; 0
    44be:	80 53       	subi	r24, 0x30	; 48
    44c0:	98 4f       	sbci	r25, 0xF8	; 248
    44c2:	95 83       	std	Z+5, r25	; 0x05
    44c4:	84 83       	std	Z+4, r24	; 0x04
    44c6:	06 83       	std	Z+6, r16	; 0x06
    44c8:	17 82       	std	Z+7, r1	; 0x07
    44ca:	f0 86       	std	Z+8, r15	; 0x08
    44cc:	11 86       	std	Z+9, r1	; 0x09
    44ce:	e2 86       	std	Z+10, r14	; 0x0a
    44d0:	13 86       	std	Z+11, r1	; 0x0b
    44d2:	d4 86       	std	Z+12, r13	; 0x0c
    44d4:	15 86       	std	Z+13, r1	; 0x0d
    44d6:	c6 86       	std	Z+14, r12	; 0x0e
    44d8:	17 86       	std	Z+15, r1	; 0x0f
    44da:	0e 94 74 29 	call	0x52e8	; 0x52e8 <sprintf>
    44de:	8d b7       	in	r24, 0x3d	; 61
    44e0:	9e b7       	in	r25, 0x3e	; 62
    44e2:	40 96       	adiw	r24, 0x10	; 16
    44e4:	cb c0       	rjmp	.+406    	; 0x467c <main+0xaa4>
    44e6:	83 30       	cpi	r24, 0x03	; 3
    44e8:	91 05       	cpc	r25, r1
    44ea:	09 f0       	breq	.+2      	; 0x44ee <main+0x916>
    44ec:	90 c0       	rjmp	.+288    	; 0x460e <main+0xa36>
    44ee:	8e e5       	ldi	r24, 0x5E	; 94
    44f0:	98 e0       	ldi	r25, 0x08	; 8
    44f2:	60 e0       	ldi	r22, 0x00	; 0
    44f4:	70 e0       	ldi	r23, 0x00	; 0
    44f6:	42 e4       	ldi	r20, 0x42	; 66
    44f8:	51 e0       	ldi	r21, 0x01	; 1
    44fa:	0e 94 28 02 	call	0x450	; 0x450 <bFill>
    44fe:	8e e5       	ldi	r24, 0x5E	; 94
    4500:	98 e0       	ldi	r25, 0x08	; 8
    4502:	6f e0       	ldi	r22, 0x0F	; 15
    4504:	70 e0       	ldi	r23, 0x00	; 0
    4506:	45 ee       	ldi	r20, 0xE5	; 229
    4508:	51 e0       	ldi	r21, 0x01	; 1
    450a:	0e 94 28 02 	call	0x450	; 0x450 <bFill>
    450e:	86 e7       	ldi	r24, 0x76	; 118
    4510:	98 e0       	ldi	r25, 0x08	; 8
    4512:	60 e0       	ldi	r22, 0x00	; 0
    4514:	70 e0       	ldi	r23, 0x00	; 0
    4516:	46 e2       	ldi	r20, 0x26	; 38
    4518:	52 e0       	ldi	r21, 0x02	; 2
    451a:	0e 94 28 02 	call	0x450	; 0x450 <bFill>
    451e:	ad b7       	in	r26, 0x3d	; 61
    4520:	be b7       	in	r27, 0x3e	; 62
    4522:	50 97       	sbiw	r26, 0x10	; 16
    4524:	0f b6       	in	r0, 0x3f	; 63
    4526:	f8 94       	cli
    4528:	be bf       	out	0x3e, r27	; 62
    452a:	0f be       	out	0x3f, r0	; 63
    452c:	ad bf       	out	0x3d, r26	; 61
    452e:	ed b7       	in	r30, 0x3d	; 61
    4530:	fe b7       	in	r31, 0x3e	; 62
    4532:	31 96       	adiw	r30, 0x01	; 1
    4534:	11 96       	adiw	r26, 0x01	; 1
    4536:	9c 92       	st	X, r9
    4538:	11 97       	sbiw	r26, 0x01	; 1
    453a:	12 96       	adiw	r26, 0x02	; 2
    453c:	8c 92       	st	X, r8
    453e:	27 e0       	ldi	r18, 0x07	; 7
    4540:	32 e0       	ldi	r19, 0x02	; 2
    4542:	33 83       	std	Z+3, r19	; 0x03
    4544:	22 83       	std	Z+2, r18	; 0x02
    4546:	80 91 de 07 	lds	r24, 0x07DE
    454a:	90 e0       	ldi	r25, 0x00	; 0
    454c:	80 53       	subi	r24, 0x30	; 48
    454e:	98 4f       	sbci	r25, 0xF8	; 248
    4550:	95 83       	std	Z+5, r25	; 0x05
    4552:	84 83       	std	Z+4, r24	; 0x04
    4554:	80 91 df 07 	lds	r24, 0x07DF
    4558:	86 83       	std	Z+6, r24	; 0x06
    455a:	17 82       	std	Z+7, r1	; 0x07
    455c:	80 91 e0 07 	lds	r24, 0x07E0
    4560:	80 87       	std	Z+8, r24	; 0x08
    4562:	11 86       	std	Z+9, r1	; 0x09
    4564:	80 91 e1 07 	lds	r24, 0x07E1
    4568:	82 87       	std	Z+10, r24	; 0x0a
    456a:	13 86       	std	Z+11, r1	; 0x0b
    456c:	80 91 e2 07 	lds	r24, 0x07E2
    4570:	84 87       	std	Z+12, r24	; 0x0c
    4572:	15 86       	std	Z+13, r1	; 0x0d
    4574:	80 91 e3 07 	lds	r24, 0x07E3
    4578:	86 87       	std	Z+14, r24	; 0x0e
    457a:	17 86       	std	Z+15, r1	; 0x0f
    457c:	0e 94 74 29 	call	0x52e8	; 0x52e8 <sprintf>
    4580:	8d b7       	in	r24, 0x3d	; 61
    4582:	9e b7       	in	r25, 0x3e	; 62
    4584:	40 96       	adiw	r24, 0x10	; 16
    4586:	0f b6       	in	r0, 0x3f	; 63
    4588:	f8 94       	cli
    458a:	9e bf       	out	0x3e, r25	; 62
    458c:	0f be       	out	0x3f, r0	; 63
    458e:	8d bf       	out	0x3d, r24	; 61
    4590:	80 91 d0 07 	lds	r24, 0x07D0
    4594:	90 91 d1 07 	lds	r25, 0x07D1
    4598:	83 30       	cpi	r24, 0x03	; 3
    459a:	91 05       	cpc	r25, r1
    459c:	11 f1       	breq	.+68     	; 0x45e2 <main+0xa0a>
    459e:	84 30       	cpi	r24, 0x04	; 4
    45a0:	91 05       	cpc	r25, r1
    45a2:	44 f4       	brge	.+16     	; 0x45b4 <main+0x9dc>
    45a4:	81 30       	cpi	r24, 0x01	; 1
    45a6:	91 05       	cpc	r25, r1
    45a8:	81 f0       	breq	.+32     	; 0x45ca <main+0x9f2>
    45aa:	82 30       	cpi	r24, 0x02	; 2
    45ac:	91 05       	cpc	r25, r1
    45ae:	09 f0       	breq	.+2      	; 0x45b2 <main+0x9da>
    45b0:	5f c2       	rjmp	.+1214   	; 0x4a70 <main+0xe98>
    45b2:	12 c0       	rjmp	.+36     	; 0x45d8 <main+0xa00>
    45b4:	85 30       	cpi	r24, 0x05	; 5
    45b6:	91 05       	cpc	r25, r1
    45b8:	f1 f0       	breq	.+60     	; 0x45f6 <main+0xa1e>
    45ba:	85 30       	cpi	r24, 0x05	; 5
    45bc:	91 05       	cpc	r25, r1
    45be:	b4 f0       	brlt	.+44     	; 0x45ec <main+0xa14>
    45c0:	86 30       	cpi	r24, 0x06	; 6
    45c2:	91 05       	cpc	r25, r1
    45c4:	09 f0       	breq	.+2      	; 0x45c8 <main+0x9f0>
    45c6:	54 c2       	rjmp	.+1192   	; 0x4a70 <main+0xe98>
    45c8:	1b c0       	rjmp	.+54     	; 0x4600 <main+0xa28>
    45ca:	86 ea       	ldi	r24, 0xA6	; 166
    45cc:	98 e0       	ldi	r25, 0x08	; 8
    45ce:	61 e0       	ldi	r22, 0x01	; 1
    45d0:	70 e0       	ldi	r23, 0x00	; 0
    45d2:	41 e3       	ldi	r20, 0x31	; 49
    45d4:	52 e0       	ldi	r21, 0x02	; 2
    45d6:	4a c2       	rjmp	.+1172   	; 0x4a6c <main+0xe94>
    45d8:	86 ea       	ldi	r24, 0xA6	; 166
    45da:	98 e0       	ldi	r25, 0x08	; 8
    45dc:	66 e0       	ldi	r22, 0x06	; 6
    45de:	70 e0       	ldi	r23, 0x00	; 0
    45e0:	13 c0       	rjmp	.+38     	; 0x4608 <main+0xa30>
    45e2:	86 ea       	ldi	r24, 0xA6	; 166
    45e4:	98 e0       	ldi	r25, 0x08	; 8
    45e6:	69 e0       	ldi	r22, 0x09	; 9
    45e8:	70 e0       	ldi	r23, 0x00	; 0
    45ea:	0e c0       	rjmp	.+28     	; 0x4608 <main+0xa30>
    45ec:	86 ea       	ldi	r24, 0xA6	; 166
    45ee:	98 e0       	ldi	r25, 0x08	; 8
    45f0:	6c e0       	ldi	r22, 0x0C	; 12
    45f2:	70 e0       	ldi	r23, 0x00	; 0
    45f4:	09 c0       	rjmp	.+18     	; 0x4608 <main+0xa30>
    45f6:	86 ea       	ldi	r24, 0xA6	; 166
    45f8:	98 e0       	ldi	r25, 0x08	; 8
    45fa:	6f e0       	ldi	r22, 0x0F	; 15
    45fc:	70 e0       	ldi	r23, 0x00	; 0
    45fe:	04 c0       	rjmp	.+8      	; 0x4608 <main+0xa30>
    4600:	86 ea       	ldi	r24, 0xA6	; 166
    4602:	98 e0       	ldi	r25, 0x08	; 8
    4604:	62 e1       	ldi	r22, 0x12	; 18
    4606:	70 e0       	ldi	r23, 0x00	; 0
    4608:	46 e3       	ldi	r20, 0x36	; 54
    460a:	52 e0       	ldi	r21, 0x02	; 2
    460c:	2f c2       	rjmp	.+1118   	; 0x4a6c <main+0xe94>
    460e:	84 30       	cpi	r24, 0x04	; 4
    4610:	91 05       	cpc	r25, r1
    4612:	d1 f5       	brne	.+116    	; 0x4688 <main+0xab0>
    4614:	8e e5       	ldi	r24, 0x5E	; 94
    4616:	98 e0       	ldi	r25, 0x08	; 8
    4618:	60 e0       	ldi	r22, 0x00	; 0
    461a:	70 e0       	ldi	r23, 0x00	; 0
    461c:	42 e4       	ldi	r20, 0x42	; 66
    461e:	51 e0       	ldi	r21, 0x01	; 1
    4620:	0e 94 28 02 	call	0x450	; 0x450 <bFill>
    4624:	8e e5       	ldi	r24, 0x5E	; 94
    4626:	98 e0       	ldi	r25, 0x08	; 8
    4628:	6a e0       	ldi	r22, 0x0A	; 10
    462a:	70 e0       	ldi	r23, 0x00	; 0
    462c:	49 e3       	ldi	r20, 0x39	; 57
    462e:	52 e0       	ldi	r21, 0x02	; 2
    4630:	0e 94 28 02 	call	0x450	; 0x450 <bFill>
    4634:	86 e7       	ldi	r24, 0x76	; 118
    4636:	98 e0       	ldi	r25, 0x08	; 8
    4638:	60 e0       	ldi	r22, 0x00	; 0
    463a:	70 e0       	ldi	r23, 0x00	; 0
    463c:	44 e4       	ldi	r20, 0x44	; 68
    463e:	52 e0       	ldi	r21, 0x02	; 2
    4640:	0e 94 28 02 	call	0x450	; 0x450 <bFill>
    4644:	00 d0       	rcall	.+0      	; 0x4646 <main+0xa6e>
    4646:	00 d0       	rcall	.+0      	; 0x4648 <main+0xa70>
    4648:	00 d0       	rcall	.+0      	; 0x464a <main+0xa72>
    464a:	ed b7       	in	r30, 0x3d	; 61
    464c:	fe b7       	in	r31, 0x3e	; 62
    464e:	31 96       	adiw	r30, 0x01	; 1
    4650:	ad b7       	in	r26, 0x3d	; 61
    4652:	be b7       	in	r27, 0x3e	; 62
    4654:	11 96       	adiw	r26, 0x01	; 1
    4656:	9c 92       	st	X, r9
    4658:	11 97       	sbiw	r26, 0x01	; 1
    465a:	12 96       	adiw	r26, 0x02	; 2
    465c:	8c 92       	st	X, r8
    465e:	25 e5       	ldi	r18, 0x55	; 85
    4660:	32 e0       	ldi	r19, 0x02	; 2
    4662:	33 83       	std	Z+3, r19	; 0x03
    4664:	22 83       	std	Z+2, r18	; 0x02
    4666:	80 91 52 08 	lds	r24, 0x0852
    466a:	90 91 53 08 	lds	r25, 0x0853
    466e:	95 83       	std	Z+5, r25	; 0x05
    4670:	84 83       	std	Z+4, r24	; 0x04
    4672:	0e 94 74 29 	call	0x52e8	; 0x52e8 <sprintf>
    4676:	8d b7       	in	r24, 0x3d	; 61
    4678:	9e b7       	in	r25, 0x3e	; 62
    467a:	06 96       	adiw	r24, 0x06	; 6
    467c:	0f b6       	in	r0, 0x3f	; 63
    467e:	f8 94       	cli
    4680:	9e bf       	out	0x3e, r25	; 62
    4682:	0f be       	out	0x3f, r0	; 63
    4684:	8d bf       	out	0x3d, r24	; 61
    4686:	f4 c1       	rjmp	.+1000   	; 0x4a70 <main+0xe98>
    4688:	85 30       	cpi	r24, 0x05	; 5
    468a:	91 05       	cpc	r25, r1
    468c:	09 f0       	breq	.+2      	; 0x4690 <main+0xab8>
    468e:	f0 c1       	rjmp	.+992    	; 0x4a70 <main+0xe98>
    4690:	8e e5       	ldi	r24, 0x5E	; 94
    4692:	98 e0       	ldi	r25, 0x08	; 8
    4694:	60 e0       	ldi	r22, 0x00	; 0
    4696:	70 e0       	ldi	r23, 0x00	; 0
    4698:	42 e4       	ldi	r20, 0x42	; 66
    469a:	51 e0       	ldi	r21, 0x01	; 1
    469c:	0e 94 28 02 	call	0x450	; 0x450 <bFill>
    46a0:	8e e5       	ldi	r24, 0x5E	; 94
    46a2:	98 e0       	ldi	r25, 0x08	; 8
    46a4:	6f e0       	ldi	r22, 0x0F	; 15
    46a6:	70 e0       	ldi	r23, 0x00	; 0
    46a8:	45 ee       	ldi	r20, 0xE5	; 229
    46aa:	51 e0       	ldi	r21, 0x01	; 1
    46ac:	0e 94 28 02 	call	0x450	; 0x450 <bFill>
    46b0:	86 e7       	ldi	r24, 0x76	; 118
    46b2:	98 e0       	ldi	r25, 0x08	; 8
    46b4:	61 e0       	ldi	r22, 0x01	; 1
    46b6:	70 e0       	ldi	r23, 0x00	; 0
    46b8:	4a e6       	ldi	r20, 0x6A	; 106
    46ba:	52 e0       	ldi	r21, 0x02	; 2
    46bc:	0e 94 28 02 	call	0x450	; 0x450 <bFill>
    46c0:	8e e8       	ldi	r24, 0x8E	; 142
    46c2:	98 e0       	ldi	r25, 0x08	; 8
    46c4:	6d e7       	ldi	r22, 0x7D	; 125
    46c6:	72 e0       	ldi	r23, 0x02	; 2
    46c8:	78 ce       	rjmp	.-784    	; 0x43ba <main+0x7e2>
    46ca:	8e e5       	ldi	r24, 0x5E	; 94
    46cc:	98 e0       	ldi	r25, 0x08	; 8
    46ce:	60 e0       	ldi	r22, 0x00	; 0
    46d0:	70 e0       	ldi	r23, 0x00	; 0
    46d2:	41 e9       	ldi	r20, 0x91	; 145
    46d4:	52 e0       	ldi	r21, 0x02	; 2
    46d6:	0e 94 28 02 	call	0x450	; 0x450 <bFill>
    46da:	8e e5       	ldi	r24, 0x5E	; 94
    46dc:	98 e0       	ldi	r25, 0x08	; 8
    46de:	6e e0       	ldi	r22, 0x0E	; 14
    46e0:	70 e0       	ldi	r23, 0x00	; 0
    46e2:	ae 01       	movw	r20, r28
    46e4:	41 5f       	subi	r20, 0xF1	; 241
    46e6:	5f 4f       	sbci	r21, 0xFF	; 255
    46e8:	0e 94 28 02 	call	0x450	; 0x450 <bFill>
    46ec:	ad b7       	in	r26, 0x3d	; 61
    46ee:	be b7       	in	r27, 0x3e	; 62
    46f0:	18 97       	sbiw	r26, 0x08	; 8
    46f2:	0f b6       	in	r0, 0x3f	; 63
    46f4:	f8 94       	cli
    46f6:	be bf       	out	0x3e, r27	; 62
    46f8:	0f be       	out	0x3f, r0	; 63
    46fa:	ad bf       	out	0x3d, r26	; 61
    46fc:	ed b7       	in	r30, 0x3d	; 61
    46fe:	fe b7       	in	r31, 0x3e	; 62
    4700:	31 96       	adiw	r30, 0x01	; 1
    4702:	12 96       	adiw	r26, 0x02	; 2
    4704:	3c 92       	st	X, r3
    4706:	2e 92       	st	-X, r2
    4708:	11 97       	sbiw	r26, 0x01	; 1
    470a:	53 82       	std	Z+3, r5	; 0x03
    470c:	42 82       	std	Z+2, r4	; 0x02
    470e:	14 83       	std	Z+4, r17	; 0x04
    4710:	05 83       	std	Z+5, r16	; 0x05
    4712:	f6 82       	std	Z+6, r15	; 0x06
    4714:	e7 82       	std	Z+7, r14	; 0x07
    4716:	0e 94 74 29 	call	0x52e8	; 0x52e8 <sprintf>
    471a:	2d b7       	in	r18, 0x3d	; 61
    471c:	3e b7       	in	r19, 0x3e	; 62
    471e:	28 5f       	subi	r18, 0xF8	; 248
    4720:	3f 4f       	sbci	r19, 0xFF	; 255
    4722:	0f b6       	in	r0, 0x3f	; 63
    4724:	f8 94       	cli
    4726:	3e bf       	out	0x3e, r19	; 62
    4728:	0f be       	out	0x3f, r0	; 63
    472a:	2d bf       	out	0x3d, r18	; 61
    472c:	8e e5       	ldi	r24, 0x5E	; 94
    472e:	98 e0       	ldi	r25, 0x08	; 8
    4730:	60 e0       	ldi	r22, 0x00	; 0
    4732:	70 e0       	ldi	r23, 0x00	; 0
    4734:	41 e9       	ldi	r20, 0x91	; 145
    4736:	52 e0       	ldi	r21, 0x02	; 2
    4738:	0e 94 28 02 	call	0x450	; 0x450 <bFill>
    473c:	86 e7       	ldi	r24, 0x76	; 118
    473e:	98 e0       	ldi	r25, 0x08	; 8
    4740:	60 e0       	ldi	r22, 0x00	; 0
    4742:	70 e0       	ldi	r23, 0x00	; 0
    4744:	41 eb       	ldi	r20, 0xB1	; 177
    4746:	52 e0       	ldi	r21, 0x02	; 2
    4748:	e5 c0       	rjmp	.+458    	; 0x4914 <main+0xd3c>
    474a:	8e e5       	ldi	r24, 0x5E	; 94
    474c:	98 e0       	ldi	r25, 0x08	; 8
    474e:	60 e0       	ldi	r22, 0x00	; 0
    4750:	70 e0       	ldi	r23, 0x00	; 0
    4752:	45 ec       	ldi	r20, 0xC5	; 197
    4754:	52 e0       	ldi	r21, 0x02	; 2
    4756:	0e 94 28 02 	call	0x450	; 0x450 <bFill>
    475a:	8e e5       	ldi	r24, 0x5E	; 94
    475c:	98 e0       	ldi	r25, 0x08	; 8
    475e:	6e e0       	ldi	r22, 0x0E	; 14
    4760:	70 e0       	ldi	r23, 0x00	; 0
    4762:	ae 01       	movw	r20, r28
    4764:	41 5f       	subi	r20, 0xF1	; 241
    4766:	5f 4f       	sbci	r21, 0xFF	; 255
    4768:	0e 94 28 02 	call	0x450	; 0x450 <bFill>
    476c:	0e 94 f3 15 	call	0x2be6	; 0x2be6 <str_getErrorCode>
    4770:	00 97       	sbiw	r24, 0x00	; 0
    4772:	11 f5       	brne	.+68     	; 0x47b8 <main+0xbe0>
    4774:	0e 94 e9 15 	call	0x2bd2	; 0x2bd2 <str_getRunningCycle>
    4778:	8c 01       	movw	r16, r24
    477a:	0e 94 e4 15 	call	0x2bc8	; 0x2bc8 <str_getConfigCycle>
    477e:	ad b7       	in	r26, 0x3d	; 61
    4780:	be b7       	in	r27, 0x3e	; 62
    4782:	18 97       	sbiw	r26, 0x08	; 8
    4784:	0f b6       	in	r0, 0x3f	; 63
    4786:	f8 94       	cli
    4788:	be bf       	out	0x3e, r27	; 62
    478a:	0f be       	out	0x3f, r0	; 63
    478c:	ad bf       	out	0x3d, r26	; 61
    478e:	ed b7       	in	r30, 0x3d	; 61
    4790:	fe b7       	in	r31, 0x3e	; 62
    4792:	31 96       	adiw	r30, 0x01	; 1
    4794:	12 96       	adiw	r26, 0x02	; 2
    4796:	7c 92       	st	X, r7
    4798:	6e 92       	st	-X, r6
    479a:	11 97       	sbiw	r26, 0x01	; 1
    479c:	2d ec       	ldi	r18, 0xCD	; 205
    479e:	32 e0       	ldi	r19, 0x02	; 2
    47a0:	33 83       	std	Z+3, r19	; 0x03
    47a2:	22 83       	std	Z+2, r18	; 0x02
    47a4:	15 83       	std	Z+5, r17	; 0x05
    47a6:	04 83       	std	Z+4, r16	; 0x04
    47a8:	97 83       	std	Z+7, r25	; 0x07
    47aa:	86 83       	std	Z+6, r24	; 0x06
    47ac:	0e 94 74 29 	call	0x52e8	; 0x52e8 <sprintf>
    47b0:	8d b7       	in	r24, 0x3d	; 61
    47b2:	9e b7       	in	r25, 0x3e	; 62
    47b4:	08 96       	adiw	r24, 0x08	; 8
    47b6:	5b c0       	rjmp	.+182    	; 0x486e <main+0xc96>
    47b8:	0e 94 f3 15 	call	0x2be6	; 0x2be6 <str_getErrorCode>
    47bc:	0e 94 f8 15 	call	0x2bf0	; 0x2bf0 <str_getErrorString>
    47c0:	00 d0       	rcall	.+0      	; 0x47c2 <main+0xbea>
    47c2:	00 d0       	rcall	.+0      	; 0x47c4 <main+0xbec>
    47c4:	00 d0       	rcall	.+0      	; 0x47c6 <main+0xbee>
    47c6:	ed b7       	in	r30, 0x3d	; 61
    47c8:	fe b7       	in	r31, 0x3e	; 62
    47ca:	31 96       	adiw	r30, 0x01	; 1
    47cc:	ad b7       	in	r26, 0x3d	; 61
    47ce:	be b7       	in	r27, 0x3e	; 62
    47d0:	12 96       	adiw	r26, 0x02	; 2
    47d2:	7c 92       	st	X, r7
    47d4:	6e 92       	st	-X, r6
    47d6:	11 97       	sbiw	r26, 0x01	; 1
    47d8:	24 ee       	ldi	r18, 0xE4	; 228
    47da:	32 e0       	ldi	r19, 0x02	; 2
    47dc:	3f c0       	rjmp	.+126    	; 0x485c <main+0xc84>
    47de:	8e e5       	ldi	r24, 0x5E	; 94
    47e0:	98 e0       	ldi	r25, 0x08	; 8
    47e2:	60 e0       	ldi	r22, 0x00	; 0
    47e4:	70 e0       	ldi	r23, 0x00	; 0
    47e6:	43 ef       	ldi	r20, 0xF3	; 243
    47e8:	52 e0       	ldi	r21, 0x02	; 2
    47ea:	06 c0       	rjmp	.+12     	; 0x47f8 <main+0xc20>
    47ec:	8e e5       	ldi	r24, 0x5E	; 94
    47ee:	98 e0       	ldi	r25, 0x08	; 8
    47f0:	60 e0       	ldi	r22, 0x00	; 0
    47f2:	70 e0       	ldi	r23, 0x00	; 0
    47f4:	40 e2       	ldi	r20, 0x20	; 32
    47f6:	53 e0       	ldi	r21, 0x03	; 3
    47f8:	0e 94 28 02 	call	0x450	; 0x450 <bFill>
    47fc:	8e e5       	ldi	r24, 0x5E	; 94
    47fe:	98 e0       	ldi	r25, 0x08	; 8
    4800:	6e e0       	ldi	r22, 0x0E	; 14
    4802:	70 e0       	ldi	r23, 0x00	; 0
    4804:	ae 01       	movw	r20, r28
    4806:	41 5f       	subi	r20, 0xF1	; 241
    4808:	5f 4f       	sbci	r21, 0xFF	; 255
    480a:	0e 94 28 02 	call	0x450	; 0x450 <bFill>
    480e:	0e 94 f3 15 	call	0x2be6	; 0x2be6 <str_getErrorCode>
    4812:	00 97       	sbiw	r24, 0x00	; 0
    4814:	89 f4       	brne	.+34     	; 0x4838 <main+0xc60>
    4816:	0e 94 e4 15 	call	0x2bc8	; 0x2bc8 <str_getConfigCycle>
    481a:	00 d0       	rcall	.+0      	; 0x481c <main+0xc44>
    481c:	00 d0       	rcall	.+0      	; 0x481e <main+0xc46>
    481e:	00 d0       	rcall	.+0      	; 0x4820 <main+0xc48>
    4820:	ed b7       	in	r30, 0x3d	; 61
    4822:	fe b7       	in	r31, 0x3e	; 62
    4824:	31 96       	adiw	r30, 0x01	; 1
    4826:	ad b7       	in	r26, 0x3d	; 61
    4828:	be b7       	in	r27, 0x3e	; 62
    482a:	12 96       	adiw	r26, 0x02	; 2
    482c:	7c 92       	st	X, r7
    482e:	6e 92       	st	-X, r6
    4830:	11 97       	sbiw	r26, 0x01	; 1
    4832:	2a ef       	ldi	r18, 0xFA	; 250
    4834:	32 e0       	ldi	r19, 0x02	; 2
    4836:	12 c0       	rjmp	.+36     	; 0x485c <main+0xc84>
    4838:	0e 94 f3 15 	call	0x2be6	; 0x2be6 <str_getErrorCode>
    483c:	0e 94 f8 15 	call	0x2bf0	; 0x2bf0 <str_getErrorString>
    4840:	00 d0       	rcall	.+0      	; 0x4842 <main+0xc6a>
    4842:	00 d0       	rcall	.+0      	; 0x4844 <main+0xc6c>
    4844:	00 d0       	rcall	.+0      	; 0x4846 <main+0xc6e>
    4846:	ed b7       	in	r30, 0x3d	; 61
    4848:	fe b7       	in	r31, 0x3e	; 62
    484a:	31 96       	adiw	r30, 0x01	; 1
    484c:	ad b7       	in	r26, 0x3d	; 61
    484e:	be b7       	in	r27, 0x3e	; 62
    4850:	12 96       	adiw	r26, 0x02	; 2
    4852:	7c 92       	st	X, r7
    4854:	6e 92       	st	-X, r6
    4856:	11 97       	sbiw	r26, 0x01	; 1
    4858:	20 e1       	ldi	r18, 0x10	; 16
    485a:	33 e0       	ldi	r19, 0x03	; 3
    485c:	33 83       	std	Z+3, r19	; 0x03
    485e:	22 83       	std	Z+2, r18	; 0x02
    4860:	95 83       	std	Z+5, r25	; 0x05
    4862:	84 83       	std	Z+4, r24	; 0x04
    4864:	0e 94 74 29 	call	0x52e8	; 0x52e8 <sprintf>
    4868:	8d b7       	in	r24, 0x3d	; 61
    486a:	9e b7       	in	r25, 0x3e	; 62
    486c:	06 96       	adiw	r24, 0x06	; 6
    486e:	0f b6       	in	r0, 0x3f	; 63
    4870:	f8 94       	cli
    4872:	9e bf       	out	0x3e, r25	; 62
    4874:	0f be       	out	0x3f, r0	; 63
    4876:	8d bf       	out	0x3d, r24	; 61
    4878:	ad b7       	in	r26, 0x3d	; 61
    487a:	be b7       	in	r27, 0x3e	; 62
    487c:	18 97       	sbiw	r26, 0x08	; 8
    487e:	0f b6       	in	r0, 0x3f	; 63
    4880:	f8 94       	cli
    4882:	be bf       	out	0x3e, r27	; 62
    4884:	0f be       	out	0x3f, r0	; 63
    4886:	ad bf       	out	0x3d, r26	; 61
    4888:	ed b7       	in	r30, 0x3d	; 61
    488a:	fe b7       	in	r31, 0x3e	; 62
    488c:	31 96       	adiw	r30, 0x01	; 1
    488e:	11 96       	adiw	r26, 0x01	; 1
    4890:	9c 92       	st	X, r9
    4892:	11 97       	sbiw	r26, 0x01	; 1
    4894:	12 96       	adiw	r26, 0x02	; 2
    4896:	8c 92       	st	X, r8
    4898:	12 97       	sbiw	r26, 0x02	; 2
    489a:	53 82       	std	Z+3, r5	; 0x03
    489c:	42 82       	std	Z+2, r4	; 0x02
    489e:	d4 82       	std	Z+4, r13	; 0x04
    48a0:	c5 82       	std	Z+5, r12	; 0x05
    48a2:	b6 82       	std	Z+6, r11	; 0x06
    48a4:	a7 82       	std	Z+7, r10	; 0x07
    48a6:	b7 c0       	rjmp	.+366    	; 0x4a16 <main+0xe3e>
    48a8:	8e e5       	ldi	r24, 0x5E	; 94
    48aa:	98 e0       	ldi	r25, 0x08	; 8
    48ac:	60 e0       	ldi	r22, 0x00	; 0
    48ae:	70 e0       	ldi	r23, 0x00	; 0
    48b0:	43 ef       	ldi	r20, 0xF3	; 243
    48b2:	52 e0       	ldi	r21, 0x02	; 2
    48b4:	0e 94 28 02 	call	0x450	; 0x450 <bFill>
    48b8:	8e e5       	ldi	r24, 0x5E	; 94
    48ba:	98 e0       	ldi	r25, 0x08	; 8
    48bc:	6e e0       	ldi	r22, 0x0E	; 14
    48be:	70 e0       	ldi	r23, 0x00	; 0
    48c0:	ae 01       	movw	r20, r28
    48c2:	41 5f       	subi	r20, 0xF1	; 241
    48c4:	5f 4f       	sbci	r21, 0xFF	; 255
    48c6:	0e 94 28 02 	call	0x450	; 0x450 <bFill>
    48ca:	0e 94 f3 15 	call	0x2be6	; 0x2be6 <str_getErrorCode>
    48ce:	00 97       	sbiw	r24, 0x00	; 0
    48d0:	09 f0       	breq	.+2      	; 0x48d4 <main+0xcfc>
    48d2:	b2 cf       	rjmp	.-156    	; 0x4838 <main+0xc60>
    48d4:	86 e7       	ldi	r24, 0x76	; 118
    48d6:	98 e0       	ldi	r25, 0x08	; 8
    48d8:	60 e0       	ldi	r22, 0x00	; 0
    48da:	70 e0       	ldi	r23, 0x00	; 0
    48dc:	4e e2       	ldi	r20, 0x2E	; 46
    48de:	53 e0       	ldi	r21, 0x03	; 3
    48e0:	0e 94 28 02 	call	0x450	; 0x450 <bFill>
    48e4:	c9 cf       	rjmp	.-110    	; 0x4878 <main+0xca0>
    48e6:	8e e5       	ldi	r24, 0x5E	; 94
    48e8:	98 e0       	ldi	r25, 0x08	; 8
    48ea:	60 e0       	ldi	r22, 0x00	; 0
    48ec:	70 e0       	ldi	r23, 0x00	; 0
    48ee:	4f e3       	ldi	r20, 0x3F	; 63
    48f0:	53 e0       	ldi	r21, 0x03	; 3
    48f2:	0e 94 28 02 	call	0x450	; 0x450 <bFill>
    48f6:	8e e5       	ldi	r24, 0x5E	; 94
    48f8:	98 e0       	ldi	r25, 0x08	; 8
    48fa:	6e e0       	ldi	r22, 0x0E	; 14
    48fc:	70 e0       	ldi	r23, 0x00	; 0
    48fe:	ae 01       	movw	r20, r28
    4900:	41 5f       	subi	r20, 0xF1	; 241
    4902:	5f 4f       	sbci	r21, 0xFF	; 255
    4904:	0e 94 28 02 	call	0x450	; 0x450 <bFill>
    4908:	86 e7       	ldi	r24, 0x76	; 118
    490a:	98 e0       	ldi	r25, 0x08	; 8
    490c:	60 e0       	ldi	r22, 0x00	; 0
    490e:	70 e0       	ldi	r23, 0x00	; 0
    4910:	47 e4       	ldi	r20, 0x47	; 71
    4912:	53 e0       	ldi	r21, 0x03	; 3
    4914:	0e 94 28 02 	call	0x450	; 0x450 <bFill>
    4918:	8d b7       	in	r24, 0x3d	; 61
    491a:	9e b7       	in	r25, 0x3e	; 62
    491c:	08 97       	sbiw	r24, 0x08	; 8
    491e:	0f b6       	in	r0, 0x3f	; 63
    4920:	f8 94       	cli
    4922:	9e bf       	out	0x3e, r25	; 62
    4924:	0f be       	out	0x3f, r0	; 63
    4926:	8d bf       	out	0x3d, r24	; 61
    4928:	67 c0       	rjmp	.+206    	; 0x49f8 <main+0xe20>
    492a:	8e e5       	ldi	r24, 0x5E	; 94
    492c:	98 e0       	ldi	r25, 0x08	; 8
    492e:	60 e0       	ldi	r22, 0x00	; 0
    4930:	70 e0       	ldi	r23, 0x00	; 0
    4932:	47 e5       	ldi	r20, 0x57	; 87
    4934:	53 e0       	ldi	r21, 0x03	; 3
    4936:	0e 94 28 02 	call	0x450	; 0x450 <bFill>
    493a:	8e e5       	ldi	r24, 0x5E	; 94
    493c:	98 e0       	ldi	r25, 0x08	; 8
    493e:	6e e0       	ldi	r22, 0x0E	; 14
    4940:	70 e0       	ldi	r23, 0x00	; 0
    4942:	ae 01       	movw	r20, r28
    4944:	41 5f       	subi	r20, 0xF1	; 241
    4946:	5f 4f       	sbci	r21, 0xFF	; 255
    4948:	0e 94 28 02 	call	0x450	; 0x450 <bFill>
    494c:	0e 94 df 15 	call	0x2bbe	; 0x2bbe <str_getConfigMode>
    4950:	81 30       	cpi	r24, 0x01	; 1
    4952:	91 05       	cpc	r25, r1
    4954:	29 f4       	brne	.+10     	; 0x4960 <main+0xd88>
    4956:	86 e7       	ldi	r24, 0x76	; 118
    4958:	98 e0       	ldi	r25, 0x08	; 8
    495a:	60 e6       	ldi	r22, 0x60	; 96
    495c:	73 e0       	ldi	r23, 0x03	; 3
    495e:	07 c0       	rjmp	.+14     	; 0x496e <main+0xd96>
    4960:	83 30       	cpi	r24, 0x03	; 3
    4962:	91 05       	cpc	r25, r1
    4964:	39 f4       	brne	.+14     	; 0x4974 <main+0xd9c>
    4966:	86 e7       	ldi	r24, 0x76	; 118
    4968:	98 e0       	ldi	r25, 0x08	; 8
    496a:	65 e7       	ldi	r22, 0x75	; 117
    496c:	73 e0       	ldi	r23, 0x03	; 3
    496e:	0e 94 5f 29 	call	0x52be	; 0x52be <strcpy>
    4972:	82 cf       	rjmp	.-252    	; 0x4878 <main+0xca0>
    4974:	0e 94 e4 15 	call	0x2bc8	; 0x2bc8 <str_getConfigCycle>
    4978:	00 d0       	rcall	.+0      	; 0x497a <main+0xda2>
    497a:	00 d0       	rcall	.+0      	; 0x497c <main+0xda4>
    497c:	00 d0       	rcall	.+0      	; 0x497e <main+0xda6>
    497e:	ed b7       	in	r30, 0x3d	; 61
    4980:	fe b7       	in	r31, 0x3e	; 62
    4982:	31 96       	adiw	r30, 0x01	; 1
    4984:	ad b7       	in	r26, 0x3d	; 61
    4986:	be b7       	in	r27, 0x3e	; 62
    4988:	12 96       	adiw	r26, 0x02	; 2
    498a:	7c 92       	st	X, r7
    498c:	6e 92       	st	-X, r6
    498e:	11 97       	sbiw	r26, 0x01	; 1
    4990:	2a e8       	ldi	r18, 0x8A	; 138
    4992:	33 e0       	ldi	r19, 0x03	; 3
    4994:	63 cf       	rjmp	.-314    	; 0x485c <main+0xc84>
    4996:	8e e5       	ldi	r24, 0x5E	; 94
    4998:	98 e0       	ldi	r25, 0x08	; 8
    499a:	60 e0       	ldi	r22, 0x00	; 0
    499c:	70 e0       	ldi	r23, 0x00	; 0
    499e:	40 ea       	ldi	r20, 0xA0	; 160
    49a0:	53 e0       	ldi	r21, 0x03	; 3
    49a2:	06 c0       	rjmp	.+12     	; 0x49b0 <main+0xdd8>
    49a4:	8e e5       	ldi	r24, 0x5E	; 94
    49a6:	98 e0       	ldi	r25, 0x08	; 8
    49a8:	60 e0       	ldi	r22, 0x00	; 0
    49aa:	70 e0       	ldi	r23, 0x00	; 0
    49ac:	49 ea       	ldi	r20, 0xA9	; 169
    49ae:	53 e0       	ldi	r21, 0x03	; 3
    49b0:	0e 94 28 02 	call	0x450	; 0x450 <bFill>
    49b4:	8e e5       	ldi	r24, 0x5E	; 94
    49b6:	98 e0       	ldi	r25, 0x08	; 8
    49b8:	6e e0       	ldi	r22, 0x0E	; 14
    49ba:	70 e0       	ldi	r23, 0x00	; 0
    49bc:	ae 01       	movw	r20, r28
    49be:	41 5f       	subi	r20, 0xF1	; 241
    49c0:	5f 4f       	sbci	r21, 0xFF	; 255
    49c2:	0e 94 28 02 	call	0x450	; 0x450 <bFill>
    49c6:	0e 94 f3 15 	call	0x2be6	; 0x2be6 <str_getErrorCode>
    49ca:	0e 94 f8 15 	call	0x2bf0	; 0x2bf0 <str_getErrorString>
    49ce:	00 d0       	rcall	.+0      	; 0x49d0 <main+0xdf8>
    49d0:	00 d0       	rcall	.+0      	; 0x49d2 <main+0xdfa>
    49d2:	00 d0       	rcall	.+0      	; 0x49d4 <main+0xdfc>
    49d4:	ed b7       	in	r30, 0x3d	; 61
    49d6:	fe b7       	in	r31, 0x3e	; 62
    49d8:	31 96       	adiw	r30, 0x01	; 1
    49da:	ad b7       	in	r26, 0x3d	; 61
    49dc:	be b7       	in	r27, 0x3e	; 62
    49de:	12 96       	adiw	r26, 0x02	; 2
    49e0:	7c 92       	st	X, r7
    49e2:	6e 92       	st	-X, r6
    49e4:	11 97       	sbiw	r26, 0x01	; 1
    49e6:	20 e1       	ldi	r18, 0x10	; 16
    49e8:	33 e0       	ldi	r19, 0x03	; 3
    49ea:	33 83       	std	Z+3, r19	; 0x03
    49ec:	22 83       	std	Z+2, r18	; 0x02
    49ee:	95 83       	std	Z+5, r25	; 0x05
    49f0:	84 83       	std	Z+4, r24	; 0x04
    49f2:	0e 94 74 29 	call	0x52e8	; 0x52e8 <sprintf>
    49f6:	00 d0       	rcall	.+0      	; 0x49f8 <main+0xe20>
    49f8:	ed b7       	in	r30, 0x3d	; 61
    49fa:	fe b7       	in	r31, 0x3e	; 62
    49fc:	31 96       	adiw	r30, 0x01	; 1
    49fe:	ad b7       	in	r26, 0x3d	; 61
    4a00:	be b7       	in	r27, 0x3e	; 62
    4a02:	12 96       	adiw	r26, 0x02	; 2
    4a04:	3c 92       	st	X, r3
    4a06:	2e 92       	st	-X, r2
    4a08:	11 97       	sbiw	r26, 0x01	; 1
    4a0a:	53 82       	std	Z+3, r5	; 0x03
    4a0c:	42 82       	std	Z+2, r4	; 0x02
    4a0e:	14 83       	std	Z+4, r17	; 0x04
    4a10:	05 83       	std	Z+5, r16	; 0x05
    4a12:	f6 82       	std	Z+6, r15	; 0x06
    4a14:	e7 82       	std	Z+7, r14	; 0x07
    4a16:	0e 94 74 29 	call	0x52e8	; 0x52e8 <sprintf>
    4a1a:	2d b7       	in	r18, 0x3d	; 61
    4a1c:	3e b7       	in	r19, 0x3e	; 62
    4a1e:	28 5f       	subi	r18, 0xF8	; 248
    4a20:	3f 4f       	sbci	r19, 0xFF	; 255
    4a22:	0f b6       	in	r0, 0x3f	; 63
    4a24:	f8 94       	cli
    4a26:	3e bf       	out	0x3e, r19	; 62
    4a28:	0f be       	out	0x3f, r0	; 63
    4a2a:	2d bf       	out	0x3d, r18	; 61
    4a2c:	21 c0       	rjmp	.+66     	; 0x4a70 <main+0xe98>
    4a2e:	8e e5       	ldi	r24, 0x5E	; 94
    4a30:	98 e0       	ldi	r25, 0x08	; 8
    4a32:	60 e0       	ldi	r22, 0x00	; 0
    4a34:	70 e0       	ldi	r23, 0x00	; 0
    4a36:	4f ea       	ldi	r20, 0xAF	; 175
    4a38:	53 e0       	ldi	r21, 0x03	; 3
    4a3a:	0e 94 28 02 	call	0x450	; 0x450 <bFill>
    4a3e:	8e e5       	ldi	r24, 0x5E	; 94
    4a40:	98 e0       	ldi	r25, 0x08	; 8
    4a42:	6e e0       	ldi	r22, 0x0E	; 14
    4a44:	70 e0       	ldi	r23, 0x00	; 0
    4a46:	ae 01       	movw	r20, r28
    4a48:	41 5f       	subi	r20, 0xF1	; 241
    4a4a:	5f 4f       	sbci	r21, 0xFF	; 255
    4a4c:	0e 94 28 02 	call	0x450	; 0x450 <bFill>
    4a50:	86 e7       	ldi	r24, 0x76	; 118
    4a52:	98 e0       	ldi	r25, 0x08	; 8
    4a54:	60 e0       	ldi	r22, 0x00	; 0
    4a56:	70 e0       	ldi	r23, 0x00	; 0
    4a58:	47 eb       	ldi	r20, 0xB7	; 183
    4a5a:	53 e0       	ldi	r21, 0x03	; 3
    4a5c:	0e 94 28 02 	call	0x450	; 0x450 <bFill>
    4a60:	8e e8       	ldi	r24, 0x8E	; 142
    4a62:	98 e0       	ldi	r25, 0x08	; 8
    4a64:	60 e0       	ldi	r22, 0x00	; 0
    4a66:	70 e0       	ldi	r23, 0x00	; 0
    4a68:	41 ec       	ldi	r20, 0xC1	; 193
    4a6a:	53 e0       	ldi	r21, 0x03	; 3
    4a6c:	0e 94 28 02 	call	0x450	; 0x450 <bFill>
    4a70:	88 e0       	ldi	r24, 0x08	; 8
    4a72:	90 e0       	ldi	r25, 0x00	; 0
    4a74:	60 e0       	ldi	r22, 0x00	; 0
    4a76:	70 e0       	ldi	r23, 0x00	; 0
    4a78:	4e e5       	ldi	r20, 0x5E	; 94
    4a7a:	58 e0       	ldi	r21, 0x08	; 8
    4a7c:	0e 94 61 0f 	call	0x1ec2	; 0x1ec2 <td_text>
    4a80:	88 e0       	ldi	r24, 0x08	; 8
    4a82:	90 e0       	ldi	r25, 0x00	; 0
    4a84:	68 e0       	ldi	r22, 0x08	; 8
    4a86:	70 e0       	ldi	r23, 0x00	; 0
    4a88:	46 e7       	ldi	r20, 0x76	; 118
    4a8a:	58 e0       	ldi	r21, 0x08	; 8
    4a8c:	0e 94 61 0f 	call	0x1ec2	; 0x1ec2 <td_text>
    4a90:	88 e0       	ldi	r24, 0x08	; 8
    4a92:	90 e0       	ldi	r25, 0x00	; 0
    4a94:	60 e1       	ldi	r22, 0x10	; 16
    4a96:	70 e0       	ldi	r23, 0x00	; 0
    4a98:	4e e8       	ldi	r20, 0x8E	; 142
    4a9a:	58 e0       	ldi	r21, 0x08	; 8
    4a9c:	0e 94 61 0f 	call	0x1ec2	; 0x1ec2 <td_text>
    4aa0:	88 e0       	ldi	r24, 0x08	; 8
    4aa2:	90 e0       	ldi	r25, 0x00	; 0
    4aa4:	68 e1       	ldi	r22, 0x18	; 24
    4aa6:	70 e0       	ldi	r23, 0x00	; 0
    4aa8:	46 ea       	ldi	r20, 0xA6	; 166
    4aaa:	58 e0       	ldi	r21, 0x08	; 8
    4aac:	0e 94 61 0f 	call	0x1ec2	; 0x1ec2 <td_text>
    4ab0:	10 92 d7 07 	sts	0x07D7, r1
    4ab4:	10 92 d6 07 	sts	0x07D6, r1
    4ab8:	5a c9       	rjmp	.-3404   	; 0x3d6e <main+0x196>
    4aba:	81 e0       	ldi	r24, 0x01	; 1
    4abc:	90 e0       	ldi	r25, 0x00	; 0
    4abe:	0e 94 41 02 	call	0x482	; 0x482 <saveStatInfo.constprop.2>
    4ac2:	ce 01       	movw	r24, r28
    4ac4:	0f 96       	adiw	r24, 0x0f	; 15
    4ac6:	61 e0       	ldi	r22, 0x01	; 1
    4ac8:	70 e0       	ldi	r23, 0x00	; 0
    4aca:	0e 94 32 02 	call	0x464	; 0x464 <loadStatInfo>
    4ace:	40 c9       	rjmp	.-3456   	; 0x3d50 <main+0x178>
    4ad0:	80 e0       	ldi	r24, 0x00	; 0
    4ad2:	90 e0       	ldi	r25, 0x00	; 0
    4ad4:	3b c9       	rjmp	.-3466   	; 0x3d4c <main+0x174>

00004ad6 <__subsf3>:
    4ad6:	50 58       	subi	r21, 0x80	; 128

00004ad8 <__addsf3>:
    4ad8:	bb 27       	eor	r27, r27
    4ada:	aa 27       	eor	r26, r26
    4adc:	0e d0       	rcall	.+28     	; 0x4afa <__addsf3x>
    4ade:	75 c1       	rjmp	.+746    	; 0x4dca <__fp_round>
    4ae0:	66 d1       	rcall	.+716    	; 0x4dae <__fp_pscA>
    4ae2:	30 f0       	brcs	.+12     	; 0x4af0 <__addsf3+0x18>
    4ae4:	6b d1       	rcall	.+726    	; 0x4dbc <__fp_pscB>
    4ae6:	20 f0       	brcs	.+8      	; 0x4af0 <__addsf3+0x18>
    4ae8:	31 f4       	brne	.+12     	; 0x4af6 <__addsf3+0x1e>
    4aea:	9f 3f       	cpi	r25, 0xFF	; 255
    4aec:	11 f4       	brne	.+4      	; 0x4af2 <__addsf3+0x1a>
    4aee:	1e f4       	brtc	.+6      	; 0x4af6 <__addsf3+0x1e>
    4af0:	5b c1       	rjmp	.+694    	; 0x4da8 <__fp_nan>
    4af2:	0e f4       	brtc	.+2      	; 0x4af6 <__addsf3+0x1e>
    4af4:	e0 95       	com	r30
    4af6:	e7 fb       	bst	r30, 7
    4af8:	51 c1       	rjmp	.+674    	; 0x4d9c <__fp_inf>

00004afa <__addsf3x>:
    4afa:	e9 2f       	mov	r30, r25
    4afc:	77 d1       	rcall	.+750    	; 0x4dec <__fp_split3>
    4afe:	80 f3       	brcs	.-32     	; 0x4ae0 <__addsf3+0x8>
    4b00:	ba 17       	cp	r27, r26
    4b02:	62 07       	cpc	r22, r18
    4b04:	73 07       	cpc	r23, r19
    4b06:	84 07       	cpc	r24, r20
    4b08:	95 07       	cpc	r25, r21
    4b0a:	18 f0       	brcs	.+6      	; 0x4b12 <__addsf3x+0x18>
    4b0c:	71 f4       	brne	.+28     	; 0x4b2a <__addsf3x+0x30>
    4b0e:	9e f5       	brtc	.+102    	; 0x4b76 <__addsf3x+0x7c>
    4b10:	8f c1       	rjmp	.+798    	; 0x4e30 <__fp_zero>
    4b12:	0e f4       	brtc	.+2      	; 0x4b16 <__addsf3x+0x1c>
    4b14:	e0 95       	com	r30
    4b16:	0b 2e       	mov	r0, r27
    4b18:	ba 2f       	mov	r27, r26
    4b1a:	a0 2d       	mov	r26, r0
    4b1c:	0b 01       	movw	r0, r22
    4b1e:	b9 01       	movw	r22, r18
    4b20:	90 01       	movw	r18, r0
    4b22:	0c 01       	movw	r0, r24
    4b24:	ca 01       	movw	r24, r20
    4b26:	a0 01       	movw	r20, r0
    4b28:	11 24       	eor	r1, r1
    4b2a:	ff 27       	eor	r31, r31
    4b2c:	59 1b       	sub	r21, r25
    4b2e:	99 f0       	breq	.+38     	; 0x4b56 <__addsf3x+0x5c>
    4b30:	59 3f       	cpi	r21, 0xF9	; 249
    4b32:	50 f4       	brcc	.+20     	; 0x4b48 <__addsf3x+0x4e>
    4b34:	50 3e       	cpi	r21, 0xE0	; 224
    4b36:	68 f1       	brcs	.+90     	; 0x4b92 <__addsf3x+0x98>
    4b38:	1a 16       	cp	r1, r26
    4b3a:	f0 40       	sbci	r31, 0x00	; 0
    4b3c:	a2 2f       	mov	r26, r18
    4b3e:	23 2f       	mov	r18, r19
    4b40:	34 2f       	mov	r19, r20
    4b42:	44 27       	eor	r20, r20
    4b44:	58 5f       	subi	r21, 0xF8	; 248
    4b46:	f3 cf       	rjmp	.-26     	; 0x4b2e <__addsf3x+0x34>
    4b48:	46 95       	lsr	r20
    4b4a:	37 95       	ror	r19
    4b4c:	27 95       	ror	r18
    4b4e:	a7 95       	ror	r26
    4b50:	f0 40       	sbci	r31, 0x00	; 0
    4b52:	53 95       	inc	r21
    4b54:	c9 f7       	brne	.-14     	; 0x4b48 <__addsf3x+0x4e>
    4b56:	7e f4       	brtc	.+30     	; 0x4b76 <__addsf3x+0x7c>
    4b58:	1f 16       	cp	r1, r31
    4b5a:	ba 0b       	sbc	r27, r26
    4b5c:	62 0b       	sbc	r22, r18
    4b5e:	73 0b       	sbc	r23, r19
    4b60:	84 0b       	sbc	r24, r20
    4b62:	ba f0       	brmi	.+46     	; 0x4b92 <__addsf3x+0x98>
    4b64:	91 50       	subi	r25, 0x01	; 1
    4b66:	a1 f0       	breq	.+40     	; 0x4b90 <__addsf3x+0x96>
    4b68:	ff 0f       	add	r31, r31
    4b6a:	bb 1f       	adc	r27, r27
    4b6c:	66 1f       	adc	r22, r22
    4b6e:	77 1f       	adc	r23, r23
    4b70:	88 1f       	adc	r24, r24
    4b72:	c2 f7       	brpl	.-16     	; 0x4b64 <__addsf3x+0x6a>
    4b74:	0e c0       	rjmp	.+28     	; 0x4b92 <__addsf3x+0x98>
    4b76:	ba 0f       	add	r27, r26
    4b78:	62 1f       	adc	r22, r18
    4b7a:	73 1f       	adc	r23, r19
    4b7c:	84 1f       	adc	r24, r20
    4b7e:	48 f4       	brcc	.+18     	; 0x4b92 <__addsf3x+0x98>
    4b80:	87 95       	ror	r24
    4b82:	77 95       	ror	r23
    4b84:	67 95       	ror	r22
    4b86:	b7 95       	ror	r27
    4b88:	f7 95       	ror	r31
    4b8a:	9e 3f       	cpi	r25, 0xFE	; 254
    4b8c:	08 f0       	brcs	.+2      	; 0x4b90 <__addsf3x+0x96>
    4b8e:	b3 cf       	rjmp	.-154    	; 0x4af6 <__addsf3+0x1e>
    4b90:	93 95       	inc	r25
    4b92:	88 0f       	add	r24, r24
    4b94:	08 f0       	brcs	.+2      	; 0x4b98 <__addsf3x+0x9e>
    4b96:	99 27       	eor	r25, r25
    4b98:	ee 0f       	add	r30, r30
    4b9a:	97 95       	ror	r25
    4b9c:	87 95       	ror	r24
    4b9e:	08 95       	ret

00004ba0 <__cmpsf2>:
    4ba0:	d9 d0       	rcall	.+434    	; 0x4d54 <__fp_cmp>
    4ba2:	08 f4       	brcc	.+2      	; 0x4ba6 <__cmpsf2+0x6>
    4ba4:	81 e0       	ldi	r24, 0x01	; 1
    4ba6:	08 95       	ret

00004ba8 <__divsf3>:
    4ba8:	0c d0       	rcall	.+24     	; 0x4bc2 <__divsf3x>
    4baa:	0f c1       	rjmp	.+542    	; 0x4dca <__fp_round>
    4bac:	07 d1       	rcall	.+526    	; 0x4dbc <__fp_pscB>
    4bae:	40 f0       	brcs	.+16     	; 0x4bc0 <__divsf3+0x18>
    4bb0:	fe d0       	rcall	.+508    	; 0x4dae <__fp_pscA>
    4bb2:	30 f0       	brcs	.+12     	; 0x4bc0 <__divsf3+0x18>
    4bb4:	21 f4       	brne	.+8      	; 0x4bbe <__divsf3+0x16>
    4bb6:	5f 3f       	cpi	r21, 0xFF	; 255
    4bb8:	19 f0       	breq	.+6      	; 0x4bc0 <__divsf3+0x18>
    4bba:	f0 c0       	rjmp	.+480    	; 0x4d9c <__fp_inf>
    4bbc:	51 11       	cpse	r21, r1
    4bbe:	39 c1       	rjmp	.+626    	; 0x4e32 <__fp_szero>
    4bc0:	f3 c0       	rjmp	.+486    	; 0x4da8 <__fp_nan>

00004bc2 <__divsf3x>:
    4bc2:	14 d1       	rcall	.+552    	; 0x4dec <__fp_split3>
    4bc4:	98 f3       	brcs	.-26     	; 0x4bac <__divsf3+0x4>

00004bc6 <__divsf3_pse>:
    4bc6:	99 23       	and	r25, r25
    4bc8:	c9 f3       	breq	.-14     	; 0x4bbc <__divsf3+0x14>
    4bca:	55 23       	and	r21, r21
    4bcc:	b1 f3       	breq	.-20     	; 0x4bba <__divsf3+0x12>
    4bce:	95 1b       	sub	r25, r21
    4bd0:	55 0b       	sbc	r21, r21
    4bd2:	bb 27       	eor	r27, r27
    4bd4:	aa 27       	eor	r26, r26
    4bd6:	62 17       	cp	r22, r18
    4bd8:	73 07       	cpc	r23, r19
    4bda:	84 07       	cpc	r24, r20
    4bdc:	38 f0       	brcs	.+14     	; 0x4bec <__divsf3_pse+0x26>
    4bde:	9f 5f       	subi	r25, 0xFF	; 255
    4be0:	5f 4f       	sbci	r21, 0xFF	; 255
    4be2:	22 0f       	add	r18, r18
    4be4:	33 1f       	adc	r19, r19
    4be6:	44 1f       	adc	r20, r20
    4be8:	aa 1f       	adc	r26, r26
    4bea:	a9 f3       	breq	.-22     	; 0x4bd6 <__divsf3_pse+0x10>
    4bec:	33 d0       	rcall	.+102    	; 0x4c54 <__divsf3_pse+0x8e>
    4bee:	0e 2e       	mov	r0, r30
    4bf0:	3a f0       	brmi	.+14     	; 0x4c00 <__divsf3_pse+0x3a>
    4bf2:	e0 e8       	ldi	r30, 0x80	; 128
    4bf4:	30 d0       	rcall	.+96     	; 0x4c56 <__divsf3_pse+0x90>
    4bf6:	91 50       	subi	r25, 0x01	; 1
    4bf8:	50 40       	sbci	r21, 0x00	; 0
    4bfa:	e6 95       	lsr	r30
    4bfc:	00 1c       	adc	r0, r0
    4bfe:	ca f7       	brpl	.-14     	; 0x4bf2 <__divsf3_pse+0x2c>
    4c00:	29 d0       	rcall	.+82     	; 0x4c54 <__divsf3_pse+0x8e>
    4c02:	fe 2f       	mov	r31, r30
    4c04:	27 d0       	rcall	.+78     	; 0x4c54 <__divsf3_pse+0x8e>
    4c06:	66 0f       	add	r22, r22
    4c08:	77 1f       	adc	r23, r23
    4c0a:	88 1f       	adc	r24, r24
    4c0c:	bb 1f       	adc	r27, r27
    4c0e:	26 17       	cp	r18, r22
    4c10:	37 07       	cpc	r19, r23
    4c12:	48 07       	cpc	r20, r24
    4c14:	ab 07       	cpc	r26, r27
    4c16:	b0 e8       	ldi	r27, 0x80	; 128
    4c18:	09 f0       	breq	.+2      	; 0x4c1c <__divsf3_pse+0x56>
    4c1a:	bb 0b       	sbc	r27, r27
    4c1c:	80 2d       	mov	r24, r0
    4c1e:	bf 01       	movw	r22, r30
    4c20:	ff 27       	eor	r31, r31
    4c22:	93 58       	subi	r25, 0x83	; 131
    4c24:	5f 4f       	sbci	r21, 0xFF	; 255
    4c26:	2a f0       	brmi	.+10     	; 0x4c32 <__divsf3_pse+0x6c>
    4c28:	9e 3f       	cpi	r25, 0xFE	; 254
    4c2a:	51 05       	cpc	r21, r1
    4c2c:	68 f0       	brcs	.+26     	; 0x4c48 <__divsf3_pse+0x82>
    4c2e:	b6 c0       	rjmp	.+364    	; 0x4d9c <__fp_inf>
    4c30:	00 c1       	rjmp	.+512    	; 0x4e32 <__fp_szero>
    4c32:	5f 3f       	cpi	r21, 0xFF	; 255
    4c34:	ec f3       	brlt	.-6      	; 0x4c30 <__divsf3_pse+0x6a>
    4c36:	98 3e       	cpi	r25, 0xE8	; 232
    4c38:	dc f3       	brlt	.-10     	; 0x4c30 <__divsf3_pse+0x6a>
    4c3a:	86 95       	lsr	r24
    4c3c:	77 95       	ror	r23
    4c3e:	67 95       	ror	r22
    4c40:	b7 95       	ror	r27
    4c42:	f7 95       	ror	r31
    4c44:	9f 5f       	subi	r25, 0xFF	; 255
    4c46:	c9 f7       	brne	.-14     	; 0x4c3a <__divsf3_pse+0x74>
    4c48:	88 0f       	add	r24, r24
    4c4a:	91 1d       	adc	r25, r1
    4c4c:	96 95       	lsr	r25
    4c4e:	87 95       	ror	r24
    4c50:	97 f9       	bld	r25, 7
    4c52:	08 95       	ret
    4c54:	e1 e0       	ldi	r30, 0x01	; 1
    4c56:	66 0f       	add	r22, r22
    4c58:	77 1f       	adc	r23, r23
    4c5a:	88 1f       	adc	r24, r24
    4c5c:	bb 1f       	adc	r27, r27
    4c5e:	62 17       	cp	r22, r18
    4c60:	73 07       	cpc	r23, r19
    4c62:	84 07       	cpc	r24, r20
    4c64:	ba 07       	cpc	r27, r26
    4c66:	20 f0       	brcs	.+8      	; 0x4c70 <__divsf3_pse+0xaa>
    4c68:	62 1b       	sub	r22, r18
    4c6a:	73 0b       	sbc	r23, r19
    4c6c:	84 0b       	sbc	r24, r20
    4c6e:	ba 0b       	sbc	r27, r26
    4c70:	ee 1f       	adc	r30, r30
    4c72:	88 f7       	brcc	.-30     	; 0x4c56 <__divsf3_pse+0x90>
    4c74:	e0 95       	com	r30
    4c76:	08 95       	ret

00004c78 <__fixsfsi>:
    4c78:	04 d0       	rcall	.+8      	; 0x4c82 <__fixunssfsi>
    4c7a:	68 94       	set
    4c7c:	b1 11       	cpse	r27, r1
    4c7e:	d9 c0       	rjmp	.+434    	; 0x4e32 <__fp_szero>
    4c80:	08 95       	ret

00004c82 <__fixunssfsi>:
    4c82:	bc d0       	rcall	.+376    	; 0x4dfc <__fp_splitA>
    4c84:	88 f0       	brcs	.+34     	; 0x4ca8 <__fixunssfsi+0x26>
    4c86:	9f 57       	subi	r25, 0x7F	; 127
    4c88:	90 f0       	brcs	.+36     	; 0x4cae <__fixunssfsi+0x2c>
    4c8a:	b9 2f       	mov	r27, r25
    4c8c:	99 27       	eor	r25, r25
    4c8e:	b7 51       	subi	r27, 0x17	; 23
    4c90:	a0 f0       	brcs	.+40     	; 0x4cba <__fixunssfsi+0x38>
    4c92:	d1 f0       	breq	.+52     	; 0x4cc8 <__fixunssfsi+0x46>
    4c94:	66 0f       	add	r22, r22
    4c96:	77 1f       	adc	r23, r23
    4c98:	88 1f       	adc	r24, r24
    4c9a:	99 1f       	adc	r25, r25
    4c9c:	1a f0       	brmi	.+6      	; 0x4ca4 <__fixunssfsi+0x22>
    4c9e:	ba 95       	dec	r27
    4ca0:	c9 f7       	brne	.-14     	; 0x4c94 <__fixunssfsi+0x12>
    4ca2:	12 c0       	rjmp	.+36     	; 0x4cc8 <__fixunssfsi+0x46>
    4ca4:	b1 30       	cpi	r27, 0x01	; 1
    4ca6:	81 f0       	breq	.+32     	; 0x4cc8 <__fixunssfsi+0x46>
    4ca8:	c3 d0       	rcall	.+390    	; 0x4e30 <__fp_zero>
    4caa:	b1 e0       	ldi	r27, 0x01	; 1
    4cac:	08 95       	ret
    4cae:	c0 c0       	rjmp	.+384    	; 0x4e30 <__fp_zero>
    4cb0:	67 2f       	mov	r22, r23
    4cb2:	78 2f       	mov	r23, r24
    4cb4:	88 27       	eor	r24, r24
    4cb6:	b8 5f       	subi	r27, 0xF8	; 248
    4cb8:	39 f0       	breq	.+14     	; 0x4cc8 <__fixunssfsi+0x46>
    4cba:	b9 3f       	cpi	r27, 0xF9	; 249
    4cbc:	cc f3       	brlt	.-14     	; 0x4cb0 <__fixunssfsi+0x2e>
    4cbe:	86 95       	lsr	r24
    4cc0:	77 95       	ror	r23
    4cc2:	67 95       	ror	r22
    4cc4:	b3 95       	inc	r27
    4cc6:	d9 f7       	brne	.-10     	; 0x4cbe <__fixunssfsi+0x3c>
    4cc8:	3e f4       	brtc	.+14     	; 0x4cd8 <__fixunssfsi+0x56>
    4cca:	90 95       	com	r25
    4ccc:	80 95       	com	r24
    4cce:	70 95       	com	r23
    4cd0:	61 95       	neg	r22
    4cd2:	7f 4f       	sbci	r23, 0xFF	; 255
    4cd4:	8f 4f       	sbci	r24, 0xFF	; 255
    4cd6:	9f 4f       	sbci	r25, 0xFF	; 255
    4cd8:	08 95       	ret

00004cda <__floatunsisf>:
    4cda:	e8 94       	clt
    4cdc:	09 c0       	rjmp	.+18     	; 0x4cf0 <__floatsisf+0x12>

00004cde <__floatsisf>:
    4cde:	97 fb       	bst	r25, 7
    4ce0:	3e f4       	brtc	.+14     	; 0x4cf0 <__floatsisf+0x12>
    4ce2:	90 95       	com	r25
    4ce4:	80 95       	com	r24
    4ce6:	70 95       	com	r23
    4ce8:	61 95       	neg	r22
    4cea:	7f 4f       	sbci	r23, 0xFF	; 255
    4cec:	8f 4f       	sbci	r24, 0xFF	; 255
    4cee:	9f 4f       	sbci	r25, 0xFF	; 255
    4cf0:	99 23       	and	r25, r25
    4cf2:	a9 f0       	breq	.+42     	; 0x4d1e <__floatsisf+0x40>
    4cf4:	f9 2f       	mov	r31, r25
    4cf6:	96 e9       	ldi	r25, 0x96	; 150
    4cf8:	bb 27       	eor	r27, r27
    4cfa:	93 95       	inc	r25
    4cfc:	f6 95       	lsr	r31
    4cfe:	87 95       	ror	r24
    4d00:	77 95       	ror	r23
    4d02:	67 95       	ror	r22
    4d04:	b7 95       	ror	r27
    4d06:	f1 11       	cpse	r31, r1
    4d08:	f8 cf       	rjmp	.-16     	; 0x4cfa <__floatsisf+0x1c>
    4d0a:	fa f4       	brpl	.+62     	; 0x4d4a <__floatsisf+0x6c>
    4d0c:	bb 0f       	add	r27, r27
    4d0e:	11 f4       	brne	.+4      	; 0x4d14 <__floatsisf+0x36>
    4d10:	60 ff       	sbrs	r22, 0
    4d12:	1b c0       	rjmp	.+54     	; 0x4d4a <__floatsisf+0x6c>
    4d14:	6f 5f       	subi	r22, 0xFF	; 255
    4d16:	7f 4f       	sbci	r23, 0xFF	; 255
    4d18:	8f 4f       	sbci	r24, 0xFF	; 255
    4d1a:	9f 4f       	sbci	r25, 0xFF	; 255
    4d1c:	16 c0       	rjmp	.+44     	; 0x4d4a <__floatsisf+0x6c>
    4d1e:	88 23       	and	r24, r24
    4d20:	11 f0       	breq	.+4      	; 0x4d26 <__floatsisf+0x48>
    4d22:	96 e9       	ldi	r25, 0x96	; 150
    4d24:	11 c0       	rjmp	.+34     	; 0x4d48 <__floatsisf+0x6a>
    4d26:	77 23       	and	r23, r23
    4d28:	21 f0       	breq	.+8      	; 0x4d32 <__floatsisf+0x54>
    4d2a:	9e e8       	ldi	r25, 0x8E	; 142
    4d2c:	87 2f       	mov	r24, r23
    4d2e:	76 2f       	mov	r23, r22
    4d30:	05 c0       	rjmp	.+10     	; 0x4d3c <__floatsisf+0x5e>
    4d32:	66 23       	and	r22, r22
    4d34:	71 f0       	breq	.+28     	; 0x4d52 <__floatsisf+0x74>
    4d36:	96 e8       	ldi	r25, 0x86	; 134
    4d38:	86 2f       	mov	r24, r22
    4d3a:	70 e0       	ldi	r23, 0x00	; 0
    4d3c:	60 e0       	ldi	r22, 0x00	; 0
    4d3e:	2a f0       	brmi	.+10     	; 0x4d4a <__floatsisf+0x6c>
    4d40:	9a 95       	dec	r25
    4d42:	66 0f       	add	r22, r22
    4d44:	77 1f       	adc	r23, r23
    4d46:	88 1f       	adc	r24, r24
    4d48:	da f7       	brpl	.-10     	; 0x4d40 <__floatsisf+0x62>
    4d4a:	88 0f       	add	r24, r24
    4d4c:	96 95       	lsr	r25
    4d4e:	87 95       	ror	r24
    4d50:	97 f9       	bld	r25, 7
    4d52:	08 95       	ret

00004d54 <__fp_cmp>:
    4d54:	99 0f       	add	r25, r25
    4d56:	00 08       	sbc	r0, r0
    4d58:	55 0f       	add	r21, r21
    4d5a:	aa 0b       	sbc	r26, r26
    4d5c:	e0 e8       	ldi	r30, 0x80	; 128
    4d5e:	fe ef       	ldi	r31, 0xFE	; 254
    4d60:	16 16       	cp	r1, r22
    4d62:	17 06       	cpc	r1, r23
    4d64:	e8 07       	cpc	r30, r24
    4d66:	f9 07       	cpc	r31, r25
    4d68:	c0 f0       	brcs	.+48     	; 0x4d9a <__fp_cmp+0x46>
    4d6a:	12 16       	cp	r1, r18
    4d6c:	13 06       	cpc	r1, r19
    4d6e:	e4 07       	cpc	r30, r20
    4d70:	f5 07       	cpc	r31, r21
    4d72:	98 f0       	brcs	.+38     	; 0x4d9a <__fp_cmp+0x46>
    4d74:	62 1b       	sub	r22, r18
    4d76:	73 0b       	sbc	r23, r19
    4d78:	84 0b       	sbc	r24, r20
    4d7a:	95 0b       	sbc	r25, r21
    4d7c:	39 f4       	brne	.+14     	; 0x4d8c <__fp_cmp+0x38>
    4d7e:	0a 26       	eor	r0, r26
    4d80:	61 f0       	breq	.+24     	; 0x4d9a <__fp_cmp+0x46>
    4d82:	23 2b       	or	r18, r19
    4d84:	24 2b       	or	r18, r20
    4d86:	25 2b       	or	r18, r21
    4d88:	21 f4       	brne	.+8      	; 0x4d92 <__fp_cmp+0x3e>
    4d8a:	08 95       	ret
    4d8c:	0a 26       	eor	r0, r26
    4d8e:	09 f4       	brne	.+2      	; 0x4d92 <__fp_cmp+0x3e>
    4d90:	a1 40       	sbci	r26, 0x01	; 1
    4d92:	a6 95       	lsr	r26
    4d94:	8f ef       	ldi	r24, 0xFF	; 255
    4d96:	81 1d       	adc	r24, r1
    4d98:	81 1d       	adc	r24, r1
    4d9a:	08 95       	ret

00004d9c <__fp_inf>:
    4d9c:	97 f9       	bld	r25, 7
    4d9e:	9f 67       	ori	r25, 0x7F	; 127
    4da0:	80 e8       	ldi	r24, 0x80	; 128
    4da2:	70 e0       	ldi	r23, 0x00	; 0
    4da4:	60 e0       	ldi	r22, 0x00	; 0
    4da6:	08 95       	ret

00004da8 <__fp_nan>:
    4da8:	9f ef       	ldi	r25, 0xFF	; 255
    4daa:	80 ec       	ldi	r24, 0xC0	; 192
    4dac:	08 95       	ret

00004dae <__fp_pscA>:
    4dae:	00 24       	eor	r0, r0
    4db0:	0a 94       	dec	r0
    4db2:	16 16       	cp	r1, r22
    4db4:	17 06       	cpc	r1, r23
    4db6:	18 06       	cpc	r1, r24
    4db8:	09 06       	cpc	r0, r25
    4dba:	08 95       	ret

00004dbc <__fp_pscB>:
    4dbc:	00 24       	eor	r0, r0
    4dbe:	0a 94       	dec	r0
    4dc0:	12 16       	cp	r1, r18
    4dc2:	13 06       	cpc	r1, r19
    4dc4:	14 06       	cpc	r1, r20
    4dc6:	05 06       	cpc	r0, r21
    4dc8:	08 95       	ret

00004dca <__fp_round>:
    4dca:	09 2e       	mov	r0, r25
    4dcc:	03 94       	inc	r0
    4dce:	00 0c       	add	r0, r0
    4dd0:	11 f4       	brne	.+4      	; 0x4dd6 <__fp_round+0xc>
    4dd2:	88 23       	and	r24, r24
    4dd4:	52 f0       	brmi	.+20     	; 0x4dea <__fp_round+0x20>
    4dd6:	bb 0f       	add	r27, r27
    4dd8:	40 f4       	brcc	.+16     	; 0x4dea <__fp_round+0x20>
    4dda:	bf 2b       	or	r27, r31
    4ddc:	11 f4       	brne	.+4      	; 0x4de2 <__fp_round+0x18>
    4dde:	60 ff       	sbrs	r22, 0
    4de0:	04 c0       	rjmp	.+8      	; 0x4dea <__fp_round+0x20>
    4de2:	6f 5f       	subi	r22, 0xFF	; 255
    4de4:	7f 4f       	sbci	r23, 0xFF	; 255
    4de6:	8f 4f       	sbci	r24, 0xFF	; 255
    4de8:	9f 4f       	sbci	r25, 0xFF	; 255
    4dea:	08 95       	ret

00004dec <__fp_split3>:
    4dec:	57 fd       	sbrc	r21, 7
    4dee:	90 58       	subi	r25, 0x80	; 128
    4df0:	44 0f       	add	r20, r20
    4df2:	55 1f       	adc	r21, r21
    4df4:	59 f0       	breq	.+22     	; 0x4e0c <__fp_splitA+0x10>
    4df6:	5f 3f       	cpi	r21, 0xFF	; 255
    4df8:	71 f0       	breq	.+28     	; 0x4e16 <__fp_splitA+0x1a>
    4dfa:	47 95       	ror	r20

00004dfc <__fp_splitA>:
    4dfc:	88 0f       	add	r24, r24
    4dfe:	97 fb       	bst	r25, 7
    4e00:	99 1f       	adc	r25, r25
    4e02:	61 f0       	breq	.+24     	; 0x4e1c <__fp_splitA+0x20>
    4e04:	9f 3f       	cpi	r25, 0xFF	; 255
    4e06:	79 f0       	breq	.+30     	; 0x4e26 <__fp_splitA+0x2a>
    4e08:	87 95       	ror	r24
    4e0a:	08 95       	ret
    4e0c:	12 16       	cp	r1, r18
    4e0e:	13 06       	cpc	r1, r19
    4e10:	14 06       	cpc	r1, r20
    4e12:	55 1f       	adc	r21, r21
    4e14:	f2 cf       	rjmp	.-28     	; 0x4dfa <__fp_split3+0xe>
    4e16:	46 95       	lsr	r20
    4e18:	f1 df       	rcall	.-30     	; 0x4dfc <__fp_splitA>
    4e1a:	08 c0       	rjmp	.+16     	; 0x4e2c <__fp_splitA+0x30>
    4e1c:	16 16       	cp	r1, r22
    4e1e:	17 06       	cpc	r1, r23
    4e20:	18 06       	cpc	r1, r24
    4e22:	99 1f       	adc	r25, r25
    4e24:	f1 cf       	rjmp	.-30     	; 0x4e08 <__fp_splitA+0xc>
    4e26:	86 95       	lsr	r24
    4e28:	71 05       	cpc	r23, r1
    4e2a:	61 05       	cpc	r22, r1
    4e2c:	08 94       	sec
    4e2e:	08 95       	ret

00004e30 <__fp_zero>:
    4e30:	e8 94       	clt

00004e32 <__fp_szero>:
    4e32:	bb 27       	eor	r27, r27
    4e34:	66 27       	eor	r22, r22
    4e36:	77 27       	eor	r23, r23
    4e38:	cb 01       	movw	r24, r22
    4e3a:	97 f9       	bld	r25, 7
    4e3c:	08 95       	ret

00004e3e <__gesf2>:
    4e3e:	8a df       	rcall	.-236    	; 0x4d54 <__fp_cmp>
    4e40:	08 f4       	brcc	.+2      	; 0x4e44 <__gesf2+0x6>
    4e42:	8f ef       	ldi	r24, 0xFF	; 255
    4e44:	08 95       	ret
    4e46:	0e f0       	brts	.+2      	; 0x4e4a <__gesf2+0xc>
    4e48:	23 c1       	rjmp	.+582    	; 0x5090 <__fp_mpack>
    4e4a:	ae cf       	rjmp	.-164    	; 0x4da8 <__fp_nan>
    4e4c:	68 94       	set
    4e4e:	a6 cf       	rjmp	.-180    	; 0x4d9c <__fp_inf>

00004e50 <log>:
    4e50:	d5 df       	rcall	.-86     	; 0x4dfc <__fp_splitA>
    4e52:	c8 f3       	brcs	.-14     	; 0x4e46 <__gesf2+0x8>
    4e54:	99 23       	and	r25, r25
    4e56:	d1 f3       	breq	.-12     	; 0x4e4c <__gesf2+0xe>
    4e58:	c6 f3       	brts	.-16     	; 0x4e4a <__gesf2+0xc>
    4e5a:	df 93       	push	r29
    4e5c:	cf 93       	push	r28
    4e5e:	1f 93       	push	r17
    4e60:	0f 93       	push	r16
    4e62:	ff 92       	push	r15
    4e64:	c9 2f       	mov	r28, r25
    4e66:	dd 27       	eor	r29, r29
    4e68:	88 23       	and	r24, r24
    4e6a:	2a f0       	brmi	.+10     	; 0x4e76 <log+0x26>
    4e6c:	21 97       	sbiw	r28, 0x01	; 1
    4e6e:	66 0f       	add	r22, r22
    4e70:	77 1f       	adc	r23, r23
    4e72:	88 1f       	adc	r24, r24
    4e74:	da f7       	brpl	.-10     	; 0x4e6c <log+0x1c>
    4e76:	20 e0       	ldi	r18, 0x00	; 0
    4e78:	30 e0       	ldi	r19, 0x00	; 0
    4e7a:	40 e8       	ldi	r20, 0x80	; 128
    4e7c:	5f eb       	ldi	r21, 0xBF	; 191
    4e7e:	9f e3       	ldi	r25, 0x3F	; 63
    4e80:	88 39       	cpi	r24, 0x98	; 152
    4e82:	20 f0       	brcs	.+8      	; 0x4e8c <log+0x3c>
    4e84:	80 3e       	cpi	r24, 0xE0	; 224
    4e86:	30 f0       	brcs	.+12     	; 0x4e94 <log+0x44>
    4e88:	21 96       	adiw	r28, 0x01	; 1
    4e8a:	8f 77       	andi	r24, 0x7F	; 127
    4e8c:	25 de       	rcall	.-950    	; 0x4ad8 <__addsf3>
    4e8e:	ec e8       	ldi	r30, 0x8C	; 140
    4e90:	f0 e0       	ldi	r31, 0x00	; 0
    4e92:	03 c0       	rjmp	.+6      	; 0x4e9a <log+0x4a>
    4e94:	21 de       	rcall	.-958    	; 0x4ad8 <__addsf3>
    4e96:	e9 eb       	ldi	r30, 0xB9	; 185
    4e98:	f0 e0       	ldi	r31, 0x00	; 0
    4e9a:	08 d1       	rcall	.+528    	; 0x50ac <__fp_powser>
    4e9c:	8b 01       	movw	r16, r22
    4e9e:	be 01       	movw	r22, r28
    4ea0:	ec 01       	movw	r28, r24
    4ea2:	fb 2e       	mov	r15, r27
    4ea4:	6f 57       	subi	r22, 0x7F	; 127
    4ea6:	71 09       	sbc	r23, r1
    4ea8:	75 95       	asr	r23
    4eaa:	77 1f       	adc	r23, r23
    4eac:	88 0b       	sbc	r24, r24
    4eae:	99 0b       	sbc	r25, r25
    4eb0:	16 df       	rcall	.-468    	; 0x4cde <__floatsisf>
    4eb2:	28 e1       	ldi	r18, 0x18	; 24
    4eb4:	32 e7       	ldi	r19, 0x72	; 114
    4eb6:	41 e3       	ldi	r20, 0x31	; 49
    4eb8:	5f e3       	ldi	r21, 0x3F	; 63
    4eba:	16 d0       	rcall	.+44     	; 0x4ee8 <__mulsf3x>
    4ebc:	af 2d       	mov	r26, r15
    4ebe:	98 01       	movw	r18, r16
    4ec0:	ae 01       	movw	r20, r28
    4ec2:	ff 90       	pop	r15
    4ec4:	0f 91       	pop	r16
    4ec6:	1f 91       	pop	r17
    4ec8:	cf 91       	pop	r28
    4eca:	df 91       	pop	r29
    4ecc:	16 de       	rcall	.-980    	; 0x4afa <__addsf3x>
    4ece:	7d cf       	rjmp	.-262    	; 0x4dca <__fp_round>

00004ed0 <__mulsf3>:
    4ed0:	0b d0       	rcall	.+22     	; 0x4ee8 <__mulsf3x>
    4ed2:	7b cf       	rjmp	.-266    	; 0x4dca <__fp_round>
    4ed4:	6c df       	rcall	.-296    	; 0x4dae <__fp_pscA>
    4ed6:	28 f0       	brcs	.+10     	; 0x4ee2 <__mulsf3+0x12>
    4ed8:	71 df       	rcall	.-286    	; 0x4dbc <__fp_pscB>
    4eda:	18 f0       	brcs	.+6      	; 0x4ee2 <__mulsf3+0x12>
    4edc:	95 23       	and	r25, r21
    4ede:	09 f0       	breq	.+2      	; 0x4ee2 <__mulsf3+0x12>
    4ee0:	5d cf       	rjmp	.-326    	; 0x4d9c <__fp_inf>
    4ee2:	62 cf       	rjmp	.-316    	; 0x4da8 <__fp_nan>
    4ee4:	11 24       	eor	r1, r1
    4ee6:	a5 cf       	rjmp	.-182    	; 0x4e32 <__fp_szero>

00004ee8 <__mulsf3x>:
    4ee8:	81 df       	rcall	.-254    	; 0x4dec <__fp_split3>
    4eea:	a0 f3       	brcs	.-24     	; 0x4ed4 <__mulsf3+0x4>

00004eec <__mulsf3_pse>:
    4eec:	95 9f       	mul	r25, r21
    4eee:	d1 f3       	breq	.-12     	; 0x4ee4 <__mulsf3+0x14>
    4ef0:	95 0f       	add	r25, r21
    4ef2:	50 e0       	ldi	r21, 0x00	; 0
    4ef4:	55 1f       	adc	r21, r21
    4ef6:	62 9f       	mul	r22, r18
    4ef8:	f0 01       	movw	r30, r0
    4efa:	72 9f       	mul	r23, r18
    4efc:	bb 27       	eor	r27, r27
    4efe:	f0 0d       	add	r31, r0
    4f00:	b1 1d       	adc	r27, r1
    4f02:	63 9f       	mul	r22, r19
    4f04:	aa 27       	eor	r26, r26
    4f06:	f0 0d       	add	r31, r0
    4f08:	b1 1d       	adc	r27, r1
    4f0a:	aa 1f       	adc	r26, r26
    4f0c:	64 9f       	mul	r22, r20
    4f0e:	66 27       	eor	r22, r22
    4f10:	b0 0d       	add	r27, r0
    4f12:	a1 1d       	adc	r26, r1
    4f14:	66 1f       	adc	r22, r22
    4f16:	82 9f       	mul	r24, r18
    4f18:	22 27       	eor	r18, r18
    4f1a:	b0 0d       	add	r27, r0
    4f1c:	a1 1d       	adc	r26, r1
    4f1e:	62 1f       	adc	r22, r18
    4f20:	73 9f       	mul	r23, r19
    4f22:	b0 0d       	add	r27, r0
    4f24:	a1 1d       	adc	r26, r1
    4f26:	62 1f       	adc	r22, r18
    4f28:	83 9f       	mul	r24, r19
    4f2a:	a0 0d       	add	r26, r0
    4f2c:	61 1d       	adc	r22, r1
    4f2e:	22 1f       	adc	r18, r18
    4f30:	74 9f       	mul	r23, r20
    4f32:	33 27       	eor	r19, r19
    4f34:	a0 0d       	add	r26, r0
    4f36:	61 1d       	adc	r22, r1
    4f38:	23 1f       	adc	r18, r19
    4f3a:	84 9f       	mul	r24, r20
    4f3c:	60 0d       	add	r22, r0
    4f3e:	21 1d       	adc	r18, r1
    4f40:	82 2f       	mov	r24, r18
    4f42:	76 2f       	mov	r23, r22
    4f44:	6a 2f       	mov	r22, r26
    4f46:	11 24       	eor	r1, r1
    4f48:	9f 57       	subi	r25, 0x7F	; 127
    4f4a:	50 40       	sbci	r21, 0x00	; 0
    4f4c:	8a f0       	brmi	.+34     	; 0x4f70 <__mulsf3_pse+0x84>
    4f4e:	e1 f0       	breq	.+56     	; 0x4f88 <__mulsf3_pse+0x9c>
    4f50:	88 23       	and	r24, r24
    4f52:	4a f0       	brmi	.+18     	; 0x4f66 <__mulsf3_pse+0x7a>
    4f54:	ee 0f       	add	r30, r30
    4f56:	ff 1f       	adc	r31, r31
    4f58:	bb 1f       	adc	r27, r27
    4f5a:	66 1f       	adc	r22, r22
    4f5c:	77 1f       	adc	r23, r23
    4f5e:	88 1f       	adc	r24, r24
    4f60:	91 50       	subi	r25, 0x01	; 1
    4f62:	50 40       	sbci	r21, 0x00	; 0
    4f64:	a9 f7       	brne	.-22     	; 0x4f50 <__mulsf3_pse+0x64>
    4f66:	9e 3f       	cpi	r25, 0xFE	; 254
    4f68:	51 05       	cpc	r21, r1
    4f6a:	70 f0       	brcs	.+28     	; 0x4f88 <__mulsf3_pse+0x9c>
    4f6c:	17 cf       	rjmp	.-466    	; 0x4d9c <__fp_inf>
    4f6e:	61 cf       	rjmp	.-318    	; 0x4e32 <__fp_szero>
    4f70:	5f 3f       	cpi	r21, 0xFF	; 255
    4f72:	ec f3       	brlt	.-6      	; 0x4f6e <__mulsf3_pse+0x82>
    4f74:	98 3e       	cpi	r25, 0xE8	; 232
    4f76:	dc f3       	brlt	.-10     	; 0x4f6e <__mulsf3_pse+0x82>
    4f78:	86 95       	lsr	r24
    4f7a:	77 95       	ror	r23
    4f7c:	67 95       	ror	r22
    4f7e:	b7 95       	ror	r27
    4f80:	f7 95       	ror	r31
    4f82:	e7 95       	ror	r30
    4f84:	9f 5f       	subi	r25, 0xFF	; 255
    4f86:	c1 f7       	brne	.-16     	; 0x4f78 <__mulsf3_pse+0x8c>
    4f88:	fe 2b       	or	r31, r30
    4f8a:	88 0f       	add	r24, r24
    4f8c:	91 1d       	adc	r25, r1
    4f8e:	96 95       	lsr	r25
    4f90:	87 95       	ror	r24
    4f92:	97 f9       	bld	r25, 7
    4f94:	08 95       	ret

00004f96 <pow>:
    4f96:	fa 01       	movw	r30, r20
    4f98:	ee 0f       	add	r30, r30
    4f9a:	ff 1f       	adc	r31, r31
    4f9c:	30 96       	adiw	r30, 0x00	; 0
    4f9e:	21 05       	cpc	r18, r1
    4fa0:	31 05       	cpc	r19, r1
    4fa2:	99 f1       	breq	.+102    	; 0x500a <pow+0x74>
    4fa4:	61 15       	cp	r22, r1
    4fa6:	71 05       	cpc	r23, r1
    4fa8:	61 f4       	brne	.+24     	; 0x4fc2 <pow+0x2c>
    4faa:	80 38       	cpi	r24, 0x80	; 128
    4fac:	bf e3       	ldi	r27, 0x3F	; 63
    4fae:	9b 07       	cpc	r25, r27
    4fb0:	49 f1       	breq	.+82     	; 0x5004 <pow+0x6e>
    4fb2:	68 94       	set
    4fb4:	90 38       	cpi	r25, 0x80	; 128
    4fb6:	81 05       	cpc	r24, r1
    4fb8:	61 f0       	breq	.+24     	; 0x4fd2 <pow+0x3c>
    4fba:	80 38       	cpi	r24, 0x80	; 128
    4fbc:	bf ef       	ldi	r27, 0xFF	; 255
    4fbe:	9b 07       	cpc	r25, r27
    4fc0:	41 f0       	breq	.+16     	; 0x4fd2 <pow+0x3c>
    4fc2:	99 23       	and	r25, r25
    4fc4:	42 f5       	brpl	.+80     	; 0x5016 <pow+0x80>
    4fc6:	ff 3f       	cpi	r31, 0xFF	; 255
    4fc8:	e1 05       	cpc	r30, r1
    4fca:	31 05       	cpc	r19, r1
    4fcc:	21 05       	cpc	r18, r1
    4fce:	11 f1       	breq	.+68     	; 0x5014 <pow+0x7e>
    4fd0:	e8 94       	clt
    4fd2:	08 94       	sec
    4fd4:	e7 95       	ror	r30
    4fd6:	d9 01       	movw	r26, r18
    4fd8:	aa 23       	and	r26, r26
    4fda:	29 f4       	brne	.+10     	; 0x4fe6 <pow+0x50>
    4fdc:	ab 2f       	mov	r26, r27
    4fde:	be 2f       	mov	r27, r30
    4fe0:	f8 5f       	subi	r31, 0xF8	; 248
    4fe2:	d0 f3       	brcs	.-12     	; 0x4fd8 <pow+0x42>
    4fe4:	10 c0       	rjmp	.+32     	; 0x5006 <pow+0x70>
    4fe6:	ff 5f       	subi	r31, 0xFF	; 255
    4fe8:	70 f4       	brcc	.+28     	; 0x5006 <pow+0x70>
    4fea:	a6 95       	lsr	r26
    4fec:	e0 f7       	brcc	.-8      	; 0x4fe6 <pow+0x50>
    4fee:	f7 39       	cpi	r31, 0x97	; 151
    4ff0:	50 f0       	brcs	.+20     	; 0x5006 <pow+0x70>
    4ff2:	19 f0       	breq	.+6      	; 0x4ffa <pow+0x64>
    4ff4:	ff 3a       	cpi	r31, 0xAF	; 175
    4ff6:	38 f4       	brcc	.+14     	; 0x5006 <pow+0x70>
    4ff8:	9f 77       	andi	r25, 0x7F	; 127
    4ffa:	9f 93       	push	r25
    4ffc:	0c d0       	rcall	.+24     	; 0x5016 <pow+0x80>
    4ffe:	0f 90       	pop	r0
    5000:	07 fc       	sbrc	r0, 7
    5002:	90 58       	subi	r25, 0x80	; 128
    5004:	08 95       	ret
    5006:	3e f0       	brts	.+14     	; 0x5016 <pow+0x80>
    5008:	cf ce       	rjmp	.-610    	; 0x4da8 <__fp_nan>
    500a:	60 e0       	ldi	r22, 0x00	; 0
    500c:	70 e0       	ldi	r23, 0x00	; 0
    500e:	80 e8       	ldi	r24, 0x80	; 128
    5010:	9f e3       	ldi	r25, 0x3F	; 63
    5012:	08 95       	ret
    5014:	4f e7       	ldi	r20, 0x7F	; 127
    5016:	9f 77       	andi	r25, 0x7F	; 127
    5018:	5f 93       	push	r21
    501a:	4f 93       	push	r20
    501c:	3f 93       	push	r19
    501e:	2f 93       	push	r18
    5020:	17 df       	rcall	.-466    	; 0x4e50 <log>
    5022:	2f 91       	pop	r18
    5024:	3f 91       	pop	r19
    5026:	4f 91       	pop	r20
    5028:	5f 91       	pop	r21
    502a:	52 df       	rcall	.-348    	; 0x4ed0 <__mulsf3>
    502c:	05 c0       	rjmp	.+10     	; 0x5038 <exp>
    502e:	19 f4       	brne	.+6      	; 0x5036 <pow+0xa0>
    5030:	0e f0       	brts	.+2      	; 0x5034 <pow+0x9e>
    5032:	b4 ce       	rjmp	.-664    	; 0x4d9c <__fp_inf>
    5034:	fd ce       	rjmp	.-518    	; 0x4e30 <__fp_zero>
    5036:	b8 ce       	rjmp	.-656    	; 0x4da8 <__fp_nan>

00005038 <exp>:
    5038:	e1 de       	rcall	.-574    	; 0x4dfc <__fp_splitA>
    503a:	c8 f3       	brcs	.-14     	; 0x502e <pow+0x98>
    503c:	96 38       	cpi	r25, 0x86	; 134
    503e:	c0 f7       	brcc	.-16     	; 0x5030 <pow+0x9a>
    5040:	07 f8       	bld	r0, 7
    5042:	0f 92       	push	r0
    5044:	e8 94       	clt
    5046:	2b e3       	ldi	r18, 0x3B	; 59
    5048:	3a ea       	ldi	r19, 0xAA	; 170
    504a:	48 eb       	ldi	r20, 0xB8	; 184
    504c:	5f e7       	ldi	r21, 0x7F	; 127
    504e:	4e df       	rcall	.-356    	; 0x4eec <__mulsf3_pse>
    5050:	0f 92       	push	r0
    5052:	0f 92       	push	r0
    5054:	0f 92       	push	r0
    5056:	4d b7       	in	r20, 0x3d	; 61
    5058:	5e b7       	in	r21, 0x3e	; 62
    505a:	0f 92       	push	r0
    505c:	89 d0       	rcall	.+274    	; 0x5170 <modf>
    505e:	e6 ee       	ldi	r30, 0xE6	; 230
    5060:	f0 e0       	ldi	r31, 0x00	; 0
    5062:	24 d0       	rcall	.+72     	; 0x50ac <__fp_powser>
    5064:	4f 91       	pop	r20
    5066:	5f 91       	pop	r21
    5068:	ef 91       	pop	r30
    506a:	ff 91       	pop	r31
    506c:	e5 95       	asr	r30
    506e:	ee 1f       	adc	r30, r30
    5070:	ff 1f       	adc	r31, r31
    5072:	49 f0       	breq	.+18     	; 0x5086 <exp+0x4e>
    5074:	fe 57       	subi	r31, 0x7E	; 126
    5076:	e0 68       	ori	r30, 0x80	; 128
    5078:	44 27       	eor	r20, r20
    507a:	ee 0f       	add	r30, r30
    507c:	44 1f       	adc	r20, r20
    507e:	fa 95       	dec	r31
    5080:	e1 f7       	brne	.-8      	; 0x507a <exp+0x42>
    5082:	41 95       	neg	r20
    5084:	55 0b       	sbc	r21, r21
    5086:	40 d0       	rcall	.+128    	; 0x5108 <ldexp>
    5088:	0f 90       	pop	r0
    508a:	07 fe       	sbrs	r0, 7
    508c:	34 c0       	rjmp	.+104    	; 0x50f6 <inverse>
    508e:	08 95       	ret

00005090 <__fp_mpack>:
    5090:	9f 3f       	cpi	r25, 0xFF	; 255
    5092:	31 f0       	breq	.+12     	; 0x50a0 <__fp_mpack_finite+0xc>

00005094 <__fp_mpack_finite>:
    5094:	91 50       	subi	r25, 0x01	; 1
    5096:	20 f4       	brcc	.+8      	; 0x50a0 <__fp_mpack_finite+0xc>
    5098:	87 95       	ror	r24
    509a:	77 95       	ror	r23
    509c:	67 95       	ror	r22
    509e:	b7 95       	ror	r27
    50a0:	88 0f       	add	r24, r24
    50a2:	91 1d       	adc	r25, r1
    50a4:	96 95       	lsr	r25
    50a6:	87 95       	ror	r24
    50a8:	97 f9       	bld	r25, 7
    50aa:	08 95       	ret

000050ac <__fp_powser>:
    50ac:	df 93       	push	r29
    50ae:	cf 93       	push	r28
    50b0:	1f 93       	push	r17
    50b2:	0f 93       	push	r16
    50b4:	ff 92       	push	r15
    50b6:	ef 92       	push	r14
    50b8:	df 92       	push	r13
    50ba:	7b 01       	movw	r14, r22
    50bc:	8c 01       	movw	r16, r24
    50be:	68 94       	set
    50c0:	05 c0       	rjmp	.+10     	; 0x50cc <__fp_powser+0x20>
    50c2:	da 2e       	mov	r13, r26
    50c4:	ef 01       	movw	r28, r30
    50c6:	10 df       	rcall	.-480    	; 0x4ee8 <__mulsf3x>
    50c8:	fe 01       	movw	r30, r28
    50ca:	e8 94       	clt
    50cc:	a5 91       	lpm	r26, Z+
    50ce:	25 91       	lpm	r18, Z+
    50d0:	35 91       	lpm	r19, Z+
    50d2:	45 91       	lpm	r20, Z+
    50d4:	55 91       	lpm	r21, Z+
    50d6:	ae f3       	brts	.-22     	; 0x50c2 <__fp_powser+0x16>
    50d8:	ef 01       	movw	r28, r30
    50da:	0f dd       	rcall	.-1506   	; 0x4afa <__addsf3x>
    50dc:	fe 01       	movw	r30, r28
    50de:	97 01       	movw	r18, r14
    50e0:	a8 01       	movw	r20, r16
    50e2:	da 94       	dec	r13
    50e4:	79 f7       	brne	.-34     	; 0x50c4 <__fp_powser+0x18>
    50e6:	df 90       	pop	r13
    50e8:	ef 90       	pop	r14
    50ea:	ff 90       	pop	r15
    50ec:	0f 91       	pop	r16
    50ee:	1f 91       	pop	r17
    50f0:	cf 91       	pop	r28
    50f2:	df 91       	pop	r29
    50f4:	08 95       	ret

000050f6 <inverse>:
    50f6:	9b 01       	movw	r18, r22
    50f8:	ac 01       	movw	r20, r24
    50fa:	60 e0       	ldi	r22, 0x00	; 0
    50fc:	70 e0       	ldi	r23, 0x00	; 0
    50fe:	80 e8       	ldi	r24, 0x80	; 128
    5100:	9f e3       	ldi	r25, 0x3F	; 63
    5102:	52 cd       	rjmp	.-1372   	; 0x4ba8 <__divsf3>
    5104:	4b ce       	rjmp	.-874    	; 0x4d9c <__fp_inf>
    5106:	c4 cf       	rjmp	.-120    	; 0x5090 <__fp_mpack>

00005108 <ldexp>:
    5108:	79 de       	rcall	.-782    	; 0x4dfc <__fp_splitA>
    510a:	e8 f3       	brcs	.-6      	; 0x5106 <inverse+0x10>
    510c:	99 23       	and	r25, r25
    510e:	d9 f3       	breq	.-10     	; 0x5106 <inverse+0x10>
    5110:	94 0f       	add	r25, r20
    5112:	51 1d       	adc	r21, r1
    5114:	bb f3       	brvs	.-18     	; 0x5104 <inverse+0xe>
    5116:	91 50       	subi	r25, 0x01	; 1
    5118:	50 40       	sbci	r21, 0x00	; 0
    511a:	94 f0       	brlt	.+36     	; 0x5140 <ldexp+0x38>
    511c:	59 f0       	breq	.+22     	; 0x5134 <ldexp+0x2c>
    511e:	88 23       	and	r24, r24
    5120:	32 f0       	brmi	.+12     	; 0x512e <ldexp+0x26>
    5122:	66 0f       	add	r22, r22
    5124:	77 1f       	adc	r23, r23
    5126:	88 1f       	adc	r24, r24
    5128:	91 50       	subi	r25, 0x01	; 1
    512a:	50 40       	sbci	r21, 0x00	; 0
    512c:	c1 f7       	brne	.-16     	; 0x511e <ldexp+0x16>
    512e:	9e 3f       	cpi	r25, 0xFE	; 254
    5130:	51 05       	cpc	r21, r1
    5132:	44 f7       	brge	.-48     	; 0x5104 <inverse+0xe>
    5134:	88 0f       	add	r24, r24
    5136:	91 1d       	adc	r25, r1
    5138:	96 95       	lsr	r25
    513a:	87 95       	ror	r24
    513c:	97 f9       	bld	r25, 7
    513e:	08 95       	ret
    5140:	5f 3f       	cpi	r21, 0xFF	; 255
    5142:	ac f0       	brlt	.+42     	; 0x516e <ldexp+0x66>
    5144:	98 3e       	cpi	r25, 0xE8	; 232
    5146:	9c f0       	brlt	.+38     	; 0x516e <ldexp+0x66>
    5148:	bb 27       	eor	r27, r27
    514a:	86 95       	lsr	r24
    514c:	77 95       	ror	r23
    514e:	67 95       	ror	r22
    5150:	b7 95       	ror	r27
    5152:	08 f4       	brcc	.+2      	; 0x5156 <ldexp+0x4e>
    5154:	b1 60       	ori	r27, 0x01	; 1
    5156:	93 95       	inc	r25
    5158:	c1 f7       	brne	.-16     	; 0x514a <ldexp+0x42>
    515a:	bb 0f       	add	r27, r27
    515c:	58 f7       	brcc	.-42     	; 0x5134 <ldexp+0x2c>
    515e:	11 f4       	brne	.+4      	; 0x5164 <ldexp+0x5c>
    5160:	60 ff       	sbrs	r22, 0
    5162:	e8 cf       	rjmp	.-48     	; 0x5134 <ldexp+0x2c>
    5164:	6f 5f       	subi	r22, 0xFF	; 255
    5166:	7f 4f       	sbci	r23, 0xFF	; 255
    5168:	8f 4f       	sbci	r24, 0xFF	; 255
    516a:	9f 4f       	sbci	r25, 0xFF	; 255
    516c:	e3 cf       	rjmp	.-58     	; 0x5134 <ldexp+0x2c>
    516e:	61 ce       	rjmp	.-830    	; 0x4e32 <__fp_szero>

00005170 <modf>:
    5170:	fa 01       	movw	r30, r20
    5172:	dc 01       	movw	r26, r24
    5174:	aa 0f       	add	r26, r26
    5176:	bb 1f       	adc	r27, r27
    5178:	9b 01       	movw	r18, r22
    517a:	ac 01       	movw	r20, r24
    517c:	bf 57       	subi	r27, 0x7F	; 127
    517e:	28 f4       	brcc	.+10     	; 0x518a <modf+0x1a>
    5180:	22 27       	eor	r18, r18
    5182:	33 27       	eor	r19, r19
    5184:	44 27       	eor	r20, r20
    5186:	50 78       	andi	r21, 0x80	; 128
    5188:	1f c0       	rjmp	.+62     	; 0x51c8 <modf+0x58>
    518a:	b7 51       	subi	r27, 0x17	; 23
    518c:	88 f4       	brcc	.+34     	; 0x51b0 <modf+0x40>
    518e:	ab 2f       	mov	r26, r27
    5190:	00 24       	eor	r0, r0
    5192:	46 95       	lsr	r20
    5194:	37 95       	ror	r19
    5196:	27 95       	ror	r18
    5198:	01 1c       	adc	r0, r1
    519a:	a3 95       	inc	r26
    519c:	d2 f3       	brmi	.-12     	; 0x5192 <modf+0x22>
    519e:	00 20       	and	r0, r0
    51a0:	69 f0       	breq	.+26     	; 0x51bc <modf+0x4c>
    51a2:	22 0f       	add	r18, r18
    51a4:	33 1f       	adc	r19, r19
    51a6:	44 1f       	adc	r20, r20
    51a8:	b3 95       	inc	r27
    51aa:	da f3       	brmi	.-10     	; 0x51a2 <modf+0x32>
    51ac:	0d d0       	rcall	.+26     	; 0x51c8 <modf+0x58>
    51ae:	93 cc       	rjmp	.-1754   	; 0x4ad6 <__subsf3>
    51b0:	61 30       	cpi	r22, 0x01	; 1
    51b2:	71 05       	cpc	r23, r1
    51b4:	a0 e8       	ldi	r26, 0x80	; 128
    51b6:	8a 07       	cpc	r24, r26
    51b8:	b9 46       	sbci	r27, 0x69	; 105
    51ba:	30 f4       	brcc	.+12     	; 0x51c8 <modf+0x58>
    51bc:	9b 01       	movw	r18, r22
    51be:	ac 01       	movw	r20, r24
    51c0:	66 27       	eor	r22, r22
    51c2:	77 27       	eor	r23, r23
    51c4:	88 27       	eor	r24, r24
    51c6:	90 78       	andi	r25, 0x80	; 128
    51c8:	30 96       	adiw	r30, 0x00	; 0
    51ca:	21 f0       	breq	.+8      	; 0x51d4 <modf+0x64>
    51cc:	20 83       	st	Z, r18
    51ce:	31 83       	std	Z+1, r19	; 0x01
    51d0:	42 83       	std	Z+2, r20	; 0x02
    51d2:	53 83       	std	Z+3, r21	; 0x03
    51d4:	08 95       	ret

000051d6 <__mulsi3>:
    51d6:	62 9f       	mul	r22, r18
    51d8:	d0 01       	movw	r26, r0
    51da:	73 9f       	mul	r23, r19
    51dc:	f0 01       	movw	r30, r0
    51de:	82 9f       	mul	r24, r18
    51e0:	e0 0d       	add	r30, r0
    51e2:	f1 1d       	adc	r31, r1
    51e4:	64 9f       	mul	r22, r20
    51e6:	e0 0d       	add	r30, r0
    51e8:	f1 1d       	adc	r31, r1
    51ea:	92 9f       	mul	r25, r18
    51ec:	f0 0d       	add	r31, r0
    51ee:	83 9f       	mul	r24, r19
    51f0:	f0 0d       	add	r31, r0
    51f2:	74 9f       	mul	r23, r20
    51f4:	f0 0d       	add	r31, r0
    51f6:	65 9f       	mul	r22, r21
    51f8:	f0 0d       	add	r31, r0
    51fa:	99 27       	eor	r25, r25
    51fc:	72 9f       	mul	r23, r18
    51fe:	b0 0d       	add	r27, r0
    5200:	e1 1d       	adc	r30, r1
    5202:	f9 1f       	adc	r31, r25
    5204:	63 9f       	mul	r22, r19
    5206:	b0 0d       	add	r27, r0
    5208:	e1 1d       	adc	r30, r1
    520a:	f9 1f       	adc	r31, r25
    520c:	bd 01       	movw	r22, r26
    520e:	cf 01       	movw	r24, r30
    5210:	11 24       	eor	r1, r1
    5212:	08 95       	ret

00005214 <__udivmodqi4>:
    5214:	99 1b       	sub	r25, r25
    5216:	79 e0       	ldi	r23, 0x09	; 9
    5218:	04 c0       	rjmp	.+8      	; 0x5222 <__udivmodqi4_ep>

0000521a <__udivmodqi4_loop>:
    521a:	99 1f       	adc	r25, r25
    521c:	96 17       	cp	r25, r22
    521e:	08 f0       	brcs	.+2      	; 0x5222 <__udivmodqi4_ep>
    5220:	96 1b       	sub	r25, r22

00005222 <__udivmodqi4_ep>:
    5222:	88 1f       	adc	r24, r24
    5224:	7a 95       	dec	r23
    5226:	c9 f7       	brne	.-14     	; 0x521a <__udivmodqi4_loop>
    5228:	80 95       	com	r24
    522a:	08 95       	ret

0000522c <__udivmodhi4>:
    522c:	aa 1b       	sub	r26, r26
    522e:	bb 1b       	sub	r27, r27
    5230:	51 e1       	ldi	r21, 0x11	; 17
    5232:	07 c0       	rjmp	.+14     	; 0x5242 <__udivmodhi4_ep>

00005234 <__udivmodhi4_loop>:
    5234:	aa 1f       	adc	r26, r26
    5236:	bb 1f       	adc	r27, r27
    5238:	a6 17       	cp	r26, r22
    523a:	b7 07       	cpc	r27, r23
    523c:	10 f0       	brcs	.+4      	; 0x5242 <__udivmodhi4_ep>
    523e:	a6 1b       	sub	r26, r22
    5240:	b7 0b       	sbc	r27, r23

00005242 <__udivmodhi4_ep>:
    5242:	88 1f       	adc	r24, r24
    5244:	99 1f       	adc	r25, r25
    5246:	5a 95       	dec	r21
    5248:	a9 f7       	brne	.-22     	; 0x5234 <__udivmodhi4_loop>
    524a:	80 95       	com	r24
    524c:	90 95       	com	r25
    524e:	bc 01       	movw	r22, r24
    5250:	cd 01       	movw	r24, r26
    5252:	08 95       	ret

00005254 <__divmodhi4>:
    5254:	97 fb       	bst	r25, 7
    5256:	09 2e       	mov	r0, r25
    5258:	07 26       	eor	r0, r23
    525a:	0a d0       	rcall	.+20     	; 0x5270 <__divmodhi4_neg1>
    525c:	77 fd       	sbrc	r23, 7
    525e:	04 d0       	rcall	.+8      	; 0x5268 <__divmodhi4_neg2>
    5260:	e5 df       	rcall	.-54     	; 0x522c <__udivmodhi4>
    5262:	06 d0       	rcall	.+12     	; 0x5270 <__divmodhi4_neg1>
    5264:	00 20       	and	r0, r0
    5266:	1a f4       	brpl	.+6      	; 0x526e <__divmodhi4_exit>

00005268 <__divmodhi4_neg2>:
    5268:	70 95       	com	r23
    526a:	61 95       	neg	r22
    526c:	7f 4f       	sbci	r23, 0xFF	; 255

0000526e <__divmodhi4_exit>:
    526e:	08 95       	ret

00005270 <__divmodhi4_neg1>:
    5270:	f6 f7       	brtc	.-4      	; 0x526e <__divmodhi4_exit>
    5272:	90 95       	com	r25
    5274:	81 95       	neg	r24
    5276:	9f 4f       	sbci	r25, 0xFF	; 255
    5278:	08 95       	ret

0000527a <__udivmodsi4>:
    527a:	a1 e2       	ldi	r26, 0x21	; 33
    527c:	1a 2e       	mov	r1, r26
    527e:	aa 1b       	sub	r26, r26
    5280:	bb 1b       	sub	r27, r27
    5282:	fd 01       	movw	r30, r26
    5284:	0d c0       	rjmp	.+26     	; 0x52a0 <__udivmodsi4_ep>

00005286 <__udivmodsi4_loop>:
    5286:	aa 1f       	adc	r26, r26
    5288:	bb 1f       	adc	r27, r27
    528a:	ee 1f       	adc	r30, r30
    528c:	ff 1f       	adc	r31, r31
    528e:	a2 17       	cp	r26, r18
    5290:	b3 07       	cpc	r27, r19
    5292:	e4 07       	cpc	r30, r20
    5294:	f5 07       	cpc	r31, r21
    5296:	20 f0       	brcs	.+8      	; 0x52a0 <__udivmodsi4_ep>
    5298:	a2 1b       	sub	r26, r18
    529a:	b3 0b       	sbc	r27, r19
    529c:	e4 0b       	sbc	r30, r20
    529e:	f5 0b       	sbc	r31, r21

000052a0 <__udivmodsi4_ep>:
    52a0:	66 1f       	adc	r22, r22
    52a2:	77 1f       	adc	r23, r23
    52a4:	88 1f       	adc	r24, r24
    52a6:	99 1f       	adc	r25, r25
    52a8:	1a 94       	dec	r1
    52aa:	69 f7       	brne	.-38     	; 0x5286 <__udivmodsi4_loop>
    52ac:	60 95       	com	r22
    52ae:	70 95       	com	r23
    52b0:	80 95       	com	r24
    52b2:	90 95       	com	r25
    52b4:	9b 01       	movw	r18, r22
    52b6:	ac 01       	movw	r20, r24
    52b8:	bd 01       	movw	r22, r26
    52ba:	cf 01       	movw	r24, r30
    52bc:	08 95       	ret

000052be <strcpy>:
    52be:	fb 01       	movw	r30, r22
    52c0:	dc 01       	movw	r26, r24
    52c2:	01 90       	ld	r0, Z+
    52c4:	0d 92       	st	X+, r0
    52c6:	00 20       	and	r0, r0
    52c8:	e1 f7       	brne	.-8      	; 0x52c2 <strcpy+0x4>
    52ca:	08 95       	ret

000052cc <strncmp>:
    52cc:	fb 01       	movw	r30, r22
    52ce:	dc 01       	movw	r26, r24
    52d0:	41 50       	subi	r20, 0x01	; 1
    52d2:	50 40       	sbci	r21, 0x00	; 0
    52d4:	30 f0       	brcs	.+12     	; 0x52e2 <strncmp+0x16>
    52d6:	8d 91       	ld	r24, X+
    52d8:	01 90       	ld	r0, Z+
    52da:	80 19       	sub	r24, r0
    52dc:	19 f4       	brne	.+6      	; 0x52e4 <strncmp+0x18>
    52de:	00 20       	and	r0, r0
    52e0:	b9 f7       	brne	.-18     	; 0x52d0 <strncmp+0x4>
    52e2:	88 1b       	sub	r24, r24
    52e4:	99 0b       	sbc	r25, r25
    52e6:	08 95       	ret

000052e8 <sprintf>:
    52e8:	0f 93       	push	r16
    52ea:	1f 93       	push	r17
    52ec:	df 93       	push	r29
    52ee:	cf 93       	push	r28
    52f0:	cd b7       	in	r28, 0x3d	; 61
    52f2:	de b7       	in	r29, 0x3e	; 62
    52f4:	2e 97       	sbiw	r28, 0x0e	; 14
    52f6:	0f b6       	in	r0, 0x3f	; 63
    52f8:	f8 94       	cli
    52fa:	de bf       	out	0x3e, r29	; 62
    52fc:	0f be       	out	0x3f, r0	; 63
    52fe:	cd bf       	out	0x3d, r28	; 61
    5300:	0d 89       	ldd	r16, Y+21	; 0x15
    5302:	1e 89       	ldd	r17, Y+22	; 0x16
    5304:	86 e0       	ldi	r24, 0x06	; 6
    5306:	8c 83       	std	Y+4, r24	; 0x04
    5308:	1a 83       	std	Y+2, r17	; 0x02
    530a:	09 83       	std	Y+1, r16	; 0x01
    530c:	8f ef       	ldi	r24, 0xFF	; 255
    530e:	9f e7       	ldi	r25, 0x7F	; 127
    5310:	9e 83       	std	Y+6, r25	; 0x06
    5312:	8d 83       	std	Y+5, r24	; 0x05
    5314:	9e 01       	movw	r18, r28
    5316:	27 5e       	subi	r18, 0xE7	; 231
    5318:	3f 4f       	sbci	r19, 0xFF	; 255
    531a:	ce 01       	movw	r24, r28
    531c:	01 96       	adiw	r24, 0x01	; 1
    531e:	6f 89       	ldd	r22, Y+23	; 0x17
    5320:	78 8d       	ldd	r23, Y+24	; 0x18
    5322:	a9 01       	movw	r20, r18
    5324:	0e 94 a4 29 	call	0x5348	; 0x5348 <vfprintf>
    5328:	ef 81       	ldd	r30, Y+7	; 0x07
    532a:	f8 85       	ldd	r31, Y+8	; 0x08
    532c:	e0 0f       	add	r30, r16
    532e:	f1 1f       	adc	r31, r17
    5330:	10 82       	st	Z, r1
    5332:	2e 96       	adiw	r28, 0x0e	; 14
    5334:	0f b6       	in	r0, 0x3f	; 63
    5336:	f8 94       	cli
    5338:	de bf       	out	0x3e, r29	; 62
    533a:	0f be       	out	0x3f, r0	; 63
    533c:	cd bf       	out	0x3d, r28	; 61
    533e:	cf 91       	pop	r28
    5340:	df 91       	pop	r29
    5342:	1f 91       	pop	r17
    5344:	0f 91       	pop	r16
    5346:	08 95       	ret

00005348 <vfprintf>:
    5348:	2f 92       	push	r2
    534a:	3f 92       	push	r3
    534c:	4f 92       	push	r4
    534e:	5f 92       	push	r5
    5350:	6f 92       	push	r6
    5352:	7f 92       	push	r7
    5354:	8f 92       	push	r8
    5356:	9f 92       	push	r9
    5358:	af 92       	push	r10
    535a:	bf 92       	push	r11
    535c:	cf 92       	push	r12
    535e:	df 92       	push	r13
    5360:	ef 92       	push	r14
    5362:	ff 92       	push	r15
    5364:	0f 93       	push	r16
    5366:	1f 93       	push	r17
    5368:	df 93       	push	r29
    536a:	cf 93       	push	r28
    536c:	cd b7       	in	r28, 0x3d	; 61
    536e:	de b7       	in	r29, 0x3e	; 62
    5370:	2c 97       	sbiw	r28, 0x0c	; 12
    5372:	0f b6       	in	r0, 0x3f	; 63
    5374:	f8 94       	cli
    5376:	de bf       	out	0x3e, r29	; 62
    5378:	0f be       	out	0x3f, r0	; 63
    537a:	cd bf       	out	0x3d, r28	; 61
    537c:	6c 01       	movw	r12, r24
    537e:	1b 01       	movw	r2, r22
    5380:	8a 01       	movw	r16, r20
    5382:	fc 01       	movw	r30, r24
    5384:	17 82       	std	Z+7, r1	; 0x07
    5386:	16 82       	std	Z+6, r1	; 0x06
    5388:	83 81       	ldd	r24, Z+3	; 0x03
    538a:	81 ff       	sbrs	r24, 1
    538c:	d1 c1       	rjmp	.+930    	; 0x5730 <vfprintf+0x3e8>
    538e:	2e 01       	movw	r4, r28
    5390:	08 94       	sec
    5392:	41 1c       	adc	r4, r1
    5394:	51 1c       	adc	r5, r1
    5396:	f6 01       	movw	r30, r12
    5398:	93 81       	ldd	r25, Z+3	; 0x03
    539a:	f1 01       	movw	r30, r2
    539c:	93 fd       	sbrc	r25, 3
    539e:	85 91       	lpm	r24, Z+
    53a0:	93 ff       	sbrs	r25, 3
    53a2:	81 91       	ld	r24, Z+
    53a4:	1f 01       	movw	r2, r30
    53a6:	88 23       	and	r24, r24
    53a8:	09 f4       	brne	.+2      	; 0x53ac <vfprintf+0x64>
    53aa:	be c1       	rjmp	.+892    	; 0x5728 <vfprintf+0x3e0>
    53ac:	85 32       	cpi	r24, 0x25	; 37
    53ae:	39 f4       	brne	.+14     	; 0x53be <vfprintf+0x76>
    53b0:	93 fd       	sbrc	r25, 3
    53b2:	85 91       	lpm	r24, Z+
    53b4:	93 ff       	sbrs	r25, 3
    53b6:	81 91       	ld	r24, Z+
    53b8:	1f 01       	movw	r2, r30
    53ba:	85 32       	cpi	r24, 0x25	; 37
    53bc:	29 f4       	brne	.+10     	; 0x53c8 <vfprintf+0x80>
    53be:	90 e0       	ldi	r25, 0x00	; 0
    53c0:	b6 01       	movw	r22, r12
    53c2:	0e 94 f1 2b 	call	0x57e2	; 0x57e2 <fputc>
    53c6:	e7 cf       	rjmp	.-50     	; 0x5396 <vfprintf+0x4e>
    53c8:	ee 24       	eor	r14, r14
    53ca:	ff 24       	eor	r15, r15
    53cc:	20 e0       	ldi	r18, 0x00	; 0
    53ce:	20 32       	cpi	r18, 0x20	; 32
    53d0:	b0 f4       	brcc	.+44     	; 0x53fe <vfprintf+0xb6>
    53d2:	8b 32       	cpi	r24, 0x2B	; 43
    53d4:	69 f0       	breq	.+26     	; 0x53f0 <vfprintf+0xa8>
    53d6:	8c 32       	cpi	r24, 0x2C	; 44
    53d8:	28 f4       	brcc	.+10     	; 0x53e4 <vfprintf+0x9c>
    53da:	80 32       	cpi	r24, 0x20	; 32
    53dc:	51 f0       	breq	.+20     	; 0x53f2 <vfprintf+0xaa>
    53de:	83 32       	cpi	r24, 0x23	; 35
    53e0:	71 f4       	brne	.+28     	; 0x53fe <vfprintf+0xb6>
    53e2:	0b c0       	rjmp	.+22     	; 0x53fa <vfprintf+0xb2>
    53e4:	8d 32       	cpi	r24, 0x2D	; 45
    53e6:	39 f0       	breq	.+14     	; 0x53f6 <vfprintf+0xae>
    53e8:	80 33       	cpi	r24, 0x30	; 48
    53ea:	49 f4       	brne	.+18     	; 0x53fe <vfprintf+0xb6>
    53ec:	21 60       	ori	r18, 0x01	; 1
    53ee:	2c c0       	rjmp	.+88     	; 0x5448 <vfprintf+0x100>
    53f0:	22 60       	ori	r18, 0x02	; 2
    53f2:	24 60       	ori	r18, 0x04	; 4
    53f4:	29 c0       	rjmp	.+82     	; 0x5448 <vfprintf+0x100>
    53f6:	28 60       	ori	r18, 0x08	; 8
    53f8:	27 c0       	rjmp	.+78     	; 0x5448 <vfprintf+0x100>
    53fa:	20 61       	ori	r18, 0x10	; 16
    53fc:	25 c0       	rjmp	.+74     	; 0x5448 <vfprintf+0x100>
    53fe:	27 fd       	sbrc	r18, 7
    5400:	2c c0       	rjmp	.+88     	; 0x545a <vfprintf+0x112>
    5402:	38 2f       	mov	r19, r24
    5404:	30 53       	subi	r19, 0x30	; 48
    5406:	3a 30       	cpi	r19, 0x0A	; 10
    5408:	98 f4       	brcc	.+38     	; 0x5430 <vfprintf+0xe8>
    540a:	26 ff       	sbrs	r18, 6
    540c:	08 c0       	rjmp	.+16     	; 0x541e <vfprintf+0xd6>
    540e:	8e 2d       	mov	r24, r14
    5410:	88 0f       	add	r24, r24
    5412:	e8 2e       	mov	r14, r24
    5414:	ee 0c       	add	r14, r14
    5416:	ee 0c       	add	r14, r14
    5418:	e8 0e       	add	r14, r24
    541a:	e3 0e       	add	r14, r19
    541c:	15 c0       	rjmp	.+42     	; 0x5448 <vfprintf+0x100>
    541e:	8f 2d       	mov	r24, r15
    5420:	88 0f       	add	r24, r24
    5422:	f8 2e       	mov	r15, r24
    5424:	ff 0c       	add	r15, r15
    5426:	ff 0c       	add	r15, r15
    5428:	f8 0e       	add	r15, r24
    542a:	f3 0e       	add	r15, r19
    542c:	20 62       	ori	r18, 0x20	; 32
    542e:	0c c0       	rjmp	.+24     	; 0x5448 <vfprintf+0x100>
    5430:	8e 32       	cpi	r24, 0x2E	; 46
    5432:	21 f4       	brne	.+8      	; 0x543c <vfprintf+0xf4>
    5434:	26 fd       	sbrc	r18, 6
    5436:	78 c1       	rjmp	.+752    	; 0x5728 <vfprintf+0x3e0>
    5438:	20 64       	ori	r18, 0x40	; 64
    543a:	06 c0       	rjmp	.+12     	; 0x5448 <vfprintf+0x100>
    543c:	8c 36       	cpi	r24, 0x6C	; 108
    543e:	11 f4       	brne	.+4      	; 0x5444 <vfprintf+0xfc>
    5440:	20 68       	ori	r18, 0x80	; 128
    5442:	02 c0       	rjmp	.+4      	; 0x5448 <vfprintf+0x100>
    5444:	88 36       	cpi	r24, 0x68	; 104
    5446:	49 f4       	brne	.+18     	; 0x545a <vfprintf+0x112>
    5448:	f1 01       	movw	r30, r2
    544a:	93 fd       	sbrc	r25, 3
    544c:	85 91       	lpm	r24, Z+
    544e:	93 ff       	sbrs	r25, 3
    5450:	81 91       	ld	r24, Z+
    5452:	1f 01       	movw	r2, r30
    5454:	88 23       	and	r24, r24
    5456:	09 f0       	breq	.+2      	; 0x545a <vfprintf+0x112>
    5458:	ba cf       	rjmp	.-140    	; 0x53ce <vfprintf+0x86>
    545a:	98 2f       	mov	r25, r24
    545c:	95 54       	subi	r25, 0x45	; 69
    545e:	93 30       	cpi	r25, 0x03	; 3
    5460:	18 f0       	brcs	.+6      	; 0x5468 <vfprintf+0x120>
    5462:	90 52       	subi	r25, 0x20	; 32
    5464:	93 30       	cpi	r25, 0x03	; 3
    5466:	28 f4       	brcc	.+10     	; 0x5472 <vfprintf+0x12a>
    5468:	0c 5f       	subi	r16, 0xFC	; 252
    546a:	1f 4f       	sbci	r17, 0xFF	; 255
    546c:	ff e3       	ldi	r31, 0x3F	; 63
    546e:	f9 83       	std	Y+1, r31	; 0x01
    5470:	0d c0       	rjmp	.+26     	; 0x548c <vfprintf+0x144>
    5472:	83 36       	cpi	r24, 0x63	; 99
    5474:	31 f0       	breq	.+12     	; 0x5482 <vfprintf+0x13a>
    5476:	83 37       	cpi	r24, 0x73	; 115
    5478:	71 f0       	breq	.+28     	; 0x5496 <vfprintf+0x14e>
    547a:	83 35       	cpi	r24, 0x53	; 83
    547c:	09 f0       	breq	.+2      	; 0x5480 <vfprintf+0x138>
    547e:	60 c0       	rjmp	.+192    	; 0x5540 <vfprintf+0x1f8>
    5480:	22 c0       	rjmp	.+68     	; 0x54c6 <vfprintf+0x17e>
    5482:	f8 01       	movw	r30, r16
    5484:	80 81       	ld	r24, Z
    5486:	89 83       	std	Y+1, r24	; 0x01
    5488:	0e 5f       	subi	r16, 0xFE	; 254
    548a:	1f 4f       	sbci	r17, 0xFF	; 255
    548c:	42 01       	movw	r8, r4
    548e:	71 e0       	ldi	r23, 0x01	; 1
    5490:	a7 2e       	mov	r10, r23
    5492:	b1 2c       	mov	r11, r1
    5494:	16 c0       	rjmp	.+44     	; 0x54c2 <vfprintf+0x17a>
    5496:	62 e0       	ldi	r22, 0x02	; 2
    5498:	66 2e       	mov	r6, r22
    549a:	71 2c       	mov	r7, r1
    549c:	60 0e       	add	r6, r16
    549e:	71 1e       	adc	r7, r17
    54a0:	f8 01       	movw	r30, r16
    54a2:	80 80       	ld	r8, Z
    54a4:	91 80       	ldd	r9, Z+1	; 0x01
    54a6:	26 ff       	sbrs	r18, 6
    54a8:	03 c0       	rjmp	.+6      	; 0x54b0 <vfprintf+0x168>
    54aa:	6e 2d       	mov	r22, r14
    54ac:	70 e0       	ldi	r23, 0x00	; 0
    54ae:	02 c0       	rjmp	.+4      	; 0x54b4 <vfprintf+0x16c>
    54b0:	6f ef       	ldi	r22, 0xFF	; 255
    54b2:	7f ef       	ldi	r23, 0xFF	; 255
    54b4:	c4 01       	movw	r24, r8
    54b6:	2c 87       	std	Y+12, r18	; 0x0c
    54b8:	0e 94 e6 2b 	call	0x57cc	; 0x57cc <strnlen>
    54bc:	5c 01       	movw	r10, r24
    54be:	83 01       	movw	r16, r6
    54c0:	2c 85       	ldd	r18, Y+12	; 0x0c
    54c2:	2f 77       	andi	r18, 0x7F	; 127
    54c4:	17 c0       	rjmp	.+46     	; 0x54f4 <vfprintf+0x1ac>
    54c6:	52 e0       	ldi	r21, 0x02	; 2
    54c8:	65 2e       	mov	r6, r21
    54ca:	71 2c       	mov	r7, r1
    54cc:	60 0e       	add	r6, r16
    54ce:	71 1e       	adc	r7, r17
    54d0:	f8 01       	movw	r30, r16
    54d2:	80 80       	ld	r8, Z
    54d4:	91 80       	ldd	r9, Z+1	; 0x01
    54d6:	26 ff       	sbrs	r18, 6
    54d8:	03 c0       	rjmp	.+6      	; 0x54e0 <vfprintf+0x198>
    54da:	6e 2d       	mov	r22, r14
    54dc:	70 e0       	ldi	r23, 0x00	; 0
    54de:	02 c0       	rjmp	.+4      	; 0x54e4 <vfprintf+0x19c>
    54e0:	6f ef       	ldi	r22, 0xFF	; 255
    54e2:	7f ef       	ldi	r23, 0xFF	; 255
    54e4:	c4 01       	movw	r24, r8
    54e6:	2c 87       	std	Y+12, r18	; 0x0c
    54e8:	0e 94 db 2b 	call	0x57b6	; 0x57b6 <strnlen_P>
    54ec:	5c 01       	movw	r10, r24
    54ee:	2c 85       	ldd	r18, Y+12	; 0x0c
    54f0:	20 68       	ori	r18, 0x80	; 128
    54f2:	83 01       	movw	r16, r6
    54f4:	23 fd       	sbrc	r18, 3
    54f6:	20 c0       	rjmp	.+64     	; 0x5538 <vfprintf+0x1f0>
    54f8:	08 c0       	rjmp	.+16     	; 0x550a <vfprintf+0x1c2>
    54fa:	80 e2       	ldi	r24, 0x20	; 32
    54fc:	90 e0       	ldi	r25, 0x00	; 0
    54fe:	b6 01       	movw	r22, r12
    5500:	2c 87       	std	Y+12, r18	; 0x0c
    5502:	0e 94 f1 2b 	call	0x57e2	; 0x57e2 <fputc>
    5506:	fa 94       	dec	r15
    5508:	2c 85       	ldd	r18, Y+12	; 0x0c
    550a:	8f 2d       	mov	r24, r15
    550c:	90 e0       	ldi	r25, 0x00	; 0
    550e:	a8 16       	cp	r10, r24
    5510:	b9 06       	cpc	r11, r25
    5512:	98 f3       	brcs	.-26     	; 0x54fa <vfprintf+0x1b2>
    5514:	11 c0       	rjmp	.+34     	; 0x5538 <vfprintf+0x1f0>
    5516:	f4 01       	movw	r30, r8
    5518:	27 fd       	sbrc	r18, 7
    551a:	85 91       	lpm	r24, Z+
    551c:	27 ff       	sbrs	r18, 7
    551e:	81 91       	ld	r24, Z+
    5520:	4f 01       	movw	r8, r30
    5522:	90 e0       	ldi	r25, 0x00	; 0
    5524:	b6 01       	movw	r22, r12
    5526:	2c 87       	std	Y+12, r18	; 0x0c
    5528:	0e 94 f1 2b 	call	0x57e2	; 0x57e2 <fputc>
    552c:	2c 85       	ldd	r18, Y+12	; 0x0c
    552e:	f1 10       	cpse	r15, r1
    5530:	fa 94       	dec	r15
    5532:	08 94       	sec
    5534:	a1 08       	sbc	r10, r1
    5536:	b1 08       	sbc	r11, r1
    5538:	a1 14       	cp	r10, r1
    553a:	b1 04       	cpc	r11, r1
    553c:	61 f7       	brne	.-40     	; 0x5516 <vfprintf+0x1ce>
    553e:	f1 c0       	rjmp	.+482    	; 0x5722 <vfprintf+0x3da>
    5540:	84 36       	cpi	r24, 0x64	; 100
    5542:	11 f0       	breq	.+4      	; 0x5548 <vfprintf+0x200>
    5544:	89 36       	cpi	r24, 0x69	; 105
    5546:	49 f5       	brne	.+82     	; 0x559a <vfprintf+0x252>
    5548:	27 ff       	sbrs	r18, 7
    554a:	08 c0       	rjmp	.+16     	; 0x555c <vfprintf+0x214>
    554c:	f8 01       	movw	r30, r16
    554e:	60 81       	ld	r22, Z
    5550:	71 81       	ldd	r23, Z+1	; 0x01
    5552:	82 81       	ldd	r24, Z+2	; 0x02
    5554:	93 81       	ldd	r25, Z+3	; 0x03
    5556:	0c 5f       	subi	r16, 0xFC	; 252
    5558:	1f 4f       	sbci	r17, 0xFF	; 255
    555a:	09 c0       	rjmp	.+18     	; 0x556e <vfprintf+0x226>
    555c:	f8 01       	movw	r30, r16
    555e:	60 81       	ld	r22, Z
    5560:	71 81       	ldd	r23, Z+1	; 0x01
    5562:	88 27       	eor	r24, r24
    5564:	77 fd       	sbrc	r23, 7
    5566:	80 95       	com	r24
    5568:	98 2f       	mov	r25, r24
    556a:	0e 5f       	subi	r16, 0xFE	; 254
    556c:	1f 4f       	sbci	r17, 0xFF	; 255
    556e:	4f e6       	ldi	r20, 0x6F	; 111
    5570:	b4 2e       	mov	r11, r20
    5572:	b2 22       	and	r11, r18
    5574:	97 ff       	sbrs	r25, 7
    5576:	09 c0       	rjmp	.+18     	; 0x558a <vfprintf+0x242>
    5578:	90 95       	com	r25
    557a:	80 95       	com	r24
    557c:	70 95       	com	r23
    557e:	61 95       	neg	r22
    5580:	7f 4f       	sbci	r23, 0xFF	; 255
    5582:	8f 4f       	sbci	r24, 0xFF	; 255
    5584:	9f 4f       	sbci	r25, 0xFF	; 255
    5586:	f0 e8       	ldi	r31, 0x80	; 128
    5588:	bf 2a       	or	r11, r31
    558a:	a2 01       	movw	r20, r4
    558c:	2a e0       	ldi	r18, 0x0A	; 10
    558e:	30 e0       	ldi	r19, 0x00	; 0
    5590:	0e 94 1d 2c 	call	0x583a	; 0x583a <__ultoa_invert>
    5594:	78 2e       	mov	r7, r24
    5596:	74 18       	sub	r7, r4
    5598:	45 c0       	rjmp	.+138    	; 0x5624 <vfprintf+0x2dc>
    559a:	85 37       	cpi	r24, 0x75	; 117
    559c:	31 f4       	brne	.+12     	; 0x55aa <vfprintf+0x262>
    559e:	3f ee       	ldi	r19, 0xEF	; 239
    55a0:	b3 2e       	mov	r11, r19
    55a2:	b2 22       	and	r11, r18
    55a4:	2a e0       	ldi	r18, 0x0A	; 10
    55a6:	30 e0       	ldi	r19, 0x00	; 0
    55a8:	25 c0       	rjmp	.+74     	; 0x55f4 <vfprintf+0x2ac>
    55aa:	99 ef       	ldi	r25, 0xF9	; 249
    55ac:	b9 2e       	mov	r11, r25
    55ae:	b2 22       	and	r11, r18
    55b0:	8f 36       	cpi	r24, 0x6F	; 111
    55b2:	c1 f0       	breq	.+48     	; 0x55e4 <vfprintf+0x29c>
    55b4:	80 37       	cpi	r24, 0x70	; 112
    55b6:	20 f4       	brcc	.+8      	; 0x55c0 <vfprintf+0x278>
    55b8:	88 35       	cpi	r24, 0x58	; 88
    55ba:	09 f0       	breq	.+2      	; 0x55be <vfprintf+0x276>
    55bc:	b5 c0       	rjmp	.+362    	; 0x5728 <vfprintf+0x3e0>
    55be:	0d c0       	rjmp	.+26     	; 0x55da <vfprintf+0x292>
    55c0:	80 37       	cpi	r24, 0x70	; 112
    55c2:	21 f0       	breq	.+8      	; 0x55cc <vfprintf+0x284>
    55c4:	88 37       	cpi	r24, 0x78	; 120
    55c6:	09 f0       	breq	.+2      	; 0x55ca <vfprintf+0x282>
    55c8:	af c0       	rjmp	.+350    	; 0x5728 <vfprintf+0x3e0>
    55ca:	02 c0       	rjmp	.+4      	; 0x55d0 <vfprintf+0x288>
    55cc:	20 e1       	ldi	r18, 0x10	; 16
    55ce:	b2 2a       	or	r11, r18
    55d0:	b4 fe       	sbrs	r11, 4
    55d2:	0b c0       	rjmp	.+22     	; 0x55ea <vfprintf+0x2a2>
    55d4:	84 e0       	ldi	r24, 0x04	; 4
    55d6:	b8 2a       	or	r11, r24
    55d8:	08 c0       	rjmp	.+16     	; 0x55ea <vfprintf+0x2a2>
    55da:	b4 fe       	sbrs	r11, 4
    55dc:	09 c0       	rjmp	.+18     	; 0x55f0 <vfprintf+0x2a8>
    55de:	e6 e0       	ldi	r30, 0x06	; 6
    55e0:	be 2a       	or	r11, r30
    55e2:	06 c0       	rjmp	.+12     	; 0x55f0 <vfprintf+0x2a8>
    55e4:	28 e0       	ldi	r18, 0x08	; 8
    55e6:	30 e0       	ldi	r19, 0x00	; 0
    55e8:	05 c0       	rjmp	.+10     	; 0x55f4 <vfprintf+0x2ac>
    55ea:	20 e1       	ldi	r18, 0x10	; 16
    55ec:	30 e0       	ldi	r19, 0x00	; 0
    55ee:	02 c0       	rjmp	.+4      	; 0x55f4 <vfprintf+0x2ac>
    55f0:	20 e1       	ldi	r18, 0x10	; 16
    55f2:	32 e0       	ldi	r19, 0x02	; 2
    55f4:	b7 fe       	sbrs	r11, 7
    55f6:	08 c0       	rjmp	.+16     	; 0x5608 <vfprintf+0x2c0>
    55f8:	f8 01       	movw	r30, r16
    55fa:	60 81       	ld	r22, Z
    55fc:	71 81       	ldd	r23, Z+1	; 0x01
    55fe:	82 81       	ldd	r24, Z+2	; 0x02
    5600:	93 81       	ldd	r25, Z+3	; 0x03
    5602:	0c 5f       	subi	r16, 0xFC	; 252
    5604:	1f 4f       	sbci	r17, 0xFF	; 255
    5606:	07 c0       	rjmp	.+14     	; 0x5616 <vfprintf+0x2ce>
    5608:	f8 01       	movw	r30, r16
    560a:	60 81       	ld	r22, Z
    560c:	71 81       	ldd	r23, Z+1	; 0x01
    560e:	80 e0       	ldi	r24, 0x00	; 0
    5610:	90 e0       	ldi	r25, 0x00	; 0
    5612:	0e 5f       	subi	r16, 0xFE	; 254
    5614:	1f 4f       	sbci	r17, 0xFF	; 255
    5616:	a2 01       	movw	r20, r4
    5618:	0e 94 1d 2c 	call	0x583a	; 0x583a <__ultoa_invert>
    561c:	78 2e       	mov	r7, r24
    561e:	74 18       	sub	r7, r4
    5620:	ff e7       	ldi	r31, 0x7F	; 127
    5622:	bf 22       	and	r11, r31
    5624:	b6 fe       	sbrs	r11, 6
    5626:	0b c0       	rjmp	.+22     	; 0x563e <vfprintf+0x2f6>
    5628:	2e ef       	ldi	r18, 0xFE	; 254
    562a:	b2 22       	and	r11, r18
    562c:	7e 14       	cp	r7, r14
    562e:	38 f4       	brcc	.+14     	; 0x563e <vfprintf+0x2f6>
    5630:	b4 fe       	sbrs	r11, 4
    5632:	07 c0       	rjmp	.+14     	; 0x5642 <vfprintf+0x2fa>
    5634:	b2 fc       	sbrc	r11, 2
    5636:	05 c0       	rjmp	.+10     	; 0x5642 <vfprintf+0x2fa>
    5638:	8f ee       	ldi	r24, 0xEF	; 239
    563a:	b8 22       	and	r11, r24
    563c:	02 c0       	rjmp	.+4      	; 0x5642 <vfprintf+0x2fa>
    563e:	a7 2c       	mov	r10, r7
    5640:	01 c0       	rjmp	.+2      	; 0x5644 <vfprintf+0x2fc>
    5642:	ae 2c       	mov	r10, r14
    5644:	8b 2d       	mov	r24, r11
    5646:	90 e0       	ldi	r25, 0x00	; 0
    5648:	b4 fe       	sbrs	r11, 4
    564a:	0d c0       	rjmp	.+26     	; 0x5666 <vfprintf+0x31e>
    564c:	fe 01       	movw	r30, r28
    564e:	e7 0d       	add	r30, r7
    5650:	f1 1d       	adc	r31, r1
    5652:	20 81       	ld	r18, Z
    5654:	20 33       	cpi	r18, 0x30	; 48
    5656:	19 f4       	brne	.+6      	; 0x565e <vfprintf+0x316>
    5658:	e9 ee       	ldi	r30, 0xE9	; 233
    565a:	be 22       	and	r11, r30
    565c:	09 c0       	rjmp	.+18     	; 0x5670 <vfprintf+0x328>
    565e:	a3 94       	inc	r10
    5660:	b2 fe       	sbrs	r11, 2
    5662:	06 c0       	rjmp	.+12     	; 0x5670 <vfprintf+0x328>
    5664:	04 c0       	rjmp	.+8      	; 0x566e <vfprintf+0x326>
    5666:	86 78       	andi	r24, 0x86	; 134
    5668:	90 70       	andi	r25, 0x00	; 0
    566a:	00 97       	sbiw	r24, 0x00	; 0
    566c:	09 f0       	breq	.+2      	; 0x5670 <vfprintf+0x328>
    566e:	a3 94       	inc	r10
    5670:	8b 2c       	mov	r8, r11
    5672:	99 24       	eor	r9, r9
    5674:	b3 fc       	sbrc	r11, 3
    5676:	14 c0       	rjmp	.+40     	; 0x56a0 <vfprintf+0x358>
    5678:	b0 fe       	sbrs	r11, 0
    567a:	0f c0       	rjmp	.+30     	; 0x569a <vfprintf+0x352>
    567c:	af 14       	cp	r10, r15
    567e:	28 f4       	brcc	.+10     	; 0x568a <vfprintf+0x342>
    5680:	e7 2c       	mov	r14, r7
    5682:	ef 0c       	add	r14, r15
    5684:	ea 18       	sub	r14, r10
    5686:	af 2c       	mov	r10, r15
    5688:	08 c0       	rjmp	.+16     	; 0x569a <vfprintf+0x352>
    568a:	e7 2c       	mov	r14, r7
    568c:	06 c0       	rjmp	.+12     	; 0x569a <vfprintf+0x352>
    568e:	80 e2       	ldi	r24, 0x20	; 32
    5690:	90 e0       	ldi	r25, 0x00	; 0
    5692:	b6 01       	movw	r22, r12
    5694:	0e 94 f1 2b 	call	0x57e2	; 0x57e2 <fputc>
    5698:	a3 94       	inc	r10
    569a:	af 14       	cp	r10, r15
    569c:	c0 f3       	brcs	.-16     	; 0x568e <vfprintf+0x346>
    569e:	04 c0       	rjmp	.+8      	; 0x56a8 <vfprintf+0x360>
    56a0:	af 14       	cp	r10, r15
    56a2:	10 f4       	brcc	.+4      	; 0x56a8 <vfprintf+0x360>
    56a4:	fa 18       	sub	r15, r10
    56a6:	01 c0       	rjmp	.+2      	; 0x56aa <vfprintf+0x362>
    56a8:	ff 24       	eor	r15, r15
    56aa:	84 fe       	sbrs	r8, 4
    56ac:	0f c0       	rjmp	.+30     	; 0x56cc <vfprintf+0x384>
    56ae:	80 e3       	ldi	r24, 0x30	; 48
    56b0:	90 e0       	ldi	r25, 0x00	; 0
    56b2:	b6 01       	movw	r22, r12
    56b4:	0e 94 f1 2b 	call	0x57e2	; 0x57e2 <fputc>
    56b8:	82 fe       	sbrs	r8, 2
    56ba:	1f c0       	rjmp	.+62     	; 0x56fa <vfprintf+0x3b2>
    56bc:	81 fe       	sbrs	r8, 1
    56be:	03 c0       	rjmp	.+6      	; 0x56c6 <vfprintf+0x37e>
    56c0:	88 e5       	ldi	r24, 0x58	; 88
    56c2:	90 e0       	ldi	r25, 0x00	; 0
    56c4:	10 c0       	rjmp	.+32     	; 0x56e6 <vfprintf+0x39e>
    56c6:	88 e7       	ldi	r24, 0x78	; 120
    56c8:	90 e0       	ldi	r25, 0x00	; 0
    56ca:	0d c0       	rjmp	.+26     	; 0x56e6 <vfprintf+0x39e>
    56cc:	c4 01       	movw	r24, r8
    56ce:	86 78       	andi	r24, 0x86	; 134
    56d0:	90 70       	andi	r25, 0x00	; 0
    56d2:	00 97       	sbiw	r24, 0x00	; 0
    56d4:	91 f0       	breq	.+36     	; 0x56fa <vfprintf+0x3b2>
    56d6:	81 fc       	sbrc	r8, 1
    56d8:	02 c0       	rjmp	.+4      	; 0x56de <vfprintf+0x396>
    56da:	80 e2       	ldi	r24, 0x20	; 32
    56dc:	01 c0       	rjmp	.+2      	; 0x56e0 <vfprintf+0x398>
    56de:	8b e2       	ldi	r24, 0x2B	; 43
    56e0:	b7 fc       	sbrc	r11, 7
    56e2:	8d e2       	ldi	r24, 0x2D	; 45
    56e4:	90 e0       	ldi	r25, 0x00	; 0
    56e6:	b6 01       	movw	r22, r12
    56e8:	0e 94 f1 2b 	call	0x57e2	; 0x57e2 <fputc>
    56ec:	06 c0       	rjmp	.+12     	; 0x56fa <vfprintf+0x3b2>
    56ee:	80 e3       	ldi	r24, 0x30	; 48
    56f0:	90 e0       	ldi	r25, 0x00	; 0
    56f2:	b6 01       	movw	r22, r12
    56f4:	0e 94 f1 2b 	call	0x57e2	; 0x57e2 <fputc>
    56f8:	ea 94       	dec	r14
    56fa:	7e 14       	cp	r7, r14
    56fc:	c0 f3       	brcs	.-16     	; 0x56ee <vfprintf+0x3a6>
    56fe:	7a 94       	dec	r7
    5700:	f2 01       	movw	r30, r4
    5702:	e7 0d       	add	r30, r7
    5704:	f1 1d       	adc	r31, r1
    5706:	80 81       	ld	r24, Z
    5708:	90 e0       	ldi	r25, 0x00	; 0
    570a:	b6 01       	movw	r22, r12
    570c:	0e 94 f1 2b 	call	0x57e2	; 0x57e2 <fputc>
    5710:	77 20       	and	r7, r7
    5712:	a9 f7       	brne	.-22     	; 0x56fe <vfprintf+0x3b6>
    5714:	06 c0       	rjmp	.+12     	; 0x5722 <vfprintf+0x3da>
    5716:	80 e2       	ldi	r24, 0x20	; 32
    5718:	90 e0       	ldi	r25, 0x00	; 0
    571a:	b6 01       	movw	r22, r12
    571c:	0e 94 f1 2b 	call	0x57e2	; 0x57e2 <fputc>
    5720:	fa 94       	dec	r15
    5722:	ff 20       	and	r15, r15
    5724:	c1 f7       	brne	.-16     	; 0x5716 <vfprintf+0x3ce>
    5726:	37 ce       	rjmp	.-914    	; 0x5396 <vfprintf+0x4e>
    5728:	f6 01       	movw	r30, r12
    572a:	26 81       	ldd	r18, Z+6	; 0x06
    572c:	37 81       	ldd	r19, Z+7	; 0x07
    572e:	02 c0       	rjmp	.+4      	; 0x5734 <vfprintf+0x3ec>
    5730:	2f ef       	ldi	r18, 0xFF	; 255
    5732:	3f ef       	ldi	r19, 0xFF	; 255
    5734:	c9 01       	movw	r24, r18
    5736:	2c 96       	adiw	r28, 0x0c	; 12
    5738:	0f b6       	in	r0, 0x3f	; 63
    573a:	f8 94       	cli
    573c:	de bf       	out	0x3e, r29	; 62
    573e:	0f be       	out	0x3f, r0	; 63
    5740:	cd bf       	out	0x3d, r28	; 61
    5742:	cf 91       	pop	r28
    5744:	df 91       	pop	r29
    5746:	1f 91       	pop	r17
    5748:	0f 91       	pop	r16
    574a:	ff 90       	pop	r15
    574c:	ef 90       	pop	r14
    574e:	df 90       	pop	r13
    5750:	cf 90       	pop	r12
    5752:	bf 90       	pop	r11
    5754:	af 90       	pop	r10
    5756:	9f 90       	pop	r9
    5758:	8f 90       	pop	r8
    575a:	7f 90       	pop	r7
    575c:	6f 90       	pop	r6
    575e:	5f 90       	pop	r5
    5760:	4f 90       	pop	r4
    5762:	3f 90       	pop	r3
    5764:	2f 90       	pop	r2
    5766:	08 95       	ret

00005768 <__eerd_block_m128>:
    5768:	dc 01       	movw	r26, r24
    576a:	cb 01       	movw	r24, r22

0000576c <__eerd_blraw_m128>:
    576c:	fc 01       	movw	r30, r24
    576e:	e1 99       	sbic	0x1c, 1	; 28
    5770:	fe cf       	rjmp	.-4      	; 0x576e <__eerd_blraw_m128+0x2>
    5772:	06 c0       	rjmp	.+12     	; 0x5780 <__eerd_blraw_m128+0x14>
    5774:	ff bb       	out	0x1f, r31	; 31
    5776:	ee bb       	out	0x1e, r30	; 30
    5778:	e0 9a       	sbi	0x1c, 0	; 28
    577a:	31 96       	adiw	r30, 0x01	; 1
    577c:	0d b2       	in	r0, 0x1d	; 29
    577e:	0d 92       	st	X+, r0
    5780:	41 50       	subi	r20, 0x01	; 1
    5782:	50 40       	sbci	r21, 0x00	; 0
    5784:	b8 f7       	brcc	.-18     	; 0x5774 <__eerd_blraw_m128+0x8>
    5786:	08 95       	ret

00005788 <__eewr_block_m128>:
    5788:	dc 01       	movw	r26, r24
    578a:	cb 01       	movw	r24, r22
    578c:	03 c0       	rjmp	.+6      	; 0x5794 <__eewr_block_m128+0xc>
    578e:	2d 91       	ld	r18, X+
    5790:	0e 94 cf 2b 	call	0x579e	; 0x579e <__eewr_r18_m128>
    5794:	41 50       	subi	r20, 0x01	; 1
    5796:	50 40       	sbci	r21, 0x00	; 0
    5798:	d0 f7       	brcc	.-12     	; 0x578e <__eewr_block_m128+0x6>
    579a:	08 95       	ret

0000579c <__eewr_byte_m128>:
    579c:	26 2f       	mov	r18, r22

0000579e <__eewr_r18_m128>:
    579e:	e1 99       	sbic	0x1c, 1	; 28
    57a0:	fe cf       	rjmp	.-4      	; 0x579e <__eewr_r18_m128>
    57a2:	9f bb       	out	0x1f, r25	; 31
    57a4:	8e bb       	out	0x1e, r24	; 30
    57a6:	2d bb       	out	0x1d, r18	; 29
    57a8:	0f b6       	in	r0, 0x3f	; 63
    57aa:	f8 94       	cli
    57ac:	e2 9a       	sbi	0x1c, 2	; 28
    57ae:	e1 9a       	sbi	0x1c, 1	; 28
    57b0:	0f be       	out	0x3f, r0	; 63
    57b2:	01 96       	adiw	r24, 0x01	; 1
    57b4:	08 95       	ret

000057b6 <strnlen_P>:
    57b6:	fc 01       	movw	r30, r24
    57b8:	05 90       	lpm	r0, Z+
    57ba:	61 50       	subi	r22, 0x01	; 1
    57bc:	70 40       	sbci	r23, 0x00	; 0
    57be:	01 10       	cpse	r0, r1
    57c0:	d8 f7       	brcc	.-10     	; 0x57b8 <strnlen_P+0x2>
    57c2:	80 95       	com	r24
    57c4:	90 95       	com	r25
    57c6:	8e 0f       	add	r24, r30
    57c8:	9f 1f       	adc	r25, r31
    57ca:	08 95       	ret

000057cc <strnlen>:
    57cc:	fc 01       	movw	r30, r24
    57ce:	61 50       	subi	r22, 0x01	; 1
    57d0:	70 40       	sbci	r23, 0x00	; 0
    57d2:	01 90       	ld	r0, Z+
    57d4:	01 10       	cpse	r0, r1
    57d6:	d8 f7       	brcc	.-10     	; 0x57ce <strnlen+0x2>
    57d8:	80 95       	com	r24
    57da:	90 95       	com	r25
    57dc:	8e 0f       	add	r24, r30
    57de:	9f 1f       	adc	r25, r31
    57e0:	08 95       	ret

000057e2 <fputc>:
    57e2:	0f 93       	push	r16
    57e4:	1f 93       	push	r17
    57e6:	cf 93       	push	r28
    57e8:	df 93       	push	r29
    57ea:	8c 01       	movw	r16, r24
    57ec:	eb 01       	movw	r28, r22
    57ee:	8b 81       	ldd	r24, Y+3	; 0x03
    57f0:	81 ff       	sbrs	r24, 1
    57f2:	1b c0       	rjmp	.+54     	; 0x582a <fputc+0x48>
    57f4:	82 ff       	sbrs	r24, 2
    57f6:	0d c0       	rjmp	.+26     	; 0x5812 <fputc+0x30>
    57f8:	2e 81       	ldd	r18, Y+6	; 0x06
    57fa:	3f 81       	ldd	r19, Y+7	; 0x07
    57fc:	8c 81       	ldd	r24, Y+4	; 0x04
    57fe:	9d 81       	ldd	r25, Y+5	; 0x05
    5800:	28 17       	cp	r18, r24
    5802:	39 07       	cpc	r19, r25
    5804:	64 f4       	brge	.+24     	; 0x581e <fputc+0x3c>
    5806:	e8 81       	ld	r30, Y
    5808:	f9 81       	ldd	r31, Y+1	; 0x01
    580a:	01 93       	st	Z+, r16
    580c:	f9 83       	std	Y+1, r31	; 0x01
    580e:	e8 83       	st	Y, r30
    5810:	06 c0       	rjmp	.+12     	; 0x581e <fputc+0x3c>
    5812:	e8 85       	ldd	r30, Y+8	; 0x08
    5814:	f9 85       	ldd	r31, Y+9	; 0x09
    5816:	80 2f       	mov	r24, r16
    5818:	09 95       	icall
    581a:	00 97       	sbiw	r24, 0x00	; 0
    581c:	31 f4       	brne	.+12     	; 0x582a <fputc+0x48>
    581e:	8e 81       	ldd	r24, Y+6	; 0x06
    5820:	9f 81       	ldd	r25, Y+7	; 0x07
    5822:	01 96       	adiw	r24, 0x01	; 1
    5824:	9f 83       	std	Y+7, r25	; 0x07
    5826:	8e 83       	std	Y+6, r24	; 0x06
    5828:	02 c0       	rjmp	.+4      	; 0x582e <fputc+0x4c>
    582a:	0f ef       	ldi	r16, 0xFF	; 255
    582c:	1f ef       	ldi	r17, 0xFF	; 255
    582e:	c8 01       	movw	r24, r16
    5830:	df 91       	pop	r29
    5832:	cf 91       	pop	r28
    5834:	1f 91       	pop	r17
    5836:	0f 91       	pop	r16
    5838:	08 95       	ret

0000583a <__ultoa_invert>:
    583a:	fa 01       	movw	r30, r20
    583c:	aa 27       	eor	r26, r26
    583e:	28 30       	cpi	r18, 0x08	; 8
    5840:	51 f1       	breq	.+84     	; 0x5896 <__ultoa_invert+0x5c>
    5842:	20 31       	cpi	r18, 0x10	; 16
    5844:	81 f1       	breq	.+96     	; 0x58a6 <__ultoa_invert+0x6c>
    5846:	e8 94       	clt
    5848:	6f 93       	push	r22
    584a:	6e 7f       	andi	r22, 0xFE	; 254
    584c:	6e 5f       	subi	r22, 0xFE	; 254
    584e:	7f 4f       	sbci	r23, 0xFF	; 255
    5850:	8f 4f       	sbci	r24, 0xFF	; 255
    5852:	9f 4f       	sbci	r25, 0xFF	; 255
    5854:	af 4f       	sbci	r26, 0xFF	; 255
    5856:	b1 e0       	ldi	r27, 0x01	; 1
    5858:	3e d0       	rcall	.+124    	; 0x58d6 <__ultoa_invert+0x9c>
    585a:	b4 e0       	ldi	r27, 0x04	; 4
    585c:	3c d0       	rcall	.+120    	; 0x58d6 <__ultoa_invert+0x9c>
    585e:	67 0f       	add	r22, r23
    5860:	78 1f       	adc	r23, r24
    5862:	89 1f       	adc	r24, r25
    5864:	9a 1f       	adc	r25, r26
    5866:	a1 1d       	adc	r26, r1
    5868:	68 0f       	add	r22, r24
    586a:	79 1f       	adc	r23, r25
    586c:	8a 1f       	adc	r24, r26
    586e:	91 1d       	adc	r25, r1
    5870:	a1 1d       	adc	r26, r1
    5872:	6a 0f       	add	r22, r26
    5874:	71 1d       	adc	r23, r1
    5876:	81 1d       	adc	r24, r1
    5878:	91 1d       	adc	r25, r1
    587a:	a1 1d       	adc	r26, r1
    587c:	20 d0       	rcall	.+64     	; 0x58be <__ultoa_invert+0x84>
    587e:	09 f4       	brne	.+2      	; 0x5882 <__ultoa_invert+0x48>
    5880:	68 94       	set
    5882:	3f 91       	pop	r19
    5884:	2a e0       	ldi	r18, 0x0A	; 10
    5886:	26 9f       	mul	r18, r22
    5888:	11 24       	eor	r1, r1
    588a:	30 19       	sub	r19, r0
    588c:	30 5d       	subi	r19, 0xD0	; 208
    588e:	31 93       	st	Z+, r19
    5890:	de f6       	brtc	.-74     	; 0x5848 <__ultoa_invert+0xe>
    5892:	cf 01       	movw	r24, r30
    5894:	08 95       	ret
    5896:	46 2f       	mov	r20, r22
    5898:	47 70       	andi	r20, 0x07	; 7
    589a:	40 5d       	subi	r20, 0xD0	; 208
    589c:	41 93       	st	Z+, r20
    589e:	b3 e0       	ldi	r27, 0x03	; 3
    58a0:	0f d0       	rcall	.+30     	; 0x58c0 <__ultoa_invert+0x86>
    58a2:	c9 f7       	brne	.-14     	; 0x5896 <__ultoa_invert+0x5c>
    58a4:	f6 cf       	rjmp	.-20     	; 0x5892 <__ultoa_invert+0x58>
    58a6:	46 2f       	mov	r20, r22
    58a8:	4f 70       	andi	r20, 0x0F	; 15
    58aa:	40 5d       	subi	r20, 0xD0	; 208
    58ac:	4a 33       	cpi	r20, 0x3A	; 58
    58ae:	18 f0       	brcs	.+6      	; 0x58b6 <__ultoa_invert+0x7c>
    58b0:	49 5d       	subi	r20, 0xD9	; 217
    58b2:	31 fd       	sbrc	r19, 1
    58b4:	40 52       	subi	r20, 0x20	; 32
    58b6:	41 93       	st	Z+, r20
    58b8:	02 d0       	rcall	.+4      	; 0x58be <__ultoa_invert+0x84>
    58ba:	a9 f7       	brne	.-22     	; 0x58a6 <__ultoa_invert+0x6c>
    58bc:	ea cf       	rjmp	.-44     	; 0x5892 <__ultoa_invert+0x58>
    58be:	b4 e0       	ldi	r27, 0x04	; 4
    58c0:	a6 95       	lsr	r26
    58c2:	97 95       	ror	r25
    58c4:	87 95       	ror	r24
    58c6:	77 95       	ror	r23
    58c8:	67 95       	ror	r22
    58ca:	ba 95       	dec	r27
    58cc:	c9 f7       	brne	.-14     	; 0x58c0 <__ultoa_invert+0x86>
    58ce:	00 97       	sbiw	r24, 0x00	; 0
    58d0:	61 05       	cpc	r22, r1
    58d2:	71 05       	cpc	r23, r1
    58d4:	08 95       	ret
    58d6:	9b 01       	movw	r18, r22
    58d8:	ac 01       	movw	r20, r24
    58da:	0a 2e       	mov	r0, r26
    58dc:	06 94       	lsr	r0
    58de:	57 95       	ror	r21
    58e0:	47 95       	ror	r20
    58e2:	37 95       	ror	r19
    58e4:	27 95       	ror	r18
    58e6:	ba 95       	dec	r27
    58e8:	c9 f7       	brne	.-14     	; 0x58dc <__ultoa_invert+0xa2>
    58ea:	62 0f       	add	r22, r18
    58ec:	73 1f       	adc	r23, r19
    58ee:	84 1f       	adc	r24, r20
    58f0:	95 1f       	adc	r25, r21
    58f2:	a0 1d       	adc	r26, r0
    58f4:	08 95       	ret

000058f6 <_exit>:
    58f6:	f8 94       	cli

000058f8 <__stop_program>:
    58f8:	ff cf       	rjmp	.-2      	; 0x58f8 <__stop_program>
